
paganos:     file format elf64-x86-64

Disassembly of section .text:

0000000000100000 <_start>:

		.globl  start, _start
start:
_start:
	.code32
		jmp multiboot_entry
  100000:	eb 22                	jmp    100024 <multiboot_entry>
  100002:	66 90                	xchg   %ax,%ax

0000000000100004 <multiboot_header>:
  100004:	02 b0 ad 1b 03 00    	add    0x31bad(%rax),%dh
  10000a:	01 00                	add    %eax,(%rax)
  10000c:	fb                   	sti    
  10000d:	4f 51                	rex.WRXB push   %r9
  10000f:	e4 04                	in     $0x4,%al
  100011:	00 10                	add    %dl,(%rax)
  100013:	00 00                	add    %al,(%rax)
  100015:	00 10                	add    %dl,(%rax)
  100017:	00 70 3e             	add    %dh,0x3e(%rax)
  10001a:	12 00                	adc    (%rax),%al
  10001c:	c0 9b 12 00 24 00 10 	rcrb   $0x10,0x240012(%rbx)
	...

0000000000100024 <multiboot_entry>:
#endif

multiboot_entry:

		/* Stash values for multiboot we won't touch until 64 bit mode */
		movl %ebx, %esi
  100024:	89 de                	mov    %ebx,%esi
		movl %eax, %edi
  100026:	89 c7                	mov    %eax,%edi

		/* enable 64-bit page-translation-table entries by
			setting CR4.PAE=1.  Paging not enabled until after
			long mode enabled */
		movl %cr4, %eax
  100028:	0f 20 e0             	mov    %cr4,%rax
		bts  $5,   %eax
  10002b:	0f ba e8 05          	bts    $0x5,%eax
		movl %eax, %cr4
  10002f:	0f 22 e0             	mov    %rax,%cr4

		/* Create long mode page table and init CR3 to point to
			the base of the PML4 page table.  */
		movl $pml4_base, %eax
  100032:	b8 00 10 10 00       	mov    $0x101000,%eax
		movl %eax, %cr3
  100037:	0f 22 d8             	mov    %rax,%cr3

		/* Enable Long mode */
		movl $0xc0000080, %ecx
  10003a:	b9 80 00 00 c0       	mov    $0xc0000080,%ecx
		rdmsr
  10003f:	0f 32                	rdmsr  
		bts $8, %eax
  100041:	0f ba e8 08          	bts    $0x8,%eax
		wrmsr
  100045:	0f 30                	wrmsr  

		/* enable paging to activate long mode */
		movl %cr0, %eax
  100047:	0f 20 c0             	mov    %cr0,%rax
		bts  $31,  %eax
  10004a:	0f ba e8 1f          	bts    $0x1f,%eax
		movl %eax, %cr0
  10004e:	0f 22 c0             	mov    %rax,%cr0

		or  %edx, %edx
  100051:	09 d2                	or     %edx,%edx
		and %edx, %edx
  100053:	21 d2                	and    %edx,%edx

		/* Load the GDT */
		lgdt	pGDT32
  100055:	0f 01 15 7f 00 10 00 	lgdt   0x10007f(%rip)        # 2000db <_end+0xd651b>

		// set the segment registers
		
	
		ljmp $CS_KERNEL, $start64
  10005c:	ea                   	(bad)  
  10005d:	63 00                	movslq (%rax),%eax
  10005f:	10 00                	adc    %al,(%rax)
  100061:	10 00                	adc    %al,(%rax)

0000000000100063 <start64>:

	.code64
	start64:

		/* Initialize the stack pointer. */
		movq    $(stack + STACK_SIZE), %rsp
  100063:	48 c7 c4 c0 9b 12 00 	mov    $0x129bc0,%rsp

		/* Clear cpu flags */
		pushq $0
  10006a:	6a 00                	pushq  $0x0
		popf
  10006c:	9d                   	popfq  

		/* Push the pointer to the Multiboot information structure. */
		pushq   %rsi
  10006d:	56                   	push   %rsi
		/* Push the magic value. */
		pushq   %rdi
  10006e:	57                   	push   %rdi

		/* Now enter the C main function... */
		call    EXT_C(cmain)
  10006f:	e8 b5 3f 00 00       	callq  104029 <cmain>

0000000000100074 <loop>:

		/* Halt. */
		/*pushq   $halt_message
		call    EXT_C(kprintf)*/

loop:   hlt
  100074:	f4                   	hlt    
		jmp     loop
  100075:	eb fd                	jmp    100074 <loop>

0000000000100077 <halt_message>:
  100077:	48 61                	rex.W (bad)  
  100079:	6c                   	insb   (%dx),%es:(%rdi)
  10007a:	74 65                	je     1000e1 <GDT_TABLE+0x58>
  10007c:	64 2e 00 af 00 89 00 	add    %ch,%cs:%fs:0x10008900(%rdi)
  100083:	10 

000000000010007f <pGDT32>:
  10007f:	af                   	scas   %es:(%rdi),%eax
  100080:	00 89 00 10 00 00    	add    %cl,0x1000(%rcx)
  100086:	00 00                	add    %al,(%rax)
	...

0000000000100089 <GDT_TABLE>:
	...
  100091:	ff                   	(bad)  
  100092:	ff 00                	incl   (%rax)
  100094:	00 00                	add    %al,(%rax)
  100096:	9a                   	(bad)  
  100097:	cf                   	iret   
  100098:	00 ff                	add    %bh,%bh
  10009a:	ff 00                	incl   (%rax)
  10009c:	00 00                	add    %al,(%rax)
  10009e:	9a                   	(bad)  
  10009f:	af                   	scas   %es:(%rdi),%eax
	...
  1000a8:	00 ff                	add    %bh,%bh
  1000aa:	ff 00                	incl   (%rax)
  1000ac:	00 00                	add    %al,(%rax)
  1000ae:	93                   	xchg   %eax,%ebx
  1000af:	af                   	scas   %es:(%rdi),%eax
	...
  1000b8:	00 ff                	add    %bh,%bh
  1000ba:	ff 00                	incl   (%rax)
  1000bc:	00 00                	add    %al,(%rax)
  1000be:	fa                   	cli    
  1000bf:	af                   	scas   %es:(%rdi),%eax
	...
  1000c8:	00 ff                	add    %bh,%bh
  1000ca:	ff 00                	incl   (%rax)
  1000cc:	00 00                	add    %al,(%rax)
  1000ce:	f3 af                	repz scas %es:(%rdi),%eax
	...
  100134:	00 00                	add    %al,(%rax)
  100136:	f4                   	hlt    
	...

0000000000100139 <GDT_END>:
  100139:	90                   	nop    
  10013a:	90                   	nop    
  10013b:	90                   	nop    
  10013c:	90                   	nop    
  10013d:	90                   	nop    
  10013e:	90                   	nop    
  10013f:	90                   	nop    
  100140:	90                   	nop    
  100141:	90                   	nop    
  100142:	90                   	nop    
  100143:	90                   	nop    
  100144:	90                   	nop    
  100145:	90                   	nop    
  100146:	90                   	nop    
  100147:	90                   	nop    
  100148:	90                   	nop    
  100149:	90                   	nop    
  10014a:	90                   	nop    
  10014b:	90                   	nop    
  10014c:	90                   	nop    
  10014d:	90                   	nop    
  10014e:	90                   	nop    
  10014f:	90                   	nop    
  100150:	90                   	nop    
  100151:	90                   	nop    
  100152:	90                   	nop    
  100153:	90                   	nop    
  100154:	90                   	nop    
  100155:	90                   	nop    
  100156:	90                   	nop    
  100157:	90                   	nop    
  100158:	90                   	nop    
  100159:	90                   	nop    
  10015a:	90                   	nop    
  10015b:	90                   	nop    
  10015c:	90                   	nop    
  10015d:	90                   	nop    
  10015e:	90                   	nop    
  10015f:	90                   	nop    
  100160:	90                   	nop    
  100161:	90                   	nop    
  100162:	90                   	nop    
  100163:	90                   	nop    
  100164:	90                   	nop    
  100165:	90                   	nop    
  100166:	90                   	nop    
  100167:	90                   	nop    
  100168:	90                   	nop    
  100169:	90                   	nop    
  10016a:	90                   	nop    
  10016b:	90                   	nop    
  10016c:	90                   	nop    
  10016d:	90                   	nop    
  10016e:	90                   	nop    
  10016f:	90                   	nop    
  100170:	90                   	nop    
  100171:	90                   	nop    
  100172:	90                   	nop    
  100173:	90                   	nop    
  100174:	90                   	nop    
  100175:	90                   	nop    
  100176:	90                   	nop    
  100177:	90                   	nop    
  100178:	90                   	nop    
  100179:	90                   	nop    
  10017a:	90                   	nop    
  10017b:	90                   	nop    
  10017c:	90                   	nop    
  10017d:	90                   	nop    
  10017e:	90                   	nop    
  10017f:	90                   	nop    
  100180:	90                   	nop    
  100181:	90                   	nop    
  100182:	90                   	nop    
  100183:	90                   	nop    
  100184:	90                   	nop    
  100185:	90                   	nop    
  100186:	90                   	nop    
  100187:	90                   	nop    
  100188:	90                   	nop    
  100189:	90                   	nop    
  10018a:	90                   	nop    
  10018b:	90                   	nop    
  10018c:	90                   	nop    
  10018d:	90                   	nop    
  10018e:	90                   	nop    
  10018f:	90                   	nop    
  100190:	90                   	nop    
  100191:	90                   	nop    
  100192:	90                   	nop    
  100193:	90                   	nop    
  100194:	90                   	nop    
  100195:	90                   	nop    
  100196:	90                   	nop    
  100197:	90                   	nop    
  100198:	90                   	nop    
  100199:	90                   	nop    
  10019a:	90                   	nop    
  10019b:	90                   	nop    
  10019c:	90                   	nop    
  10019d:	90                   	nop    
  10019e:	90                   	nop    
  10019f:	90                   	nop    
  1001a0:	90                   	nop    
  1001a1:	90                   	nop    
  1001a2:	90                   	nop    
  1001a3:	90                   	nop    
  1001a4:	90                   	nop    
  1001a5:	90                   	nop    
  1001a6:	90                   	nop    
  1001a7:	90                   	nop    
  1001a8:	90                   	nop    
  1001a9:	90                   	nop    
  1001aa:	90                   	nop    
  1001ab:	90                   	nop    
  1001ac:	90                   	nop    
  1001ad:	90                   	nop    
  1001ae:	90                   	nop    
  1001af:	90                   	nop    
  1001b0:	90                   	nop    
  1001b1:	90                   	nop    
  1001b2:	90                   	nop    
  1001b3:	90                   	nop    
  1001b4:	90                   	nop    
  1001b5:	90                   	nop    
  1001b6:	90                   	nop    
  1001b7:	90                   	nop    
  1001b8:	90                   	nop    
  1001b9:	90                   	nop    
  1001ba:	90                   	nop    
  1001bb:	90                   	nop    
  1001bc:	90                   	nop    
  1001bd:	90                   	nop    
  1001be:	90                   	nop    
  1001bf:	90                   	nop    
  1001c0:	90                   	nop    
  1001c1:	90                   	nop    
  1001c2:	90                   	nop    
  1001c3:	90                   	nop    
  1001c4:	90                   	nop    
  1001c5:	90                   	nop    
  1001c6:	90                   	nop    
  1001c7:	90                   	nop    
  1001c8:	90                   	nop    
  1001c9:	90                   	nop    
  1001ca:	90                   	nop    
  1001cb:	90                   	nop    
  1001cc:	90                   	nop    
  1001cd:	90                   	nop    
  1001ce:	90                   	nop    
  1001cf:	90                   	nop    
  1001d0:	90                   	nop    
  1001d1:	90                   	nop    
  1001d2:	90                   	nop    
  1001d3:	90                   	nop    
  1001d4:	90                   	nop    
  1001d5:	90                   	nop    
  1001d6:	90                   	nop    
  1001d7:	90                   	nop    
  1001d8:	90                   	nop    
  1001d9:	90                   	nop    
  1001da:	90                   	nop    
  1001db:	90                   	nop    
  1001dc:	90                   	nop    
  1001dd:	90                   	nop    
  1001de:	90                   	nop    
  1001df:	90                   	nop    
  1001e0:	90                   	nop    
  1001e1:	90                   	nop    
  1001e2:	90                   	nop    
  1001e3:	90                   	nop    
  1001e4:	90                   	nop    
  1001e5:	90                   	nop    
  1001e6:	90                   	nop    
  1001e7:	90                   	nop    
  1001e8:	90                   	nop    
  1001e9:	90                   	nop    
  1001ea:	90                   	nop    
  1001eb:	90                   	nop    
  1001ec:	90                   	nop    
  1001ed:	90                   	nop    
  1001ee:	90                   	nop    
  1001ef:	90                   	nop    
  1001f0:	90                   	nop    
  1001f1:	90                   	nop    
  1001f2:	90                   	nop    
  1001f3:	90                   	nop    
  1001f4:	90                   	nop    
  1001f5:	90                   	nop    
  1001f6:	90                   	nop    
  1001f7:	90                   	nop    
  1001f8:	90                   	nop    
  1001f9:	90                   	nop    
  1001fa:	90                   	nop    
  1001fb:	90                   	nop    
  1001fc:	90                   	nop    
  1001fd:	90                   	nop    
  1001fe:	90                   	nop    
  1001ff:	90                   	nop    
  100200:	90                   	nop    
  100201:	90                   	nop    
  100202:	90                   	nop    
  100203:	90                   	nop    
  100204:	90                   	nop    
  100205:	90                   	nop    
  100206:	90                   	nop    
  100207:	90                   	nop    
  100208:	90                   	nop    
  100209:	90                   	nop    
  10020a:	90                   	nop    
  10020b:	90                   	nop    
  10020c:	90                   	nop    
  10020d:	90                   	nop    
  10020e:	90                   	nop    
  10020f:	90                   	nop    
  100210:	90                   	nop    
  100211:	90                   	nop    
  100212:	90                   	nop    
  100213:	90                   	nop    
  100214:	90                   	nop    
  100215:	90                   	nop    
  100216:	90                   	nop    
  100217:	90                   	nop    
  100218:	90                   	nop    
  100219:	90                   	nop    
  10021a:	90                   	nop    
  10021b:	90                   	nop    
  10021c:	90                   	nop    
  10021d:	90                   	nop    
  10021e:	90                   	nop    
  10021f:	90                   	nop    
  100220:	90                   	nop    
  100221:	90                   	nop    
  100222:	90                   	nop    
  100223:	90                   	nop    
  100224:	90                   	nop    
  100225:	90                   	nop    
  100226:	90                   	nop    
  100227:	90                   	nop    
  100228:	90                   	nop    
  100229:	90                   	nop    
  10022a:	90                   	nop    
  10022b:	90                   	nop    
  10022c:	90                   	nop    
  10022d:	90                   	nop    
  10022e:	90                   	nop    
  10022f:	90                   	nop    
  100230:	90                   	nop    
  100231:	90                   	nop    
  100232:	90                   	nop    
  100233:	90                   	nop    
  100234:	90                   	nop    
  100235:	90                   	nop    
  100236:	90                   	nop    
  100237:	90                   	nop    
  100238:	90                   	nop    
  100239:	90                   	nop    
  10023a:	90                   	nop    
  10023b:	90                   	nop    
  10023c:	90                   	nop    
  10023d:	90                   	nop    
  10023e:	90                   	nop    
  10023f:	90                   	nop    
  100240:	90                   	nop    
  100241:	90                   	nop    
  100242:	90                   	nop    
  100243:	90                   	nop    
  100244:	90                   	nop    
  100245:	90                   	nop    
  100246:	90                   	nop    
  100247:	90                   	nop    
  100248:	90                   	nop    
  100249:	90                   	nop    
  10024a:	90                   	nop    
  10024b:	90                   	nop    
  10024c:	90                   	nop    
  10024d:	90                   	nop    
  10024e:	90                   	nop    
  10024f:	90                   	nop    
  100250:	90                   	nop    
  100251:	90                   	nop    
  100252:	90                   	nop    
  100253:	90                   	nop    
  100254:	90                   	nop    
  100255:	90                   	nop    
  100256:	90                   	nop    
  100257:	90                   	nop    
  100258:	90                   	nop    
  100259:	90                   	nop    
  10025a:	90                   	nop    
  10025b:	90                   	nop    
  10025c:	90                   	nop    
  10025d:	90                   	nop    
  10025e:	90                   	nop    
  10025f:	90                   	nop    
  100260:	90                   	nop    
  100261:	90                   	nop    
  100262:	90                   	nop    
  100263:	90                   	nop    
  100264:	90                   	nop    
  100265:	90                   	nop    
  100266:	90                   	nop    
  100267:	90                   	nop    
  100268:	90                   	nop    
  100269:	90                   	nop    
  10026a:	90                   	nop    
  10026b:	90                   	nop    
  10026c:	90                   	nop    
  10026d:	90                   	nop    
  10026e:	90                   	nop    
  10026f:	90                   	nop    
  100270:	90                   	nop    
  100271:	90                   	nop    
  100272:	90                   	nop    
  100273:	90                   	nop    
  100274:	90                   	nop    
  100275:	90                   	nop    
  100276:	90                   	nop    
  100277:	90                   	nop    
  100278:	90                   	nop    
  100279:	90                   	nop    
  10027a:	90                   	nop    
  10027b:	90                   	nop    
  10027c:	90                   	nop    
  10027d:	90                   	nop    
  10027e:	90                   	nop    
  10027f:	90                   	nop    
  100280:	90                   	nop    
  100281:	90                   	nop    
  100282:	90                   	nop    
  100283:	90                   	nop    
  100284:	90                   	nop    
  100285:	90                   	nop    
  100286:	90                   	nop    
  100287:	90                   	nop    
  100288:	90                   	nop    
  100289:	90                   	nop    
  10028a:	90                   	nop    
  10028b:	90                   	nop    
  10028c:	90                   	nop    
  10028d:	90                   	nop    
  10028e:	90                   	nop    
  10028f:	90                   	nop    
  100290:	90                   	nop    
  100291:	90                   	nop    
  100292:	90                   	nop    
  100293:	90                   	nop    
  100294:	90                   	nop    
  100295:	90                   	nop    
  100296:	90                   	nop    
  100297:	90                   	nop    
  100298:	90                   	nop    
  100299:	90                   	nop    
  10029a:	90                   	nop    
  10029b:	90                   	nop    
  10029c:	90                   	nop    
  10029d:	90                   	nop    
  10029e:	90                   	nop    
  10029f:	90                   	nop    
  1002a0:	90                   	nop    
  1002a1:	90                   	nop    
  1002a2:	90                   	nop    
  1002a3:	90                   	nop    
  1002a4:	90                   	nop    
  1002a5:	90                   	nop    
  1002a6:	90                   	nop    
  1002a7:	90                   	nop    
  1002a8:	90                   	nop    
  1002a9:	90                   	nop    
  1002aa:	90                   	nop    
  1002ab:	90                   	nop    
  1002ac:	90                   	nop    
  1002ad:	90                   	nop    
  1002ae:	90                   	nop    
  1002af:	90                   	nop    
  1002b0:	90                   	nop    
  1002b1:	90                   	nop    
  1002b2:	90                   	nop    
  1002b3:	90                   	nop    
  1002b4:	90                   	nop    
  1002b5:	90                   	nop    
  1002b6:	90                   	nop    
  1002b7:	90                   	nop    
  1002b8:	90                   	nop    
  1002b9:	90                   	nop    
  1002ba:	90                   	nop    
  1002bb:	90                   	nop    
  1002bc:	90                   	nop    
  1002bd:	90                   	nop    
  1002be:	90                   	nop    
  1002bf:	90                   	nop    
  1002c0:	90                   	nop    
  1002c1:	90                   	nop    
  1002c2:	90                   	nop    
  1002c3:	90                   	nop    
  1002c4:	90                   	nop    
  1002c5:	90                   	nop    
  1002c6:	90                   	nop    
  1002c7:	90                   	nop    
  1002c8:	90                   	nop    
  1002c9:	90                   	nop    
  1002ca:	90                   	nop    
  1002cb:	90                   	nop    
  1002cc:	90                   	nop    
  1002cd:	90                   	nop    
  1002ce:	90                   	nop    
  1002cf:	90                   	nop    
  1002d0:	90                   	nop    
  1002d1:	90                   	nop    
  1002d2:	90                   	nop    
  1002d3:	90                   	nop    
  1002d4:	90                   	nop    
  1002d5:	90                   	nop    
  1002d6:	90                   	nop    
  1002d7:	90                   	nop    
  1002d8:	90                   	nop    
  1002d9:	90                   	nop    
  1002da:	90                   	nop    
  1002db:	90                   	nop    
  1002dc:	90                   	nop    
  1002dd:	90                   	nop    
  1002de:	90                   	nop    
  1002df:	90                   	nop    
  1002e0:	90                   	nop    
  1002e1:	90                   	nop    
  1002e2:	90                   	nop    
  1002e3:	90                   	nop    
  1002e4:	90                   	nop    
  1002e5:	90                   	nop    
  1002e6:	90                   	nop    
  1002e7:	90                   	nop    
  1002e8:	90                   	nop    
  1002e9:	90                   	nop    
  1002ea:	90                   	nop    
  1002eb:	90                   	nop    
  1002ec:	90                   	nop    
  1002ed:	90                   	nop    
  1002ee:	90                   	nop    
  1002ef:	90                   	nop    
  1002f0:	90                   	nop    
  1002f1:	90                   	nop    
  1002f2:	90                   	nop    
  1002f3:	90                   	nop    
  1002f4:	90                   	nop    
  1002f5:	90                   	nop    
  1002f6:	90                   	nop    
  1002f7:	90                   	nop    
  1002f8:	90                   	nop    
  1002f9:	90                   	nop    
  1002fa:	90                   	nop    
  1002fb:	90                   	nop    
  1002fc:	90                   	nop    
  1002fd:	90                   	nop    
  1002fe:	90                   	nop    
  1002ff:	90                   	nop    
  100300:	90                   	nop    
  100301:	90                   	nop    
  100302:	90                   	nop    
  100303:	90                   	nop    
  100304:	90                   	nop    
  100305:	90                   	nop    
  100306:	90                   	nop    
  100307:	90                   	nop    
  100308:	90                   	nop    
  100309:	90                   	nop    
  10030a:	90                   	nop    
  10030b:	90                   	nop    
  10030c:	90                   	nop    
  10030d:	90                   	nop    
  10030e:	90                   	nop    
  10030f:	90                   	nop    
  100310:	90                   	nop    
  100311:	90                   	nop    
  100312:	90                   	nop    
  100313:	90                   	nop    
  100314:	90                   	nop    
  100315:	90                   	nop    
  100316:	90                   	nop    
  100317:	90                   	nop    
  100318:	90                   	nop    
  100319:	90                   	nop    
  10031a:	90                   	nop    
  10031b:	90                   	nop    
  10031c:	90                   	nop    
  10031d:	90                   	nop    
  10031e:	90                   	nop    
  10031f:	90                   	nop    
  100320:	90                   	nop    
  100321:	90                   	nop    
  100322:	90                   	nop    
  100323:	90                   	nop    
  100324:	90                   	nop    
  100325:	90                   	nop    
  100326:	90                   	nop    
  100327:	90                   	nop    
  100328:	90                   	nop    
  100329:	90                   	nop    
  10032a:	90                   	nop    
  10032b:	90                   	nop    
  10032c:	90                   	nop    
  10032d:	90                   	nop    
  10032e:	90                   	nop    
  10032f:	90                   	nop    
  100330:	90                   	nop    
  100331:	90                   	nop    
  100332:	90                   	nop    
  100333:	90                   	nop    
  100334:	90                   	nop    
  100335:	90                   	nop    
  100336:	90                   	nop    
  100337:	90                   	nop    
  100338:	90                   	nop    
  100339:	90                   	nop    
  10033a:	90                   	nop    
  10033b:	90                   	nop    
  10033c:	90                   	nop    
  10033d:	90                   	nop    
  10033e:	90                   	nop    
  10033f:	90                   	nop    
  100340:	90                   	nop    
  100341:	90                   	nop    
  100342:	90                   	nop    
  100343:	90                   	nop    
  100344:	90                   	nop    
  100345:	90                   	nop    
  100346:	90                   	nop    
  100347:	90                   	nop    
  100348:	90                   	nop    
  100349:	90                   	nop    
  10034a:	90                   	nop    
  10034b:	90                   	nop    
  10034c:	90                   	nop    
  10034d:	90                   	nop    
  10034e:	90                   	nop    
  10034f:	90                   	nop    
  100350:	90                   	nop    
  100351:	90                   	nop    
  100352:	90                   	nop    
  100353:	90                   	nop    
  100354:	90                   	nop    
  100355:	90                   	nop    
  100356:	90                   	nop    
  100357:	90                   	nop    
  100358:	90                   	nop    
  100359:	90                   	nop    
  10035a:	90                   	nop    
  10035b:	90                   	nop    
  10035c:	90                   	nop    
  10035d:	90                   	nop    
  10035e:	90                   	nop    
  10035f:	90                   	nop    
  100360:	90                   	nop    
  100361:	90                   	nop    
  100362:	90                   	nop    
  100363:	90                   	nop    
  100364:	90                   	nop    
  100365:	90                   	nop    
  100366:	90                   	nop    
  100367:	90                   	nop    
  100368:	90                   	nop    
  100369:	90                   	nop    
  10036a:	90                   	nop    
  10036b:	90                   	nop    
  10036c:	90                   	nop    
  10036d:	90                   	nop    
  10036e:	90                   	nop    
  10036f:	90                   	nop    
  100370:	90                   	nop    
  100371:	90                   	nop    
  100372:	90                   	nop    
  100373:	90                   	nop    
  100374:	90                   	nop    
  100375:	90                   	nop    
  100376:	90                   	nop    
  100377:	90                   	nop    
  100378:	90                   	nop    
  100379:	90                   	nop    
  10037a:	90                   	nop    
  10037b:	90                   	nop    
  10037c:	90                   	nop    
  10037d:	90                   	nop    
  10037e:	90                   	nop    
  10037f:	90                   	nop    
  100380:	90                   	nop    
  100381:	90                   	nop    
  100382:	90                   	nop    
  100383:	90                   	nop    
  100384:	90                   	nop    
  100385:	90                   	nop    
  100386:	90                   	nop    
  100387:	90                   	nop    
  100388:	90                   	nop    
  100389:	90                   	nop    
  10038a:	90                   	nop    
  10038b:	90                   	nop    
  10038c:	90                   	nop    
  10038d:	90                   	nop    
  10038e:	90                   	nop    
  10038f:	90                   	nop    
  100390:	90                   	nop    
  100391:	90                   	nop    
  100392:	90                   	nop    
  100393:	90                   	nop    
  100394:	90                   	nop    
  100395:	90                   	nop    
  100396:	90                   	nop    
  100397:	90                   	nop    
  100398:	90                   	nop    
  100399:	90                   	nop    
  10039a:	90                   	nop    
  10039b:	90                   	nop    
  10039c:	90                   	nop    
  10039d:	90                   	nop    
  10039e:	90                   	nop    
  10039f:	90                   	nop    
  1003a0:	90                   	nop    
  1003a1:	90                   	nop    
  1003a2:	90                   	nop    
  1003a3:	90                   	nop    
  1003a4:	90                   	nop    
  1003a5:	90                   	nop    
  1003a6:	90                   	nop    
  1003a7:	90                   	nop    
  1003a8:	90                   	nop    
  1003a9:	90                   	nop    
  1003aa:	90                   	nop    
  1003ab:	90                   	nop    
  1003ac:	90                   	nop    
  1003ad:	90                   	nop    
  1003ae:	90                   	nop    
  1003af:	90                   	nop    
  1003b0:	90                   	nop    
  1003b1:	90                   	nop    
  1003b2:	90                   	nop    
  1003b3:	90                   	nop    
  1003b4:	90                   	nop    
  1003b5:	90                   	nop    
  1003b6:	90                   	nop    
  1003b7:	90                   	nop    
  1003b8:	90                   	nop    
  1003b9:	90                   	nop    
  1003ba:	90                   	nop    
  1003bb:	90                   	nop    
  1003bc:	90                   	nop    
  1003bd:	90                   	nop    
  1003be:	90                   	nop    
  1003bf:	90                   	nop    
  1003c0:	90                   	nop    
  1003c1:	90                   	nop    
  1003c2:	90                   	nop    
  1003c3:	90                   	nop    
  1003c4:	90                   	nop    
  1003c5:	90                   	nop    
  1003c6:	90                   	nop    
  1003c7:	90                   	nop    
  1003c8:	90                   	nop    
  1003c9:	90                   	nop    
  1003ca:	90                   	nop    
  1003cb:	90                   	nop    
  1003cc:	90                   	nop    
  1003cd:	90                   	nop    
  1003ce:	90                   	nop    
  1003cf:	90                   	nop    
  1003d0:	90                   	nop    
  1003d1:	90                   	nop    
  1003d2:	90                   	nop    
  1003d3:	90                   	nop    
  1003d4:	90                   	nop    
  1003d5:	90                   	nop    
  1003d6:	90                   	nop    
  1003d7:	90                   	nop    
  1003d8:	90                   	nop    
  1003d9:	90                   	nop    
  1003da:	90                   	nop    
  1003db:	90                   	nop    
  1003dc:	90                   	nop    
  1003dd:	90                   	nop    
  1003de:	90                   	nop    
  1003df:	90                   	nop    
  1003e0:	90                   	nop    
  1003e1:	90                   	nop    
  1003e2:	90                   	nop    
  1003e3:	90                   	nop    
  1003e4:	90                   	nop    
  1003e5:	90                   	nop    
  1003e6:	90                   	nop    
  1003e7:	90                   	nop    
  1003e8:	90                   	nop    
  1003e9:	90                   	nop    
  1003ea:	90                   	nop    
  1003eb:	90                   	nop    
  1003ec:	90                   	nop    
  1003ed:	90                   	nop    
  1003ee:	90                   	nop    
  1003ef:	90                   	nop    
  1003f0:	90                   	nop    
  1003f1:	90                   	nop    
  1003f2:	90                   	nop    
  1003f3:	90                   	nop    
  1003f4:	90                   	nop    
  1003f5:	90                   	nop    
  1003f6:	90                   	nop    
  1003f7:	90                   	nop    
  1003f8:	90                   	nop    
  1003f9:	90                   	nop    
  1003fa:	90                   	nop    
  1003fb:	90                   	nop    
  1003fc:	90                   	nop    
  1003fd:	90                   	nop    
  1003fe:	90                   	nop    
  1003ff:	90                   	nop    
  100400:	90                   	nop    
  100401:	90                   	nop    
  100402:	90                   	nop    
  100403:	90                   	nop    
  100404:	90                   	nop    
  100405:	90                   	nop    
  100406:	90                   	nop    
  100407:	90                   	nop    
  100408:	90                   	nop    
  100409:	90                   	nop    
  10040a:	90                   	nop    
  10040b:	90                   	nop    
  10040c:	90                   	nop    
  10040d:	90                   	nop    
  10040e:	90                   	nop    
  10040f:	90                   	nop    
  100410:	90                   	nop    
  100411:	90                   	nop    
  100412:	90                   	nop    
  100413:	90                   	nop    
  100414:	90                   	nop    
  100415:	90                   	nop    
  100416:	90                   	nop    
  100417:	90                   	nop    
  100418:	90                   	nop    
  100419:	90                   	nop    
  10041a:	90                   	nop    
  10041b:	90                   	nop    
  10041c:	90                   	nop    
  10041d:	90                   	nop    
  10041e:	90                   	nop    
  10041f:	90                   	nop    
  100420:	90                   	nop    
  100421:	90                   	nop    
  100422:	90                   	nop    
  100423:	90                   	nop    
  100424:	90                   	nop    
  100425:	90                   	nop    
  100426:	90                   	nop    
  100427:	90                   	nop    
  100428:	90                   	nop    
  100429:	90                   	nop    
  10042a:	90                   	nop    
  10042b:	90                   	nop    
  10042c:	90                   	nop    
  10042d:	90                   	nop    
  10042e:	90                   	nop    
  10042f:	90                   	nop    
  100430:	90                   	nop    
  100431:	90                   	nop    
  100432:	90                   	nop    
  100433:	90                   	nop    
  100434:	90                   	nop    
  100435:	90                   	nop    
  100436:	90                   	nop    
  100437:	90                   	nop    
  100438:	90                   	nop    
  100439:	90                   	nop    
  10043a:	90                   	nop    
  10043b:	90                   	nop    
  10043c:	90                   	nop    
  10043d:	90                   	nop    
  10043e:	90                   	nop    
  10043f:	90                   	nop    
  100440:	90                   	nop    
  100441:	90                   	nop    
  100442:	90                   	nop    
  100443:	90                   	nop    
  100444:	90                   	nop    
  100445:	90                   	nop    
  100446:	90                   	nop    
  100447:	90                   	nop    
  100448:	90                   	nop    
  100449:	90                   	nop    
  10044a:	90                   	nop    
  10044b:	90                   	nop    
  10044c:	90                   	nop    
  10044d:	90                   	nop    
  10044e:	90                   	nop    
  10044f:	90                   	nop    
  100450:	90                   	nop    
  100451:	90                   	nop    
  100452:	90                   	nop    
  100453:	90                   	nop    
  100454:	90                   	nop    
  100455:	90                   	nop    
  100456:	90                   	nop    
  100457:	90                   	nop    
  100458:	90                   	nop    
  100459:	90                   	nop    
  10045a:	90                   	nop    
  10045b:	90                   	nop    
  10045c:	90                   	nop    
  10045d:	90                   	nop    
  10045e:	90                   	nop    
  10045f:	90                   	nop    
  100460:	90                   	nop    
  100461:	90                   	nop    
  100462:	90                   	nop    
  100463:	90                   	nop    
  100464:	90                   	nop    
  100465:	90                   	nop    
  100466:	90                   	nop    
  100467:	90                   	nop    
  100468:	90                   	nop    
  100469:	90                   	nop    
  10046a:	90                   	nop    
  10046b:	90                   	nop    
  10046c:	90                   	nop    
  10046d:	90                   	nop    
  10046e:	90                   	nop    
  10046f:	90                   	nop    
  100470:	90                   	nop    
  100471:	90                   	nop    
  100472:	90                   	nop    
  100473:	90                   	nop    
  100474:	90                   	nop    
  100475:	90                   	nop    
  100476:	90                   	nop    
  100477:	90                   	nop    
  100478:	90                   	nop    
  100479:	90                   	nop    
  10047a:	90                   	nop    
  10047b:	90                   	nop    
  10047c:	90                   	nop    
  10047d:	90                   	nop    
  10047e:	90                   	nop    
  10047f:	90                   	nop    
  100480:	90                   	nop    
  100481:	90                   	nop    
  100482:	90                   	nop    
  100483:	90                   	nop    
  100484:	90                   	nop    
  100485:	90                   	nop    
  100486:	90                   	nop    
  100487:	90                   	nop    
  100488:	90                   	nop    
  100489:	90                   	nop    
  10048a:	90                   	nop    
  10048b:	90                   	nop    
  10048c:	90                   	nop    
  10048d:	90                   	nop    
  10048e:	90                   	nop    
  10048f:	90                   	nop    
  100490:	90                   	nop    
  100491:	90                   	nop    
  100492:	90                   	nop    
  100493:	90                   	nop    
  100494:	90                   	nop    
  100495:	90                   	nop    
  100496:	90                   	nop    
  100497:	90                   	nop    
  100498:	90                   	nop    
  100499:	90                   	nop    
  10049a:	90                   	nop    
  10049b:	90                   	nop    
  10049c:	90                   	nop    
  10049d:	90                   	nop    
  10049e:	90                   	nop    
  10049f:	90                   	nop    
  1004a0:	90                   	nop    
  1004a1:	90                   	nop    
  1004a2:	90                   	nop    
  1004a3:	90                   	nop    
  1004a4:	90                   	nop    
  1004a5:	90                   	nop    
  1004a6:	90                   	nop    
  1004a7:	90                   	nop    
  1004a8:	90                   	nop    
  1004a9:	90                   	nop    
  1004aa:	90                   	nop    
  1004ab:	90                   	nop    
  1004ac:	90                   	nop    
  1004ad:	90                   	nop    
  1004ae:	90                   	nop    
  1004af:	90                   	nop    
  1004b0:	90                   	nop    
  1004b1:	90                   	nop    
  1004b2:	90                   	nop    
  1004b3:	90                   	nop    
  1004b4:	90                   	nop    
  1004b5:	90                   	nop    
  1004b6:	90                   	nop    
  1004b7:	90                   	nop    
  1004b8:	90                   	nop    
  1004b9:	90                   	nop    
  1004ba:	90                   	nop    
  1004bb:	90                   	nop    
  1004bc:	90                   	nop    
  1004bd:	90                   	nop    
  1004be:	90                   	nop    
  1004bf:	90                   	nop    
  1004c0:	90                   	nop    
  1004c1:	90                   	nop    
  1004c2:	90                   	nop    
  1004c3:	90                   	nop    
  1004c4:	90                   	nop    
  1004c5:	90                   	nop    
  1004c6:	90                   	nop    
  1004c7:	90                   	nop    
  1004c8:	90                   	nop    
  1004c9:	90                   	nop    
  1004ca:	90                   	nop    
  1004cb:	90                   	nop    
  1004cc:	90                   	nop    
  1004cd:	90                   	nop    
  1004ce:	90                   	nop    
  1004cf:	90                   	nop    
  1004d0:	90                   	nop    
  1004d1:	90                   	nop    
  1004d2:	90                   	nop    
  1004d3:	90                   	nop    
  1004d4:	90                   	nop    
  1004d5:	90                   	nop    
  1004d6:	90                   	nop    
  1004d7:	90                   	nop    
  1004d8:	90                   	nop    
  1004d9:	90                   	nop    
  1004da:	90                   	nop    
  1004db:	90                   	nop    
  1004dc:	90                   	nop    
  1004dd:	90                   	nop    
  1004de:	90                   	nop    
  1004df:	90                   	nop    
  1004e0:	90                   	nop    
  1004e1:	90                   	nop    
  1004e2:	90                   	nop    
  1004e3:	90                   	nop    
  1004e4:	90                   	nop    
  1004e5:	90                   	nop    
  1004e6:	90                   	nop    
  1004e7:	90                   	nop    
  1004e8:	90                   	nop    
  1004e9:	90                   	nop    
  1004ea:	90                   	nop    
  1004eb:	90                   	nop    
  1004ec:	90                   	nop    
  1004ed:	90                   	nop    
  1004ee:	90                   	nop    
  1004ef:	90                   	nop    
  1004f0:	90                   	nop    
  1004f1:	90                   	nop    
  1004f2:	90                   	nop    
  1004f3:	90                   	nop    
  1004f4:	90                   	nop    
  1004f5:	90                   	nop    
  1004f6:	90                   	nop    
  1004f7:	90                   	nop    
  1004f8:	90                   	nop    
  1004f9:	90                   	nop    
  1004fa:	90                   	nop    
  1004fb:	90                   	nop    
  1004fc:	90                   	nop    
  1004fd:	90                   	nop    
  1004fe:	90                   	nop    
  1004ff:	90                   	nop    
  100500:	90                   	nop    
  100501:	90                   	nop    
  100502:	90                   	nop    
  100503:	90                   	nop    
  100504:	90                   	nop    
  100505:	90                   	nop    
  100506:	90                   	nop    
  100507:	90                   	nop    
  100508:	90                   	nop    
  100509:	90                   	nop    
  10050a:	90                   	nop    
  10050b:	90                   	nop    
  10050c:	90                   	nop    
  10050d:	90                   	nop    
  10050e:	90                   	nop    
  10050f:	90                   	nop    
  100510:	90                   	nop    
  100511:	90                   	nop    
  100512:	90                   	nop    
  100513:	90                   	nop    
  100514:	90                   	nop    
  100515:	90                   	nop    
  100516:	90                   	nop    
  100517:	90                   	nop    
  100518:	90                   	nop    
  100519:	90                   	nop    
  10051a:	90                   	nop    
  10051b:	90                   	nop    
  10051c:	90                   	nop    
  10051d:	90                   	nop    
  10051e:	90                   	nop    
  10051f:	90                   	nop    
  100520:	90                   	nop    
  100521:	90                   	nop    
  100522:	90                   	nop    
  100523:	90                   	nop    
  100524:	90                   	nop    
  100525:	90                   	nop    
  100526:	90                   	nop    
  100527:	90                   	nop    
  100528:	90                   	nop    
  100529:	90                   	nop    
  10052a:	90                   	nop    
  10052b:	90                   	nop    
  10052c:	90                   	nop    
  10052d:	90                   	nop    
  10052e:	90                   	nop    
  10052f:	90                   	nop    
  100530:	90                   	nop    
  100531:	90                   	nop    
  100532:	90                   	nop    
  100533:	90                   	nop    
  100534:	90                   	nop    
  100535:	90                   	nop    
  100536:	90                   	nop    
  100537:	90                   	nop    
  100538:	90                   	nop    
  100539:	90                   	nop    
  10053a:	90                   	nop    
  10053b:	90                   	nop    
  10053c:	90                   	nop    
  10053d:	90                   	nop    
  10053e:	90                   	nop    
  10053f:	90                   	nop    
  100540:	90                   	nop    
  100541:	90                   	nop    
  100542:	90                   	nop    
  100543:	90                   	nop    
  100544:	90                   	nop    
  100545:	90                   	nop    
  100546:	90                   	nop    
  100547:	90                   	nop    
  100548:	90                   	nop    
  100549:	90                   	nop    
  10054a:	90                   	nop    
  10054b:	90                   	nop    
  10054c:	90                   	nop    
  10054d:	90                   	nop    
  10054e:	90                   	nop    
  10054f:	90                   	nop    
  100550:	90                   	nop    
  100551:	90                   	nop    
  100552:	90                   	nop    
  100553:	90                   	nop    
  100554:	90                   	nop    
  100555:	90                   	nop    
  100556:	90                   	nop    
  100557:	90                   	nop    
  100558:	90                   	nop    
  100559:	90                   	nop    
  10055a:	90                   	nop    
  10055b:	90                   	nop    
  10055c:	90                   	nop    
  10055d:	90                   	nop    
  10055e:	90                   	nop    
  10055f:	90                   	nop    
  100560:	90                   	nop    
  100561:	90                   	nop    
  100562:	90                   	nop    
  100563:	90                   	nop    
  100564:	90                   	nop    
  100565:	90                   	nop    
  100566:	90                   	nop    
  100567:	90                   	nop    
  100568:	90                   	nop    
  100569:	90                   	nop    
  10056a:	90                   	nop    
  10056b:	90                   	nop    
  10056c:	90                   	nop    
  10056d:	90                   	nop    
  10056e:	90                   	nop    
  10056f:	90                   	nop    
  100570:	90                   	nop    
  100571:	90                   	nop    
  100572:	90                   	nop    
  100573:	90                   	nop    
  100574:	90                   	nop    
  100575:	90                   	nop    
  100576:	90                   	nop    
  100577:	90                   	nop    
  100578:	90                   	nop    
  100579:	90                   	nop    
  10057a:	90                   	nop    
  10057b:	90                   	nop    
  10057c:	90                   	nop    
  10057d:	90                   	nop    
  10057e:	90                   	nop    
  10057f:	90                   	nop    
  100580:	90                   	nop    
  100581:	90                   	nop    
  100582:	90                   	nop    
  100583:	90                   	nop    
  100584:	90                   	nop    
  100585:	90                   	nop    
  100586:	90                   	nop    
  100587:	90                   	nop    
  100588:	90                   	nop    
  100589:	90                   	nop    
  10058a:	90                   	nop    
  10058b:	90                   	nop    
  10058c:	90                   	nop    
  10058d:	90                   	nop    
  10058e:	90                   	nop    
  10058f:	90                   	nop    
  100590:	90                   	nop    
  100591:	90                   	nop    
  100592:	90                   	nop    
  100593:	90                   	nop    
  100594:	90                   	nop    
  100595:	90                   	nop    
  100596:	90                   	nop    
  100597:	90                   	nop    
  100598:	90                   	nop    
  100599:	90                   	nop    
  10059a:	90                   	nop    
  10059b:	90                   	nop    
  10059c:	90                   	nop    
  10059d:	90                   	nop    
  10059e:	90                   	nop    
  10059f:	90                   	nop    
  1005a0:	90                   	nop    
  1005a1:	90                   	nop    
  1005a2:	90                   	nop    
  1005a3:	90                   	nop    
  1005a4:	90                   	nop    
  1005a5:	90                   	nop    
  1005a6:	90                   	nop    
  1005a7:	90                   	nop    
  1005a8:	90                   	nop    
  1005a9:	90                   	nop    
  1005aa:	90                   	nop    
  1005ab:	90                   	nop    
  1005ac:	90                   	nop    
  1005ad:	90                   	nop    
  1005ae:	90                   	nop    
  1005af:	90                   	nop    
  1005b0:	90                   	nop    
  1005b1:	90                   	nop    
  1005b2:	90                   	nop    
  1005b3:	90                   	nop    
  1005b4:	90                   	nop    
  1005b5:	90                   	nop    
  1005b6:	90                   	nop    
  1005b7:	90                   	nop    
  1005b8:	90                   	nop    
  1005b9:	90                   	nop    
  1005ba:	90                   	nop    
  1005bb:	90                   	nop    
  1005bc:	90                   	nop    
  1005bd:	90                   	nop    
  1005be:	90                   	nop    
  1005bf:	90                   	nop    
  1005c0:	90                   	nop    
  1005c1:	90                   	nop    
  1005c2:	90                   	nop    
  1005c3:	90                   	nop    
  1005c4:	90                   	nop    
  1005c5:	90                   	nop    
  1005c6:	90                   	nop    
  1005c7:	90                   	nop    
  1005c8:	90                   	nop    
  1005c9:	90                   	nop    
  1005ca:	90                   	nop    
  1005cb:	90                   	nop    
  1005cc:	90                   	nop    
  1005cd:	90                   	nop    
  1005ce:	90                   	nop    
  1005cf:	90                   	nop    
  1005d0:	90                   	nop    
  1005d1:	90                   	nop    
  1005d2:	90                   	nop    
  1005d3:	90                   	nop    
  1005d4:	90                   	nop    
  1005d5:	90                   	nop    
  1005d6:	90                   	nop    
  1005d7:	90                   	nop    
  1005d8:	90                   	nop    
  1005d9:	90                   	nop    
  1005da:	90                   	nop    
  1005db:	90                   	nop    
  1005dc:	90                   	nop    
  1005dd:	90                   	nop    
  1005de:	90                   	nop    
  1005df:	90                   	nop    
  1005e0:	90                   	nop    
  1005e1:	90                   	nop    
  1005e2:	90                   	nop    
  1005e3:	90                   	nop    
  1005e4:	90                   	nop    
  1005e5:	90                   	nop    
  1005e6:	90                   	nop    
  1005e7:	90                   	nop    
  1005e8:	90                   	nop    
  1005e9:	90                   	nop    
  1005ea:	90                   	nop    
  1005eb:	90                   	nop    
  1005ec:	90                   	nop    
  1005ed:	90                   	nop    
  1005ee:	90                   	nop    
  1005ef:	90                   	nop    
  1005f0:	90                   	nop    
  1005f1:	90                   	nop    
  1005f2:	90                   	nop    
  1005f3:	90                   	nop    
  1005f4:	90                   	nop    
  1005f5:	90                   	nop    
  1005f6:	90                   	nop    
  1005f7:	90                   	nop    
  1005f8:	90                   	nop    
  1005f9:	90                   	nop    
  1005fa:	90                   	nop    
  1005fb:	90                   	nop    
  1005fc:	90                   	nop    
  1005fd:	90                   	nop    
  1005fe:	90                   	nop    
  1005ff:	90                   	nop    
  100600:	90                   	nop    
  100601:	90                   	nop    
  100602:	90                   	nop    
  100603:	90                   	nop    
  100604:	90                   	nop    
  100605:	90                   	nop    
  100606:	90                   	nop    
  100607:	90                   	nop    
  100608:	90                   	nop    
  100609:	90                   	nop    
  10060a:	90                   	nop    
  10060b:	90                   	nop    
  10060c:	90                   	nop    
  10060d:	90                   	nop    
  10060e:	90                   	nop    
  10060f:	90                   	nop    
  100610:	90                   	nop    
  100611:	90                   	nop    
  100612:	90                   	nop    
  100613:	90                   	nop    
  100614:	90                   	nop    
  100615:	90                   	nop    
  100616:	90                   	nop    
  100617:	90                   	nop    
  100618:	90                   	nop    
  100619:	90                   	nop    
  10061a:	90                   	nop    
  10061b:	90                   	nop    
  10061c:	90                   	nop    
  10061d:	90                   	nop    
  10061e:	90                   	nop    
  10061f:	90                   	nop    
  100620:	90                   	nop    
  100621:	90                   	nop    
  100622:	90                   	nop    
  100623:	90                   	nop    
  100624:	90                   	nop    
  100625:	90                   	nop    
  100626:	90                   	nop    
  100627:	90                   	nop    
  100628:	90                   	nop    
  100629:	90                   	nop    
  10062a:	90                   	nop    
  10062b:	90                   	nop    
  10062c:	90                   	nop    
  10062d:	90                   	nop    
  10062e:	90                   	nop    
  10062f:	90                   	nop    
  100630:	90                   	nop    
  100631:	90                   	nop    
  100632:	90                   	nop    
  100633:	90                   	nop    
  100634:	90                   	nop    
  100635:	90                   	nop    
  100636:	90                   	nop    
  100637:	90                   	nop    
  100638:	90                   	nop    
  100639:	90                   	nop    
  10063a:	90                   	nop    
  10063b:	90                   	nop    
  10063c:	90                   	nop    
  10063d:	90                   	nop    
  10063e:	90                   	nop    
  10063f:	90                   	nop    
  100640:	90                   	nop    
  100641:	90                   	nop    
  100642:	90                   	nop    
  100643:	90                   	nop    
  100644:	90                   	nop    
  100645:	90                   	nop    
  100646:	90                   	nop    
  100647:	90                   	nop    
  100648:	90                   	nop    
  100649:	90                   	nop    
  10064a:	90                   	nop    
  10064b:	90                   	nop    
  10064c:	90                   	nop    
  10064d:	90                   	nop    
  10064e:	90                   	nop    
  10064f:	90                   	nop    
  100650:	90                   	nop    
  100651:	90                   	nop    
  100652:	90                   	nop    
  100653:	90                   	nop    
  100654:	90                   	nop    
  100655:	90                   	nop    
  100656:	90                   	nop    
  100657:	90                   	nop    
  100658:	90                   	nop    
  100659:	90                   	nop    
  10065a:	90                   	nop    
  10065b:	90                   	nop    
  10065c:	90                   	nop    
  10065d:	90                   	nop    
  10065e:	90                   	nop    
  10065f:	90                   	nop    
  100660:	90                   	nop    
  100661:	90                   	nop    
  100662:	90                   	nop    
  100663:	90                   	nop    
  100664:	90                   	nop    
  100665:	90                   	nop    
  100666:	90                   	nop    
  100667:	90                   	nop    
  100668:	90                   	nop    
  100669:	90                   	nop    
  10066a:	90                   	nop    
  10066b:	90                   	nop    
  10066c:	90                   	nop    
  10066d:	90                   	nop    
  10066e:	90                   	nop    
  10066f:	90                   	nop    
  100670:	90                   	nop    
  100671:	90                   	nop    
  100672:	90                   	nop    
  100673:	90                   	nop    
  100674:	90                   	nop    
  100675:	90                   	nop    
  100676:	90                   	nop    
  100677:	90                   	nop    
  100678:	90                   	nop    
  100679:	90                   	nop    
  10067a:	90                   	nop    
  10067b:	90                   	nop    
  10067c:	90                   	nop    
  10067d:	90                   	nop    
  10067e:	90                   	nop    
  10067f:	90                   	nop    
  100680:	90                   	nop    
  100681:	90                   	nop    
  100682:	90                   	nop    
  100683:	90                   	nop    
  100684:	90                   	nop    
  100685:	90                   	nop    
  100686:	90                   	nop    
  100687:	90                   	nop    
  100688:	90                   	nop    
  100689:	90                   	nop    
  10068a:	90                   	nop    
  10068b:	90                   	nop    
  10068c:	90                   	nop    
  10068d:	90                   	nop    
  10068e:	90                   	nop    
  10068f:	90                   	nop    
  100690:	90                   	nop    
  100691:	90                   	nop    
  100692:	90                   	nop    
  100693:	90                   	nop    
  100694:	90                   	nop    
  100695:	90                   	nop    
  100696:	90                   	nop    
  100697:	90                   	nop    
  100698:	90                   	nop    
  100699:	90                   	nop    
  10069a:	90                   	nop    
  10069b:	90                   	nop    
  10069c:	90                   	nop    
  10069d:	90                   	nop    
  10069e:	90                   	nop    
  10069f:	90                   	nop    
  1006a0:	90                   	nop    
  1006a1:	90                   	nop    
  1006a2:	90                   	nop    
  1006a3:	90                   	nop    
  1006a4:	90                   	nop    
  1006a5:	90                   	nop    
  1006a6:	90                   	nop    
  1006a7:	90                   	nop    
  1006a8:	90                   	nop    
  1006a9:	90                   	nop    
  1006aa:	90                   	nop    
  1006ab:	90                   	nop    
  1006ac:	90                   	nop    
  1006ad:	90                   	nop    
  1006ae:	90                   	nop    
  1006af:	90                   	nop    
  1006b0:	90                   	nop    
  1006b1:	90                   	nop    
  1006b2:	90                   	nop    
  1006b3:	90                   	nop    
  1006b4:	90                   	nop    
  1006b5:	90                   	nop    
  1006b6:	90                   	nop    
  1006b7:	90                   	nop    
  1006b8:	90                   	nop    
  1006b9:	90                   	nop    
  1006ba:	90                   	nop    
  1006bb:	90                   	nop    
  1006bc:	90                   	nop    
  1006bd:	90                   	nop    
  1006be:	90                   	nop    
  1006bf:	90                   	nop    
  1006c0:	90                   	nop    
  1006c1:	90                   	nop    
  1006c2:	90                   	nop    
  1006c3:	90                   	nop    
  1006c4:	90                   	nop    
  1006c5:	90                   	nop    
  1006c6:	90                   	nop    
  1006c7:	90                   	nop    
  1006c8:	90                   	nop    
  1006c9:	90                   	nop    
  1006ca:	90                   	nop    
  1006cb:	90                   	nop    
  1006cc:	90                   	nop    
  1006cd:	90                   	nop    
  1006ce:	90                   	nop    
  1006cf:	90                   	nop    
  1006d0:	90                   	nop    
  1006d1:	90                   	nop    
  1006d2:	90                   	nop    
  1006d3:	90                   	nop    
  1006d4:	90                   	nop    
  1006d5:	90                   	nop    
  1006d6:	90                   	nop    
  1006d7:	90                   	nop    
  1006d8:	90                   	nop    
  1006d9:	90                   	nop    
  1006da:	90                   	nop    
  1006db:	90                   	nop    
  1006dc:	90                   	nop    
  1006dd:	90                   	nop    
  1006de:	90                   	nop    
  1006df:	90                   	nop    
  1006e0:	90                   	nop    
  1006e1:	90                   	nop    
  1006e2:	90                   	nop    
  1006e3:	90                   	nop    
  1006e4:	90                   	nop    
  1006e5:	90                   	nop    
  1006e6:	90                   	nop    
  1006e7:	90                   	nop    
  1006e8:	90                   	nop    
  1006e9:	90                   	nop    
  1006ea:	90                   	nop    
  1006eb:	90                   	nop    
  1006ec:	90                   	nop    
  1006ed:	90                   	nop    
  1006ee:	90                   	nop    
  1006ef:	90                   	nop    
  1006f0:	90                   	nop    
  1006f1:	90                   	nop    
  1006f2:	90                   	nop    
  1006f3:	90                   	nop    
  1006f4:	90                   	nop    
  1006f5:	90                   	nop    
  1006f6:	90                   	nop    
  1006f7:	90                   	nop    
  1006f8:	90                   	nop    
  1006f9:	90                   	nop    
  1006fa:	90                   	nop    
  1006fb:	90                   	nop    
  1006fc:	90                   	nop    
  1006fd:	90                   	nop    
  1006fe:	90                   	nop    
  1006ff:	90                   	nop    
  100700:	90                   	nop    
  100701:	90                   	nop    
  100702:	90                   	nop    
  100703:	90                   	nop    
  100704:	90                   	nop    
  100705:	90                   	nop    
  100706:	90                   	nop    
  100707:	90                   	nop    
  100708:	90                   	nop    
  100709:	90                   	nop    
  10070a:	90                   	nop    
  10070b:	90                   	nop    
  10070c:	90                   	nop    
  10070d:	90                   	nop    
  10070e:	90                   	nop    
  10070f:	90                   	nop    
  100710:	90                   	nop    
  100711:	90                   	nop    
  100712:	90                   	nop    
  100713:	90                   	nop    
  100714:	90                   	nop    
  100715:	90                   	nop    
  100716:	90                   	nop    
  100717:	90                   	nop    
  100718:	90                   	nop    
  100719:	90                   	nop    
  10071a:	90                   	nop    
  10071b:	90                   	nop    
  10071c:	90                   	nop    
  10071d:	90                   	nop    
  10071e:	90                   	nop    
  10071f:	90                   	nop    
  100720:	90                   	nop    
  100721:	90                   	nop    
  100722:	90                   	nop    
  100723:	90                   	nop    
  100724:	90                   	nop    
  100725:	90                   	nop    
  100726:	90                   	nop    
  100727:	90                   	nop    
  100728:	90                   	nop    
  100729:	90                   	nop    
  10072a:	90                   	nop    
  10072b:	90                   	nop    
  10072c:	90                   	nop    
  10072d:	90                   	nop    
  10072e:	90                   	nop    
  10072f:	90                   	nop    
  100730:	90                   	nop    
  100731:	90                   	nop    
  100732:	90                   	nop    
  100733:	90                   	nop    
  100734:	90                   	nop    
  100735:	90                   	nop    
  100736:	90                   	nop    
  100737:	90                   	nop    
  100738:	90                   	nop    
  100739:	90                   	nop    
  10073a:	90                   	nop    
  10073b:	90                   	nop    
  10073c:	90                   	nop    
  10073d:	90                   	nop    
  10073e:	90                   	nop    
  10073f:	90                   	nop    
  100740:	90                   	nop    
  100741:	90                   	nop    
  100742:	90                   	nop    
  100743:	90                   	nop    
  100744:	90                   	nop    
  100745:	90                   	nop    
  100746:	90                   	nop    
  100747:	90                   	nop    
  100748:	90                   	nop    
  100749:	90                   	nop    
  10074a:	90                   	nop    
  10074b:	90                   	nop    
  10074c:	90                   	nop    
  10074d:	90                   	nop    
  10074e:	90                   	nop    
  10074f:	90                   	nop    
  100750:	90                   	nop    
  100751:	90                   	nop    
  100752:	90                   	nop    
  100753:	90                   	nop    
  100754:	90                   	nop    
  100755:	90                   	nop    
  100756:	90                   	nop    
  100757:	90                   	nop    
  100758:	90                   	nop    
  100759:	90                   	nop    
  10075a:	90                   	nop    
  10075b:	90                   	nop    
  10075c:	90                   	nop    
  10075d:	90                   	nop    
  10075e:	90                   	nop    
  10075f:	90                   	nop    
  100760:	90                   	nop    
  100761:	90                   	nop    
  100762:	90                   	nop    
  100763:	90                   	nop    
  100764:	90                   	nop    
  100765:	90                   	nop    
  100766:	90                   	nop    
  100767:	90                   	nop    
  100768:	90                   	nop    
  100769:	90                   	nop    
  10076a:	90                   	nop    
  10076b:	90                   	nop    
  10076c:	90                   	nop    
  10076d:	90                   	nop    
  10076e:	90                   	nop    
  10076f:	90                   	nop    
  100770:	90                   	nop    
  100771:	90                   	nop    
  100772:	90                   	nop    
  100773:	90                   	nop    
  100774:	90                   	nop    
  100775:	90                   	nop    
  100776:	90                   	nop    
  100777:	90                   	nop    
  100778:	90                   	nop    
  100779:	90                   	nop    
  10077a:	90                   	nop    
  10077b:	90                   	nop    
  10077c:	90                   	nop    
  10077d:	90                   	nop    
  10077e:	90                   	nop    
  10077f:	90                   	nop    
  100780:	90                   	nop    
  100781:	90                   	nop    
  100782:	90                   	nop    
  100783:	90                   	nop    
  100784:	90                   	nop    
  100785:	90                   	nop    
  100786:	90                   	nop    
  100787:	90                   	nop    
  100788:	90                   	nop    
  100789:	90                   	nop    
  10078a:	90                   	nop    
  10078b:	90                   	nop    
  10078c:	90                   	nop    
  10078d:	90                   	nop    
  10078e:	90                   	nop    
  10078f:	90                   	nop    
  100790:	90                   	nop    
  100791:	90                   	nop    
  100792:	90                   	nop    
  100793:	90                   	nop    
  100794:	90                   	nop    
  100795:	90                   	nop    
  100796:	90                   	nop    
  100797:	90                   	nop    
  100798:	90                   	nop    
  100799:	90                   	nop    
  10079a:	90                   	nop    
  10079b:	90                   	nop    
  10079c:	90                   	nop    
  10079d:	90                   	nop    
  10079e:	90                   	nop    
  10079f:	90                   	nop    
  1007a0:	90                   	nop    
  1007a1:	90                   	nop    
  1007a2:	90                   	nop    
  1007a3:	90                   	nop    
  1007a4:	90                   	nop    
  1007a5:	90                   	nop    
  1007a6:	90                   	nop    
  1007a7:	90                   	nop    
  1007a8:	90                   	nop    
  1007a9:	90                   	nop    
  1007aa:	90                   	nop    
  1007ab:	90                   	nop    
  1007ac:	90                   	nop    
  1007ad:	90                   	nop    
  1007ae:	90                   	nop    
  1007af:	90                   	nop    
  1007b0:	90                   	nop    
  1007b1:	90                   	nop    
  1007b2:	90                   	nop    
  1007b3:	90                   	nop    
  1007b4:	90                   	nop    
  1007b5:	90                   	nop    
  1007b6:	90                   	nop    
  1007b7:	90                   	nop    
  1007b8:	90                   	nop    
  1007b9:	90                   	nop    
  1007ba:	90                   	nop    
  1007bb:	90                   	nop    
  1007bc:	90                   	nop    
  1007bd:	90                   	nop    
  1007be:	90                   	nop    
  1007bf:	90                   	nop    
  1007c0:	90                   	nop    
  1007c1:	90                   	nop    
  1007c2:	90                   	nop    
  1007c3:	90                   	nop    
  1007c4:	90                   	nop    
  1007c5:	90                   	nop    
  1007c6:	90                   	nop    
  1007c7:	90                   	nop    
  1007c8:	90                   	nop    
  1007c9:	90                   	nop    
  1007ca:	90                   	nop    
  1007cb:	90                   	nop    
  1007cc:	90                   	nop    
  1007cd:	90                   	nop    
  1007ce:	90                   	nop    
  1007cf:	90                   	nop    
  1007d0:	90                   	nop    
  1007d1:	90                   	nop    
  1007d2:	90                   	nop    
  1007d3:	90                   	nop    
  1007d4:	90                   	nop    
  1007d5:	90                   	nop    
  1007d6:	90                   	nop    
  1007d7:	90                   	nop    
  1007d8:	90                   	nop    
  1007d9:	90                   	nop    
  1007da:	90                   	nop    
  1007db:	90                   	nop    
  1007dc:	90                   	nop    
  1007dd:	90                   	nop    
  1007de:	90                   	nop    
  1007df:	90                   	nop    
  1007e0:	90                   	nop    
  1007e1:	90                   	nop    
  1007e2:	90                   	nop    
  1007e3:	90                   	nop    
  1007e4:	90                   	nop    
  1007e5:	90                   	nop    
  1007e6:	90                   	nop    
  1007e7:	90                   	nop    
  1007e8:	90                   	nop    
  1007e9:	90                   	nop    
  1007ea:	90                   	nop    
  1007eb:	90                   	nop    
  1007ec:	90                   	nop    
  1007ed:	90                   	nop    
  1007ee:	90                   	nop    
  1007ef:	90                   	nop    
  1007f0:	90                   	nop    
  1007f1:	90                   	nop    
  1007f2:	90                   	nop    
  1007f3:	90                   	nop    
  1007f4:	90                   	nop    
  1007f5:	90                   	nop    
  1007f6:	90                   	nop    
  1007f7:	90                   	nop    
  1007f8:	90                   	nop    
  1007f9:	90                   	nop    
  1007fa:	90                   	nop    
  1007fb:	90                   	nop    
  1007fc:	90                   	nop    
  1007fd:	90                   	nop    
  1007fe:	90                   	nop    
  1007ff:	90                   	nop    
  100800:	90                   	nop    
  100801:	90                   	nop    
  100802:	90                   	nop    
  100803:	90                   	nop    
  100804:	90                   	nop    
  100805:	90                   	nop    
  100806:	90                   	nop    
  100807:	90                   	nop    
  100808:	90                   	nop    
  100809:	90                   	nop    
  10080a:	90                   	nop    
  10080b:	90                   	nop    
  10080c:	90                   	nop    
  10080d:	90                   	nop    
  10080e:	90                   	nop    
  10080f:	90                   	nop    
  100810:	90                   	nop    
  100811:	90                   	nop    
  100812:	90                   	nop    
  100813:	90                   	nop    
  100814:	90                   	nop    
  100815:	90                   	nop    
  100816:	90                   	nop    
  100817:	90                   	nop    
  100818:	90                   	nop    
  100819:	90                   	nop    
  10081a:	90                   	nop    
  10081b:	90                   	nop    
  10081c:	90                   	nop    
  10081d:	90                   	nop    
  10081e:	90                   	nop    
  10081f:	90                   	nop    
  100820:	90                   	nop    
  100821:	90                   	nop    
  100822:	90                   	nop    
  100823:	90                   	nop    
  100824:	90                   	nop    
  100825:	90                   	nop    
  100826:	90                   	nop    
  100827:	90                   	nop    
  100828:	90                   	nop    
  100829:	90                   	nop    
  10082a:	90                   	nop    
  10082b:	90                   	nop    
  10082c:	90                   	nop    
  10082d:	90                   	nop    
  10082e:	90                   	nop    
  10082f:	90                   	nop    
  100830:	90                   	nop    
  100831:	90                   	nop    
  100832:	90                   	nop    
  100833:	90                   	nop    
  100834:	90                   	nop    
  100835:	90                   	nop    
  100836:	90                   	nop    
  100837:	90                   	nop    
  100838:	90                   	nop    
  100839:	90                   	nop    
  10083a:	90                   	nop    
  10083b:	90                   	nop    
  10083c:	90                   	nop    
  10083d:	90                   	nop    
  10083e:	90                   	nop    
  10083f:	90                   	nop    
  100840:	90                   	nop    
  100841:	90                   	nop    
  100842:	90                   	nop    
  100843:	90                   	nop    
  100844:	90                   	nop    
  100845:	90                   	nop    
  100846:	90                   	nop    
  100847:	90                   	nop    
  100848:	90                   	nop    
  100849:	90                   	nop    
  10084a:	90                   	nop    
  10084b:	90                   	nop    
  10084c:	90                   	nop    
  10084d:	90                   	nop    
  10084e:	90                   	nop    
  10084f:	90                   	nop    
  100850:	90                   	nop    
  100851:	90                   	nop    
  100852:	90                   	nop    
  100853:	90                   	nop    
  100854:	90                   	nop    
  100855:	90                   	nop    
  100856:	90                   	nop    
  100857:	90                   	nop    
  100858:	90                   	nop    
  100859:	90                   	nop    
  10085a:	90                   	nop    
  10085b:	90                   	nop    
  10085c:	90                   	nop    
  10085d:	90                   	nop    
  10085e:	90                   	nop    
  10085f:	90                   	nop    
  100860:	90                   	nop    
  100861:	90                   	nop    
  100862:	90                   	nop    
  100863:	90                   	nop    
  100864:	90                   	nop    
  100865:	90                   	nop    
  100866:	90                   	nop    
  100867:	90                   	nop    
  100868:	90                   	nop    
  100869:	90                   	nop    
  10086a:	90                   	nop    
  10086b:	90                   	nop    
  10086c:	90                   	nop    
  10086d:	90                   	nop    
  10086e:	90                   	nop    
  10086f:	90                   	nop    
  100870:	90                   	nop    
  100871:	90                   	nop    
  100872:	90                   	nop    
  100873:	90                   	nop    
  100874:	90                   	nop    
  100875:	90                   	nop    
  100876:	90                   	nop    
  100877:	90                   	nop    
  100878:	90                   	nop    
  100879:	90                   	nop    
  10087a:	90                   	nop    
  10087b:	90                   	nop    
  10087c:	90                   	nop    
  10087d:	90                   	nop    
  10087e:	90                   	nop    
  10087f:	90                   	nop    
  100880:	90                   	nop    
  100881:	90                   	nop    
  100882:	90                   	nop    
  100883:	90                   	nop    
  100884:	90                   	nop    
  100885:	90                   	nop    
  100886:	90                   	nop    
  100887:	90                   	nop    
  100888:	90                   	nop    
  100889:	90                   	nop    
  10088a:	90                   	nop    
  10088b:	90                   	nop    
  10088c:	90                   	nop    
  10088d:	90                   	nop    
  10088e:	90                   	nop    
  10088f:	90                   	nop    
  100890:	90                   	nop    
  100891:	90                   	nop    
  100892:	90                   	nop    
  100893:	90                   	nop    
  100894:	90                   	nop    
  100895:	90                   	nop    
  100896:	90                   	nop    
  100897:	90                   	nop    
  100898:	90                   	nop    
  100899:	90                   	nop    
  10089a:	90                   	nop    
  10089b:	90                   	nop    
  10089c:	90                   	nop    
  10089d:	90                   	nop    
  10089e:	90                   	nop    
  10089f:	90                   	nop    
  1008a0:	90                   	nop    
  1008a1:	90                   	nop    
  1008a2:	90                   	nop    
  1008a3:	90                   	nop    
  1008a4:	90                   	nop    
  1008a5:	90                   	nop    
  1008a6:	90                   	nop    
  1008a7:	90                   	nop    
  1008a8:	90                   	nop    
  1008a9:	90                   	nop    
  1008aa:	90                   	nop    
  1008ab:	90                   	nop    
  1008ac:	90                   	nop    
  1008ad:	90                   	nop    
  1008ae:	90                   	nop    
  1008af:	90                   	nop    
  1008b0:	90                   	nop    
  1008b1:	90                   	nop    
  1008b2:	90                   	nop    
  1008b3:	90                   	nop    
  1008b4:	90                   	nop    
  1008b5:	90                   	nop    
  1008b6:	90                   	nop    
  1008b7:	90                   	nop    
  1008b8:	90                   	nop    
  1008b9:	90                   	nop    
  1008ba:	90                   	nop    
  1008bb:	90                   	nop    
  1008bc:	90                   	nop    
  1008bd:	90                   	nop    
  1008be:	90                   	nop    
  1008bf:	90                   	nop    
  1008c0:	90                   	nop    
  1008c1:	90                   	nop    
  1008c2:	90                   	nop    
  1008c3:	90                   	nop    
  1008c4:	90                   	nop    
  1008c5:	90                   	nop    
  1008c6:	90                   	nop    
  1008c7:	90                   	nop    
  1008c8:	90                   	nop    
  1008c9:	90                   	nop    
  1008ca:	90                   	nop    
  1008cb:	90                   	nop    
  1008cc:	90                   	nop    
  1008cd:	90                   	nop    
  1008ce:	90                   	nop    
  1008cf:	90                   	nop    
  1008d0:	90                   	nop    
  1008d1:	90                   	nop    
  1008d2:	90                   	nop    
  1008d3:	90                   	nop    
  1008d4:	90                   	nop    
  1008d5:	90                   	nop    
  1008d6:	90                   	nop    
  1008d7:	90                   	nop    
  1008d8:	90                   	nop    
  1008d9:	90                   	nop    
  1008da:	90                   	nop    
  1008db:	90                   	nop    
  1008dc:	90                   	nop    
  1008dd:	90                   	nop    
  1008de:	90                   	nop    
  1008df:	90                   	nop    
  1008e0:	90                   	nop    
  1008e1:	90                   	nop    
  1008e2:	90                   	nop    
  1008e3:	90                   	nop    
  1008e4:	90                   	nop    
  1008e5:	90                   	nop    
  1008e6:	90                   	nop    
  1008e7:	90                   	nop    
  1008e8:	90                   	nop    
  1008e9:	90                   	nop    
  1008ea:	90                   	nop    
  1008eb:	90                   	nop    
  1008ec:	90                   	nop    
  1008ed:	90                   	nop    
  1008ee:	90                   	nop    
  1008ef:	90                   	nop    
  1008f0:	90                   	nop    
  1008f1:	90                   	nop    
  1008f2:	90                   	nop    
  1008f3:	90                   	nop    
  1008f4:	90                   	nop    
  1008f5:	90                   	nop    
  1008f6:	90                   	nop    
  1008f7:	90                   	nop    
  1008f8:	90                   	nop    
  1008f9:	90                   	nop    
  1008fa:	90                   	nop    
  1008fb:	90                   	nop    
  1008fc:	90                   	nop    
  1008fd:	90                   	nop    
  1008fe:	90                   	nop    
  1008ff:	90                   	nop    
  100900:	90                   	nop    
  100901:	90                   	nop    
  100902:	90                   	nop    
  100903:	90                   	nop    
  100904:	90                   	nop    
  100905:	90                   	nop    
  100906:	90                   	nop    
  100907:	90                   	nop    
  100908:	90                   	nop    
  100909:	90                   	nop    
  10090a:	90                   	nop    
  10090b:	90                   	nop    
  10090c:	90                   	nop    
  10090d:	90                   	nop    
  10090e:	90                   	nop    
  10090f:	90                   	nop    
  100910:	90                   	nop    
  100911:	90                   	nop    
  100912:	90                   	nop    
  100913:	90                   	nop    
  100914:	90                   	nop    
  100915:	90                   	nop    
  100916:	90                   	nop    
  100917:	90                   	nop    
  100918:	90                   	nop    
  100919:	90                   	nop    
  10091a:	90                   	nop    
  10091b:	90                   	nop    
  10091c:	90                   	nop    
  10091d:	90                   	nop    
  10091e:	90                   	nop    
  10091f:	90                   	nop    
  100920:	90                   	nop    
  100921:	90                   	nop    
  100922:	90                   	nop    
  100923:	90                   	nop    
  100924:	90                   	nop    
  100925:	90                   	nop    
  100926:	90                   	nop    
  100927:	90                   	nop    
  100928:	90                   	nop    
  100929:	90                   	nop    
  10092a:	90                   	nop    
  10092b:	90                   	nop    
  10092c:	90                   	nop    
  10092d:	90                   	nop    
  10092e:	90                   	nop    
  10092f:	90                   	nop    
  100930:	90                   	nop    
  100931:	90                   	nop    
  100932:	90                   	nop    
  100933:	90                   	nop    
  100934:	90                   	nop    
  100935:	90                   	nop    
  100936:	90                   	nop    
  100937:	90                   	nop    
  100938:	90                   	nop    
  100939:	90                   	nop    
  10093a:	90                   	nop    
  10093b:	90                   	nop    
  10093c:	90                   	nop    
  10093d:	90                   	nop    
  10093e:	90                   	nop    
  10093f:	90                   	nop    
  100940:	90                   	nop    
  100941:	90                   	nop    
  100942:	90                   	nop    
  100943:	90                   	nop    
  100944:	90                   	nop    
  100945:	90                   	nop    
  100946:	90                   	nop    
  100947:	90                   	nop    
  100948:	90                   	nop    
  100949:	90                   	nop    
  10094a:	90                   	nop    
  10094b:	90                   	nop    
  10094c:	90                   	nop    
  10094d:	90                   	nop    
  10094e:	90                   	nop    
  10094f:	90                   	nop    
  100950:	90                   	nop    
  100951:	90                   	nop    
  100952:	90                   	nop    
  100953:	90                   	nop    
  100954:	90                   	nop    
  100955:	90                   	nop    
  100956:	90                   	nop    
  100957:	90                   	nop    
  100958:	90                   	nop    
  100959:	90                   	nop    
  10095a:	90                   	nop    
  10095b:	90                   	nop    
  10095c:	90                   	nop    
  10095d:	90                   	nop    
  10095e:	90                   	nop    
  10095f:	90                   	nop    
  100960:	90                   	nop    
  100961:	90                   	nop    
  100962:	90                   	nop    
  100963:	90                   	nop    
  100964:	90                   	nop    
  100965:	90                   	nop    
  100966:	90                   	nop    
  100967:	90                   	nop    
  100968:	90                   	nop    
  100969:	90                   	nop    
  10096a:	90                   	nop    
  10096b:	90                   	nop    
  10096c:	90                   	nop    
  10096d:	90                   	nop    
  10096e:	90                   	nop    
  10096f:	90                   	nop    
  100970:	90                   	nop    
  100971:	90                   	nop    
  100972:	90                   	nop    
  100973:	90                   	nop    
  100974:	90                   	nop    
  100975:	90                   	nop    
  100976:	90                   	nop    
  100977:	90                   	nop    
  100978:	90                   	nop    
  100979:	90                   	nop    
  10097a:	90                   	nop    
  10097b:	90                   	nop    
  10097c:	90                   	nop    
  10097d:	90                   	nop    
  10097e:	90                   	nop    
  10097f:	90                   	nop    
  100980:	90                   	nop    
  100981:	90                   	nop    
  100982:	90                   	nop    
  100983:	90                   	nop    
  100984:	90                   	nop    
  100985:	90                   	nop    
  100986:	90                   	nop    
  100987:	90                   	nop    
  100988:	90                   	nop    
  100989:	90                   	nop    
  10098a:	90                   	nop    
  10098b:	90                   	nop    
  10098c:	90                   	nop    
  10098d:	90                   	nop    
  10098e:	90                   	nop    
  10098f:	90                   	nop    
  100990:	90                   	nop    
  100991:	90                   	nop    
  100992:	90                   	nop    
  100993:	90                   	nop    
  100994:	90                   	nop    
  100995:	90                   	nop    
  100996:	90                   	nop    
  100997:	90                   	nop    
  100998:	90                   	nop    
  100999:	90                   	nop    
  10099a:	90                   	nop    
  10099b:	90                   	nop    
  10099c:	90                   	nop    
  10099d:	90                   	nop    
  10099e:	90                   	nop    
  10099f:	90                   	nop    
  1009a0:	90                   	nop    
  1009a1:	90                   	nop    
  1009a2:	90                   	nop    
  1009a3:	90                   	nop    
  1009a4:	90                   	nop    
  1009a5:	90                   	nop    
  1009a6:	90                   	nop    
  1009a7:	90                   	nop    
  1009a8:	90                   	nop    
  1009a9:	90                   	nop    
  1009aa:	90                   	nop    
  1009ab:	90                   	nop    
  1009ac:	90                   	nop    
  1009ad:	90                   	nop    
  1009ae:	90                   	nop    
  1009af:	90                   	nop    
  1009b0:	90                   	nop    
  1009b1:	90                   	nop    
  1009b2:	90                   	nop    
  1009b3:	90                   	nop    
  1009b4:	90                   	nop    
  1009b5:	90                   	nop    
  1009b6:	90                   	nop    
  1009b7:	90                   	nop    
  1009b8:	90                   	nop    
  1009b9:	90                   	nop    
  1009ba:	90                   	nop    
  1009bb:	90                   	nop    
  1009bc:	90                   	nop    
  1009bd:	90                   	nop    
  1009be:	90                   	nop    
  1009bf:	90                   	nop    
  1009c0:	90                   	nop    
  1009c1:	90                   	nop    
  1009c2:	90                   	nop    
  1009c3:	90                   	nop    
  1009c4:	90                   	nop    
  1009c5:	90                   	nop    
  1009c6:	90                   	nop    
  1009c7:	90                   	nop    
  1009c8:	90                   	nop    
  1009c9:	90                   	nop    
  1009ca:	90                   	nop    
  1009cb:	90                   	nop    
  1009cc:	90                   	nop    
  1009cd:	90                   	nop    
  1009ce:	90                   	nop    
  1009cf:	90                   	nop    
  1009d0:	90                   	nop    
  1009d1:	90                   	nop    
  1009d2:	90                   	nop    
  1009d3:	90                   	nop    
  1009d4:	90                   	nop    
  1009d5:	90                   	nop    
  1009d6:	90                   	nop    
  1009d7:	90                   	nop    
  1009d8:	90                   	nop    
  1009d9:	90                   	nop    
  1009da:	90                   	nop    
  1009db:	90                   	nop    
  1009dc:	90                   	nop    
  1009dd:	90                   	nop    
  1009de:	90                   	nop    
  1009df:	90                   	nop    
  1009e0:	90                   	nop    
  1009e1:	90                   	nop    
  1009e2:	90                   	nop    
  1009e3:	90                   	nop    
  1009e4:	90                   	nop    
  1009e5:	90                   	nop    
  1009e6:	90                   	nop    
  1009e7:	90                   	nop    
  1009e8:	90                   	nop    
  1009e9:	90                   	nop    
  1009ea:	90                   	nop    
  1009eb:	90                   	nop    
  1009ec:	90                   	nop    
  1009ed:	90                   	nop    
  1009ee:	90                   	nop    
  1009ef:	90                   	nop    
  1009f0:	90                   	nop    
  1009f1:	90                   	nop    
  1009f2:	90                   	nop    
  1009f3:	90                   	nop    
  1009f4:	90                   	nop    
  1009f5:	90                   	nop    
  1009f6:	90                   	nop    
  1009f7:	90                   	nop    
  1009f8:	90                   	nop    
  1009f9:	90                   	nop    
  1009fa:	90                   	nop    
  1009fb:	90                   	nop    
  1009fc:	90                   	nop    
  1009fd:	90                   	nop    
  1009fe:	90                   	nop    
  1009ff:	90                   	nop    
  100a00:	90                   	nop    
  100a01:	90                   	nop    
  100a02:	90                   	nop    
  100a03:	90                   	nop    
  100a04:	90                   	nop    
  100a05:	90                   	nop    
  100a06:	90                   	nop    
  100a07:	90                   	nop    
  100a08:	90                   	nop    
  100a09:	90                   	nop    
  100a0a:	90                   	nop    
  100a0b:	90                   	nop    
  100a0c:	90                   	nop    
  100a0d:	90                   	nop    
  100a0e:	90                   	nop    
  100a0f:	90                   	nop    
  100a10:	90                   	nop    
  100a11:	90                   	nop    
  100a12:	90                   	nop    
  100a13:	90                   	nop    
  100a14:	90                   	nop    
  100a15:	90                   	nop    
  100a16:	90                   	nop    
  100a17:	90                   	nop    
  100a18:	90                   	nop    
  100a19:	90                   	nop    
  100a1a:	90                   	nop    
  100a1b:	90                   	nop    
  100a1c:	90                   	nop    
  100a1d:	90                   	nop    
  100a1e:	90                   	nop    
  100a1f:	90                   	nop    
  100a20:	90                   	nop    
  100a21:	90                   	nop    
  100a22:	90                   	nop    
  100a23:	90                   	nop    
  100a24:	90                   	nop    
  100a25:	90                   	nop    
  100a26:	90                   	nop    
  100a27:	90                   	nop    
  100a28:	90                   	nop    
  100a29:	90                   	nop    
  100a2a:	90                   	nop    
  100a2b:	90                   	nop    
  100a2c:	90                   	nop    
  100a2d:	90                   	nop    
  100a2e:	90                   	nop    
  100a2f:	90                   	nop    
  100a30:	90                   	nop    
  100a31:	90                   	nop    
  100a32:	90                   	nop    
  100a33:	90                   	nop    
  100a34:	90                   	nop    
  100a35:	90                   	nop    
  100a36:	90                   	nop    
  100a37:	90                   	nop    
  100a38:	90                   	nop    
  100a39:	90                   	nop    
  100a3a:	90                   	nop    
  100a3b:	90                   	nop    
  100a3c:	90                   	nop    
  100a3d:	90                   	nop    
  100a3e:	90                   	nop    
  100a3f:	90                   	nop    
  100a40:	90                   	nop    
  100a41:	90                   	nop    
  100a42:	90                   	nop    
  100a43:	90                   	nop    
  100a44:	90                   	nop    
  100a45:	90                   	nop    
  100a46:	90                   	nop    
  100a47:	90                   	nop    
  100a48:	90                   	nop    
  100a49:	90                   	nop    
  100a4a:	90                   	nop    
  100a4b:	90                   	nop    
  100a4c:	90                   	nop    
  100a4d:	90                   	nop    
  100a4e:	90                   	nop    
  100a4f:	90                   	nop    
  100a50:	90                   	nop    
  100a51:	90                   	nop    
  100a52:	90                   	nop    
  100a53:	90                   	nop    
  100a54:	90                   	nop    
  100a55:	90                   	nop    
  100a56:	90                   	nop    
  100a57:	90                   	nop    
  100a58:	90                   	nop    
  100a59:	90                   	nop    
  100a5a:	90                   	nop    
  100a5b:	90                   	nop    
  100a5c:	90                   	nop    
  100a5d:	90                   	nop    
  100a5e:	90                   	nop    
  100a5f:	90                   	nop    
  100a60:	90                   	nop    
  100a61:	90                   	nop    
  100a62:	90                   	nop    
  100a63:	90                   	nop    
  100a64:	90                   	nop    
  100a65:	90                   	nop    
  100a66:	90                   	nop    
  100a67:	90                   	nop    
  100a68:	90                   	nop    
  100a69:	90                   	nop    
  100a6a:	90                   	nop    
  100a6b:	90                   	nop    
  100a6c:	90                   	nop    
  100a6d:	90                   	nop    
  100a6e:	90                   	nop    
  100a6f:	90                   	nop    
  100a70:	90                   	nop    
  100a71:	90                   	nop    
  100a72:	90                   	nop    
  100a73:	90                   	nop    
  100a74:	90                   	nop    
  100a75:	90                   	nop    
  100a76:	90                   	nop    
  100a77:	90                   	nop    
  100a78:	90                   	nop    
  100a79:	90                   	nop    
  100a7a:	90                   	nop    
  100a7b:	90                   	nop    
  100a7c:	90                   	nop    
  100a7d:	90                   	nop    
  100a7e:	90                   	nop    
  100a7f:	90                   	nop    
  100a80:	90                   	nop    
  100a81:	90                   	nop    
  100a82:	90                   	nop    
  100a83:	90                   	nop    
  100a84:	90                   	nop    
  100a85:	90                   	nop    
  100a86:	90                   	nop    
  100a87:	90                   	nop    
  100a88:	90                   	nop    
  100a89:	90                   	nop    
  100a8a:	90                   	nop    
  100a8b:	90                   	nop    
  100a8c:	90                   	nop    
  100a8d:	90                   	nop    
  100a8e:	90                   	nop    
  100a8f:	90                   	nop    
  100a90:	90                   	nop    
  100a91:	90                   	nop    
  100a92:	90                   	nop    
  100a93:	90                   	nop    
  100a94:	90                   	nop    
  100a95:	90                   	nop    
  100a96:	90                   	nop    
  100a97:	90                   	nop    
  100a98:	90                   	nop    
  100a99:	90                   	nop    
  100a9a:	90                   	nop    
  100a9b:	90                   	nop    
  100a9c:	90                   	nop    
  100a9d:	90                   	nop    
  100a9e:	90                   	nop    
  100a9f:	90                   	nop    
  100aa0:	90                   	nop    
  100aa1:	90                   	nop    
  100aa2:	90                   	nop    
  100aa3:	90                   	nop    
  100aa4:	90                   	nop    
  100aa5:	90                   	nop    
  100aa6:	90                   	nop    
  100aa7:	90                   	nop    
  100aa8:	90                   	nop    
  100aa9:	90                   	nop    
  100aaa:	90                   	nop    
  100aab:	90                   	nop    
  100aac:	90                   	nop    
  100aad:	90                   	nop    
  100aae:	90                   	nop    
  100aaf:	90                   	nop    
  100ab0:	90                   	nop    
  100ab1:	90                   	nop    
  100ab2:	90                   	nop    
  100ab3:	90                   	nop    
  100ab4:	90                   	nop    
  100ab5:	90                   	nop    
  100ab6:	90                   	nop    
  100ab7:	90                   	nop    
  100ab8:	90                   	nop    
  100ab9:	90                   	nop    
  100aba:	90                   	nop    
  100abb:	90                   	nop    
  100abc:	90                   	nop    
  100abd:	90                   	nop    
  100abe:	90                   	nop    
  100abf:	90                   	nop    
  100ac0:	90                   	nop    
  100ac1:	90                   	nop    
  100ac2:	90                   	nop    
  100ac3:	90                   	nop    
  100ac4:	90                   	nop    
  100ac5:	90                   	nop    
  100ac6:	90                   	nop    
  100ac7:	90                   	nop    
  100ac8:	90                   	nop    
  100ac9:	90                   	nop    
  100aca:	90                   	nop    
  100acb:	90                   	nop    
  100acc:	90                   	nop    
  100acd:	90                   	nop    
  100ace:	90                   	nop    
  100acf:	90                   	nop    
  100ad0:	90                   	nop    
  100ad1:	90                   	nop    
  100ad2:	90                   	nop    
  100ad3:	90                   	nop    
  100ad4:	90                   	nop    
  100ad5:	90                   	nop    
  100ad6:	90                   	nop    
  100ad7:	90                   	nop    
  100ad8:	90                   	nop    
  100ad9:	90                   	nop    
  100ada:	90                   	nop    
  100adb:	90                   	nop    
  100adc:	90                   	nop    
  100add:	90                   	nop    
  100ade:	90                   	nop    
  100adf:	90                   	nop    
  100ae0:	90                   	nop    
  100ae1:	90                   	nop    
  100ae2:	90                   	nop    
  100ae3:	90                   	nop    
  100ae4:	90                   	nop    
  100ae5:	90                   	nop    
  100ae6:	90                   	nop    
  100ae7:	90                   	nop    
  100ae8:	90                   	nop    
  100ae9:	90                   	nop    
  100aea:	90                   	nop    
  100aeb:	90                   	nop    
  100aec:	90                   	nop    
  100aed:	90                   	nop    
  100aee:	90                   	nop    
  100aef:	90                   	nop    
  100af0:	90                   	nop    
  100af1:	90                   	nop    
  100af2:	90                   	nop    
  100af3:	90                   	nop    
  100af4:	90                   	nop    
  100af5:	90                   	nop    
  100af6:	90                   	nop    
  100af7:	90                   	nop    
  100af8:	90                   	nop    
  100af9:	90                   	nop    
  100afa:	90                   	nop    
  100afb:	90                   	nop    
  100afc:	90                   	nop    
  100afd:	90                   	nop    
  100afe:	90                   	nop    
  100aff:	90                   	nop    
  100b00:	90                   	nop    
  100b01:	90                   	nop    
  100b02:	90                   	nop    
  100b03:	90                   	nop    
  100b04:	90                   	nop    
  100b05:	90                   	nop    
  100b06:	90                   	nop    
  100b07:	90                   	nop    
  100b08:	90                   	nop    
  100b09:	90                   	nop    
  100b0a:	90                   	nop    
  100b0b:	90                   	nop    
  100b0c:	90                   	nop    
  100b0d:	90                   	nop    
  100b0e:	90                   	nop    
  100b0f:	90                   	nop    
  100b10:	90                   	nop    
  100b11:	90                   	nop    
  100b12:	90                   	nop    
  100b13:	90                   	nop    
  100b14:	90                   	nop    
  100b15:	90                   	nop    
  100b16:	90                   	nop    
  100b17:	90                   	nop    
  100b18:	90                   	nop    
  100b19:	90                   	nop    
  100b1a:	90                   	nop    
  100b1b:	90                   	nop    
  100b1c:	90                   	nop    
  100b1d:	90                   	nop    
  100b1e:	90                   	nop    
  100b1f:	90                   	nop    
  100b20:	90                   	nop    
  100b21:	90                   	nop    
  100b22:	90                   	nop    
  100b23:	90                   	nop    
  100b24:	90                   	nop    
  100b25:	90                   	nop    
  100b26:	90                   	nop    
  100b27:	90                   	nop    
  100b28:	90                   	nop    
  100b29:	90                   	nop    
  100b2a:	90                   	nop    
  100b2b:	90                   	nop    
  100b2c:	90                   	nop    
  100b2d:	90                   	nop    
  100b2e:	90                   	nop    
  100b2f:	90                   	nop    
  100b30:	90                   	nop    
  100b31:	90                   	nop    
  100b32:	90                   	nop    
  100b33:	90                   	nop    
  100b34:	90                   	nop    
  100b35:	90                   	nop    
  100b36:	90                   	nop    
  100b37:	90                   	nop    
  100b38:	90                   	nop    
  100b39:	90                   	nop    
  100b3a:	90                   	nop    
  100b3b:	90                   	nop    
  100b3c:	90                   	nop    
  100b3d:	90                   	nop    
  100b3e:	90                   	nop    
  100b3f:	90                   	nop    
  100b40:	90                   	nop    
  100b41:	90                   	nop    
  100b42:	90                   	nop    
  100b43:	90                   	nop    
  100b44:	90                   	nop    
  100b45:	90                   	nop    
  100b46:	90                   	nop    
  100b47:	90                   	nop    
  100b48:	90                   	nop    
  100b49:	90                   	nop    
  100b4a:	90                   	nop    
  100b4b:	90                   	nop    
  100b4c:	90                   	nop    
  100b4d:	90                   	nop    
  100b4e:	90                   	nop    
  100b4f:	90                   	nop    
  100b50:	90                   	nop    
  100b51:	90                   	nop    
  100b52:	90                   	nop    
  100b53:	90                   	nop    
  100b54:	90                   	nop    
  100b55:	90                   	nop    
  100b56:	90                   	nop    
  100b57:	90                   	nop    
  100b58:	90                   	nop    
  100b59:	90                   	nop    
  100b5a:	90                   	nop    
  100b5b:	90                   	nop    
  100b5c:	90                   	nop    
  100b5d:	90                   	nop    
  100b5e:	90                   	nop    
  100b5f:	90                   	nop    
  100b60:	90                   	nop    
  100b61:	90                   	nop    
  100b62:	90                   	nop    
  100b63:	90                   	nop    
  100b64:	90                   	nop    
  100b65:	90                   	nop    
  100b66:	90                   	nop    
  100b67:	90                   	nop    
  100b68:	90                   	nop    
  100b69:	90                   	nop    
  100b6a:	90                   	nop    
  100b6b:	90                   	nop    
  100b6c:	90                   	nop    
  100b6d:	90                   	nop    
  100b6e:	90                   	nop    
  100b6f:	90                   	nop    
  100b70:	90                   	nop    
  100b71:	90                   	nop    
  100b72:	90                   	nop    
  100b73:	90                   	nop    
  100b74:	90                   	nop    
  100b75:	90                   	nop    
  100b76:	90                   	nop    
  100b77:	90                   	nop    
  100b78:	90                   	nop    
  100b79:	90                   	nop    
  100b7a:	90                   	nop    
  100b7b:	90                   	nop    
  100b7c:	90                   	nop    
  100b7d:	90                   	nop    
  100b7e:	90                   	nop    
  100b7f:	90                   	nop    
  100b80:	90                   	nop    
  100b81:	90                   	nop    
  100b82:	90                   	nop    
  100b83:	90                   	nop    
  100b84:	90                   	nop    
  100b85:	90                   	nop    
  100b86:	90                   	nop    
  100b87:	90                   	nop    
  100b88:	90                   	nop    
  100b89:	90                   	nop    
  100b8a:	90                   	nop    
  100b8b:	90                   	nop    
  100b8c:	90                   	nop    
  100b8d:	90                   	nop    
  100b8e:	90                   	nop    
  100b8f:	90                   	nop    
  100b90:	90                   	nop    
  100b91:	90                   	nop    
  100b92:	90                   	nop    
  100b93:	90                   	nop    
  100b94:	90                   	nop    
  100b95:	90                   	nop    
  100b96:	90                   	nop    
  100b97:	90                   	nop    
  100b98:	90                   	nop    
  100b99:	90                   	nop    
  100b9a:	90                   	nop    
  100b9b:	90                   	nop    
  100b9c:	90                   	nop    
  100b9d:	90                   	nop    
  100b9e:	90                   	nop    
  100b9f:	90                   	nop    
  100ba0:	90                   	nop    
  100ba1:	90                   	nop    
  100ba2:	90                   	nop    
  100ba3:	90                   	nop    
  100ba4:	90                   	nop    
  100ba5:	90                   	nop    
  100ba6:	90                   	nop    
  100ba7:	90                   	nop    
  100ba8:	90                   	nop    
  100ba9:	90                   	nop    
  100baa:	90                   	nop    
  100bab:	90                   	nop    
  100bac:	90                   	nop    
  100bad:	90                   	nop    
  100bae:	90                   	nop    
  100baf:	90                   	nop    
  100bb0:	90                   	nop    
  100bb1:	90                   	nop    
  100bb2:	90                   	nop    
  100bb3:	90                   	nop    
  100bb4:	90                   	nop    
  100bb5:	90                   	nop    
  100bb6:	90                   	nop    
  100bb7:	90                   	nop    
  100bb8:	90                   	nop    
  100bb9:	90                   	nop    
  100bba:	90                   	nop    
  100bbb:	90                   	nop    
  100bbc:	90                   	nop    
  100bbd:	90                   	nop    
  100bbe:	90                   	nop    
  100bbf:	90                   	nop    
  100bc0:	90                   	nop    
  100bc1:	90                   	nop    
  100bc2:	90                   	nop    
  100bc3:	90                   	nop    
  100bc4:	90                   	nop    
  100bc5:	90                   	nop    
  100bc6:	90                   	nop    
  100bc7:	90                   	nop    
  100bc8:	90                   	nop    
  100bc9:	90                   	nop    
  100bca:	90                   	nop    
  100bcb:	90                   	nop    
  100bcc:	90                   	nop    
  100bcd:	90                   	nop    
  100bce:	90                   	nop    
  100bcf:	90                   	nop    
  100bd0:	90                   	nop    
  100bd1:	90                   	nop    
  100bd2:	90                   	nop    
  100bd3:	90                   	nop    
  100bd4:	90                   	nop    
  100bd5:	90                   	nop    
  100bd6:	90                   	nop    
  100bd7:	90                   	nop    
  100bd8:	90                   	nop    
  100bd9:	90                   	nop    
  100bda:	90                   	nop    
  100bdb:	90                   	nop    
  100bdc:	90                   	nop    
  100bdd:	90                   	nop    
  100bde:	90                   	nop    
  100bdf:	90                   	nop    
  100be0:	90                   	nop    
  100be1:	90                   	nop    
  100be2:	90                   	nop    
  100be3:	90                   	nop    
  100be4:	90                   	nop    
  100be5:	90                   	nop    
  100be6:	90                   	nop    
  100be7:	90                   	nop    
  100be8:	90                   	nop    
  100be9:	90                   	nop    
  100bea:	90                   	nop    
  100beb:	90                   	nop    
  100bec:	90                   	nop    
  100bed:	90                   	nop    
  100bee:	90                   	nop    
  100bef:	90                   	nop    
  100bf0:	90                   	nop    
  100bf1:	90                   	nop    
  100bf2:	90                   	nop    
  100bf3:	90                   	nop    
  100bf4:	90                   	nop    
  100bf5:	90                   	nop    
  100bf6:	90                   	nop    
  100bf7:	90                   	nop    
  100bf8:	90                   	nop    
  100bf9:	90                   	nop    
  100bfa:	90                   	nop    
  100bfb:	90                   	nop    
  100bfc:	90                   	nop    
  100bfd:	90                   	nop    
  100bfe:	90                   	nop    
  100bff:	90                   	nop    
  100c00:	90                   	nop    
  100c01:	90                   	nop    
  100c02:	90                   	nop    
  100c03:	90                   	nop    
  100c04:	90                   	nop    
  100c05:	90                   	nop    
  100c06:	90                   	nop    
  100c07:	90                   	nop    
  100c08:	90                   	nop    
  100c09:	90                   	nop    
  100c0a:	90                   	nop    
  100c0b:	90                   	nop    
  100c0c:	90                   	nop    
  100c0d:	90                   	nop    
  100c0e:	90                   	nop    
  100c0f:	90                   	nop    
  100c10:	90                   	nop    
  100c11:	90                   	nop    
  100c12:	90                   	nop    
  100c13:	90                   	nop    
  100c14:	90                   	nop    
  100c15:	90                   	nop    
  100c16:	90                   	nop    
  100c17:	90                   	nop    
  100c18:	90                   	nop    
  100c19:	90                   	nop    
  100c1a:	90                   	nop    
  100c1b:	90                   	nop    
  100c1c:	90                   	nop    
  100c1d:	90                   	nop    
  100c1e:	90                   	nop    
  100c1f:	90                   	nop    
  100c20:	90                   	nop    
  100c21:	90                   	nop    
  100c22:	90                   	nop    
  100c23:	90                   	nop    
  100c24:	90                   	nop    
  100c25:	90                   	nop    
  100c26:	90                   	nop    
  100c27:	90                   	nop    
  100c28:	90                   	nop    
  100c29:	90                   	nop    
  100c2a:	90                   	nop    
  100c2b:	90                   	nop    
  100c2c:	90                   	nop    
  100c2d:	90                   	nop    
  100c2e:	90                   	nop    
  100c2f:	90                   	nop    
  100c30:	90                   	nop    
  100c31:	90                   	nop    
  100c32:	90                   	nop    
  100c33:	90                   	nop    
  100c34:	90                   	nop    
  100c35:	90                   	nop    
  100c36:	90                   	nop    
  100c37:	90                   	nop    
  100c38:	90                   	nop    
  100c39:	90                   	nop    
  100c3a:	90                   	nop    
  100c3b:	90                   	nop    
  100c3c:	90                   	nop    
  100c3d:	90                   	nop    
  100c3e:	90                   	nop    
  100c3f:	90                   	nop    
  100c40:	90                   	nop    
  100c41:	90                   	nop    
  100c42:	90                   	nop    
  100c43:	90                   	nop    
  100c44:	90                   	nop    
  100c45:	90                   	nop    
  100c46:	90                   	nop    
  100c47:	90                   	nop    
  100c48:	90                   	nop    
  100c49:	90                   	nop    
  100c4a:	90                   	nop    
  100c4b:	90                   	nop    
  100c4c:	90                   	nop    
  100c4d:	90                   	nop    
  100c4e:	90                   	nop    
  100c4f:	90                   	nop    
  100c50:	90                   	nop    
  100c51:	90                   	nop    
  100c52:	90                   	nop    
  100c53:	90                   	nop    
  100c54:	90                   	nop    
  100c55:	90                   	nop    
  100c56:	90                   	nop    
  100c57:	90                   	nop    
  100c58:	90                   	nop    
  100c59:	90                   	nop    
  100c5a:	90                   	nop    
  100c5b:	90                   	nop    
  100c5c:	90                   	nop    
  100c5d:	90                   	nop    
  100c5e:	90                   	nop    
  100c5f:	90                   	nop    
  100c60:	90                   	nop    
  100c61:	90                   	nop    
  100c62:	90                   	nop    
  100c63:	90                   	nop    
  100c64:	90                   	nop    
  100c65:	90                   	nop    
  100c66:	90                   	nop    
  100c67:	90                   	nop    
  100c68:	90                   	nop    
  100c69:	90                   	nop    
  100c6a:	90                   	nop    
  100c6b:	90                   	nop    
  100c6c:	90                   	nop    
  100c6d:	90                   	nop    
  100c6e:	90                   	nop    
  100c6f:	90                   	nop    
  100c70:	90                   	nop    
  100c71:	90                   	nop    
  100c72:	90                   	nop    
  100c73:	90                   	nop    
  100c74:	90                   	nop    
  100c75:	90                   	nop    
  100c76:	90                   	nop    
  100c77:	90                   	nop    
  100c78:	90                   	nop    
  100c79:	90                   	nop    
  100c7a:	90                   	nop    
  100c7b:	90                   	nop    
  100c7c:	90                   	nop    
  100c7d:	90                   	nop    
  100c7e:	90                   	nop    
  100c7f:	90                   	nop    
  100c80:	90                   	nop    
  100c81:	90                   	nop    
  100c82:	90                   	nop    
  100c83:	90                   	nop    
  100c84:	90                   	nop    
  100c85:	90                   	nop    
  100c86:	90                   	nop    
  100c87:	90                   	nop    
  100c88:	90                   	nop    
  100c89:	90                   	nop    
  100c8a:	90                   	nop    
  100c8b:	90                   	nop    
  100c8c:	90                   	nop    
  100c8d:	90                   	nop    
  100c8e:	90                   	nop    
  100c8f:	90                   	nop    
  100c90:	90                   	nop    
  100c91:	90                   	nop    
  100c92:	90                   	nop    
  100c93:	90                   	nop    
  100c94:	90                   	nop    
  100c95:	90                   	nop    
  100c96:	90                   	nop    
  100c97:	90                   	nop    
  100c98:	90                   	nop    
  100c99:	90                   	nop    
  100c9a:	90                   	nop    
  100c9b:	90                   	nop    
  100c9c:	90                   	nop    
  100c9d:	90                   	nop    
  100c9e:	90                   	nop    
  100c9f:	90                   	nop    
  100ca0:	90                   	nop    
  100ca1:	90                   	nop    
  100ca2:	90                   	nop    
  100ca3:	90                   	nop    
  100ca4:	90                   	nop    
  100ca5:	90                   	nop    
  100ca6:	90                   	nop    
  100ca7:	90                   	nop    
  100ca8:	90                   	nop    
  100ca9:	90                   	nop    
  100caa:	90                   	nop    
  100cab:	90                   	nop    
  100cac:	90                   	nop    
  100cad:	90                   	nop    
  100cae:	90                   	nop    
  100caf:	90                   	nop    
  100cb0:	90                   	nop    
  100cb1:	90                   	nop    
  100cb2:	90                   	nop    
  100cb3:	90                   	nop    
  100cb4:	90                   	nop    
  100cb5:	90                   	nop    
  100cb6:	90                   	nop    
  100cb7:	90                   	nop    
  100cb8:	90                   	nop    
  100cb9:	90                   	nop    
  100cba:	90                   	nop    
  100cbb:	90                   	nop    
  100cbc:	90                   	nop    
  100cbd:	90                   	nop    
  100cbe:	90                   	nop    
  100cbf:	90                   	nop    
  100cc0:	90                   	nop    
  100cc1:	90                   	nop    
  100cc2:	90                   	nop    
  100cc3:	90                   	nop    
  100cc4:	90                   	nop    
  100cc5:	90                   	nop    
  100cc6:	90                   	nop    
  100cc7:	90                   	nop    
  100cc8:	90                   	nop    
  100cc9:	90                   	nop    
  100cca:	90                   	nop    
  100ccb:	90                   	nop    
  100ccc:	90                   	nop    
  100ccd:	90                   	nop    
  100cce:	90                   	nop    
  100ccf:	90                   	nop    
  100cd0:	90                   	nop    
  100cd1:	90                   	nop    
  100cd2:	90                   	nop    
  100cd3:	90                   	nop    
  100cd4:	90                   	nop    
  100cd5:	90                   	nop    
  100cd6:	90                   	nop    
  100cd7:	90                   	nop    
  100cd8:	90                   	nop    
  100cd9:	90                   	nop    
  100cda:	90                   	nop    
  100cdb:	90                   	nop    
  100cdc:	90                   	nop    
  100cdd:	90                   	nop    
  100cde:	90                   	nop    
  100cdf:	90                   	nop    
  100ce0:	90                   	nop    
  100ce1:	90                   	nop    
  100ce2:	90                   	nop    
  100ce3:	90                   	nop    
  100ce4:	90                   	nop    
  100ce5:	90                   	nop    
  100ce6:	90                   	nop    
  100ce7:	90                   	nop    
  100ce8:	90                   	nop    
  100ce9:	90                   	nop    
  100cea:	90                   	nop    
  100ceb:	90                   	nop    
  100cec:	90                   	nop    
  100ced:	90                   	nop    
  100cee:	90                   	nop    
  100cef:	90                   	nop    
  100cf0:	90                   	nop    
  100cf1:	90                   	nop    
  100cf2:	90                   	nop    
  100cf3:	90                   	nop    
  100cf4:	90                   	nop    
  100cf5:	90                   	nop    
  100cf6:	90                   	nop    
  100cf7:	90                   	nop    
  100cf8:	90                   	nop    
  100cf9:	90                   	nop    
  100cfa:	90                   	nop    
  100cfb:	90                   	nop    
  100cfc:	90                   	nop    
  100cfd:	90                   	nop    
  100cfe:	90                   	nop    
  100cff:	90                   	nop    
  100d00:	90                   	nop    
  100d01:	90                   	nop    
  100d02:	90                   	nop    
  100d03:	90                   	nop    
  100d04:	90                   	nop    
  100d05:	90                   	nop    
  100d06:	90                   	nop    
  100d07:	90                   	nop    
  100d08:	90                   	nop    
  100d09:	90                   	nop    
  100d0a:	90                   	nop    
  100d0b:	90                   	nop    
  100d0c:	90                   	nop    
  100d0d:	90                   	nop    
  100d0e:	90                   	nop    
  100d0f:	90                   	nop    
  100d10:	90                   	nop    
  100d11:	90                   	nop    
  100d12:	90                   	nop    
  100d13:	90                   	nop    
  100d14:	90                   	nop    
  100d15:	90                   	nop    
  100d16:	90                   	nop    
  100d17:	90                   	nop    
  100d18:	90                   	nop    
  100d19:	90                   	nop    
  100d1a:	90                   	nop    
  100d1b:	90                   	nop    
  100d1c:	90                   	nop    
  100d1d:	90                   	nop    
  100d1e:	90                   	nop    
  100d1f:	90                   	nop    
  100d20:	90                   	nop    
  100d21:	90                   	nop    
  100d22:	90                   	nop    
  100d23:	90                   	nop    
  100d24:	90                   	nop    
  100d25:	90                   	nop    
  100d26:	90                   	nop    
  100d27:	90                   	nop    
  100d28:	90                   	nop    
  100d29:	90                   	nop    
  100d2a:	90                   	nop    
  100d2b:	90                   	nop    
  100d2c:	90                   	nop    
  100d2d:	90                   	nop    
  100d2e:	90                   	nop    
  100d2f:	90                   	nop    
  100d30:	90                   	nop    
  100d31:	90                   	nop    
  100d32:	90                   	nop    
  100d33:	90                   	nop    
  100d34:	90                   	nop    
  100d35:	90                   	nop    
  100d36:	90                   	nop    
  100d37:	90                   	nop    
  100d38:	90                   	nop    
  100d39:	90                   	nop    
  100d3a:	90                   	nop    
  100d3b:	90                   	nop    
  100d3c:	90                   	nop    
  100d3d:	90                   	nop    
  100d3e:	90                   	nop    
  100d3f:	90                   	nop    
  100d40:	90                   	nop    
  100d41:	90                   	nop    
  100d42:	90                   	nop    
  100d43:	90                   	nop    
  100d44:	90                   	nop    
  100d45:	90                   	nop    
  100d46:	90                   	nop    
  100d47:	90                   	nop    
  100d48:	90                   	nop    
  100d49:	90                   	nop    
  100d4a:	90                   	nop    
  100d4b:	90                   	nop    
  100d4c:	90                   	nop    
  100d4d:	90                   	nop    
  100d4e:	90                   	nop    
  100d4f:	90                   	nop    
  100d50:	90                   	nop    
  100d51:	90                   	nop    
  100d52:	90                   	nop    
  100d53:	90                   	nop    
  100d54:	90                   	nop    
  100d55:	90                   	nop    
  100d56:	90                   	nop    
  100d57:	90                   	nop    
  100d58:	90                   	nop    
  100d59:	90                   	nop    
  100d5a:	90                   	nop    
  100d5b:	90                   	nop    
  100d5c:	90                   	nop    
  100d5d:	90                   	nop    
  100d5e:	90                   	nop    
  100d5f:	90                   	nop    
  100d60:	90                   	nop    
  100d61:	90                   	nop    
  100d62:	90                   	nop    
  100d63:	90                   	nop    
  100d64:	90                   	nop    
  100d65:	90                   	nop    
  100d66:	90                   	nop    
  100d67:	90                   	nop    
  100d68:	90                   	nop    
  100d69:	90                   	nop    
  100d6a:	90                   	nop    
  100d6b:	90                   	nop    
  100d6c:	90                   	nop    
  100d6d:	90                   	nop    
  100d6e:	90                   	nop    
  100d6f:	90                   	nop    
  100d70:	90                   	nop    
  100d71:	90                   	nop    
  100d72:	90                   	nop    
  100d73:	90                   	nop    
  100d74:	90                   	nop    
  100d75:	90                   	nop    
  100d76:	90                   	nop    
  100d77:	90                   	nop    
  100d78:	90                   	nop    
  100d79:	90                   	nop    
  100d7a:	90                   	nop    
  100d7b:	90                   	nop    
  100d7c:	90                   	nop    
  100d7d:	90                   	nop    
  100d7e:	90                   	nop    
  100d7f:	90                   	nop    
  100d80:	90                   	nop    
  100d81:	90                   	nop    
  100d82:	90                   	nop    
  100d83:	90                   	nop    
  100d84:	90                   	nop    
  100d85:	90                   	nop    
  100d86:	90                   	nop    
  100d87:	90                   	nop    
  100d88:	90                   	nop    
  100d89:	90                   	nop    
  100d8a:	90                   	nop    
  100d8b:	90                   	nop    
  100d8c:	90                   	nop    
  100d8d:	90                   	nop    
  100d8e:	90                   	nop    
  100d8f:	90                   	nop    
  100d90:	90                   	nop    
  100d91:	90                   	nop    
  100d92:	90                   	nop    
  100d93:	90                   	nop    
  100d94:	90                   	nop    
  100d95:	90                   	nop    
  100d96:	90                   	nop    
  100d97:	90                   	nop    
  100d98:	90                   	nop    
  100d99:	90                   	nop    
  100d9a:	90                   	nop    
  100d9b:	90                   	nop    
  100d9c:	90                   	nop    
  100d9d:	90                   	nop    
  100d9e:	90                   	nop    
  100d9f:	90                   	nop    
  100da0:	90                   	nop    
  100da1:	90                   	nop    
  100da2:	90                   	nop    
  100da3:	90                   	nop    
  100da4:	90                   	nop    
  100da5:	90                   	nop    
  100da6:	90                   	nop    
  100da7:	90                   	nop    
  100da8:	90                   	nop    
  100da9:	90                   	nop    
  100daa:	90                   	nop    
  100dab:	90                   	nop    
  100dac:	90                   	nop    
  100dad:	90                   	nop    
  100dae:	90                   	nop    
  100daf:	90                   	nop    
  100db0:	90                   	nop    
  100db1:	90                   	nop    
  100db2:	90                   	nop    
  100db3:	90                   	nop    
  100db4:	90                   	nop    
  100db5:	90                   	nop    
  100db6:	90                   	nop    
  100db7:	90                   	nop    
  100db8:	90                   	nop    
  100db9:	90                   	nop    
  100dba:	90                   	nop    
  100dbb:	90                   	nop    
  100dbc:	90                   	nop    
  100dbd:	90                   	nop    
  100dbe:	90                   	nop    
  100dbf:	90                   	nop    
  100dc0:	90                   	nop    
  100dc1:	90                   	nop    
  100dc2:	90                   	nop    
  100dc3:	90                   	nop    
  100dc4:	90                   	nop    
  100dc5:	90                   	nop    
  100dc6:	90                   	nop    
  100dc7:	90                   	nop    
  100dc8:	90                   	nop    
  100dc9:	90                   	nop    
  100dca:	90                   	nop    
  100dcb:	90                   	nop    
  100dcc:	90                   	nop    
  100dcd:	90                   	nop    
  100dce:	90                   	nop    
  100dcf:	90                   	nop    
  100dd0:	90                   	nop    
  100dd1:	90                   	nop    
  100dd2:	90                   	nop    
  100dd3:	90                   	nop    
  100dd4:	90                   	nop    
  100dd5:	90                   	nop    
  100dd6:	90                   	nop    
  100dd7:	90                   	nop    
  100dd8:	90                   	nop    
  100dd9:	90                   	nop    
  100dda:	90                   	nop    
  100ddb:	90                   	nop    
  100ddc:	90                   	nop    
  100ddd:	90                   	nop    
  100dde:	90                   	nop    
  100ddf:	90                   	nop    
  100de0:	90                   	nop    
  100de1:	90                   	nop    
  100de2:	90                   	nop    
  100de3:	90                   	nop    
  100de4:	90                   	nop    
  100de5:	90                   	nop    
  100de6:	90                   	nop    
  100de7:	90                   	nop    
  100de8:	90                   	nop    
  100de9:	90                   	nop    
  100dea:	90                   	nop    
  100deb:	90                   	nop    
  100dec:	90                   	nop    
  100ded:	90                   	nop    
  100dee:	90                   	nop    
  100def:	90                   	nop    
  100df0:	90                   	nop    
  100df1:	90                   	nop    
  100df2:	90                   	nop    
  100df3:	90                   	nop    
  100df4:	90                   	nop    
  100df5:	90                   	nop    
  100df6:	90                   	nop    
  100df7:	90                   	nop    
  100df8:	90                   	nop    
  100df9:	90                   	nop    
  100dfa:	90                   	nop    
  100dfb:	90                   	nop    
  100dfc:	90                   	nop    
  100dfd:	90                   	nop    
  100dfe:	90                   	nop    
  100dff:	90                   	nop    
  100e00:	90                   	nop    
  100e01:	90                   	nop    
  100e02:	90                   	nop    
  100e03:	90                   	nop    
  100e04:	90                   	nop    
  100e05:	90                   	nop    
  100e06:	90                   	nop    
  100e07:	90                   	nop    
  100e08:	90                   	nop    
  100e09:	90                   	nop    
  100e0a:	90                   	nop    
  100e0b:	90                   	nop    
  100e0c:	90                   	nop    
  100e0d:	90                   	nop    
  100e0e:	90                   	nop    
  100e0f:	90                   	nop    
  100e10:	90                   	nop    
  100e11:	90                   	nop    
  100e12:	90                   	nop    
  100e13:	90                   	nop    
  100e14:	90                   	nop    
  100e15:	90                   	nop    
  100e16:	90                   	nop    
  100e17:	90                   	nop    
  100e18:	90                   	nop    
  100e19:	90                   	nop    
  100e1a:	90                   	nop    
  100e1b:	90                   	nop    
  100e1c:	90                   	nop    
  100e1d:	90                   	nop    
  100e1e:	90                   	nop    
  100e1f:	90                   	nop    
  100e20:	90                   	nop    
  100e21:	90                   	nop    
  100e22:	90                   	nop    
  100e23:	90                   	nop    
  100e24:	90                   	nop    
  100e25:	90                   	nop    
  100e26:	90                   	nop    
  100e27:	90                   	nop    
  100e28:	90                   	nop    
  100e29:	90                   	nop    
  100e2a:	90                   	nop    
  100e2b:	90                   	nop    
  100e2c:	90                   	nop    
  100e2d:	90                   	nop    
  100e2e:	90                   	nop    
  100e2f:	90                   	nop    
  100e30:	90                   	nop    
  100e31:	90                   	nop    
  100e32:	90                   	nop    
  100e33:	90                   	nop    
  100e34:	90                   	nop    
  100e35:	90                   	nop    
  100e36:	90                   	nop    
  100e37:	90                   	nop    
  100e38:	90                   	nop    
  100e39:	90                   	nop    
  100e3a:	90                   	nop    
  100e3b:	90                   	nop    
  100e3c:	90                   	nop    
  100e3d:	90                   	nop    
  100e3e:	90                   	nop    
  100e3f:	90                   	nop    
  100e40:	90                   	nop    
  100e41:	90                   	nop    
  100e42:	90                   	nop    
  100e43:	90                   	nop    
  100e44:	90                   	nop    
  100e45:	90                   	nop    
  100e46:	90                   	nop    
  100e47:	90                   	nop    
  100e48:	90                   	nop    
  100e49:	90                   	nop    
  100e4a:	90                   	nop    
  100e4b:	90                   	nop    
  100e4c:	90                   	nop    
  100e4d:	90                   	nop    
  100e4e:	90                   	nop    
  100e4f:	90                   	nop    
  100e50:	90                   	nop    
  100e51:	90                   	nop    
  100e52:	90                   	nop    
  100e53:	90                   	nop    
  100e54:	90                   	nop    
  100e55:	90                   	nop    
  100e56:	90                   	nop    
  100e57:	90                   	nop    
  100e58:	90                   	nop    
  100e59:	90                   	nop    
  100e5a:	90                   	nop    
  100e5b:	90                   	nop    
  100e5c:	90                   	nop    
  100e5d:	90                   	nop    
  100e5e:	90                   	nop    
  100e5f:	90                   	nop    
  100e60:	90                   	nop    
  100e61:	90                   	nop    
  100e62:	90                   	nop    
  100e63:	90                   	nop    
  100e64:	90                   	nop    
  100e65:	90                   	nop    
  100e66:	90                   	nop    
  100e67:	90                   	nop    
  100e68:	90                   	nop    
  100e69:	90                   	nop    
  100e6a:	90                   	nop    
  100e6b:	90                   	nop    
  100e6c:	90                   	nop    
  100e6d:	90                   	nop    
  100e6e:	90                   	nop    
  100e6f:	90                   	nop    
  100e70:	90                   	nop    
  100e71:	90                   	nop    
  100e72:	90                   	nop    
  100e73:	90                   	nop    
  100e74:	90                   	nop    
  100e75:	90                   	nop    
  100e76:	90                   	nop    
  100e77:	90                   	nop    
  100e78:	90                   	nop    
  100e79:	90                   	nop    
  100e7a:	90                   	nop    
  100e7b:	90                   	nop    
  100e7c:	90                   	nop    
  100e7d:	90                   	nop    
  100e7e:	90                   	nop    
  100e7f:	90                   	nop    
  100e80:	90                   	nop    
  100e81:	90                   	nop    
  100e82:	90                   	nop    
  100e83:	90                   	nop    
  100e84:	90                   	nop    
  100e85:	90                   	nop    
  100e86:	90                   	nop    
  100e87:	90                   	nop    
  100e88:	90                   	nop    
  100e89:	90                   	nop    
  100e8a:	90                   	nop    
  100e8b:	90                   	nop    
  100e8c:	90                   	nop    
  100e8d:	90                   	nop    
  100e8e:	90                   	nop    
  100e8f:	90                   	nop    
  100e90:	90                   	nop    
  100e91:	90                   	nop    
  100e92:	90                   	nop    
  100e93:	90                   	nop    
  100e94:	90                   	nop    
  100e95:	90                   	nop    
  100e96:	90                   	nop    
  100e97:	90                   	nop    
  100e98:	90                   	nop    
  100e99:	90                   	nop    
  100e9a:	90                   	nop    
  100e9b:	90                   	nop    
  100e9c:	90                   	nop    
  100e9d:	90                   	nop    
  100e9e:	90                   	nop    
  100e9f:	90                   	nop    
  100ea0:	90                   	nop    
  100ea1:	90                   	nop    
  100ea2:	90                   	nop    
  100ea3:	90                   	nop    
  100ea4:	90                   	nop    
  100ea5:	90                   	nop    
  100ea6:	90                   	nop    
  100ea7:	90                   	nop    
  100ea8:	90                   	nop    
  100ea9:	90                   	nop    
  100eaa:	90                   	nop    
  100eab:	90                   	nop    
  100eac:	90                   	nop    
  100ead:	90                   	nop    
  100eae:	90                   	nop    
  100eaf:	90                   	nop    
  100eb0:	90                   	nop    
  100eb1:	90                   	nop    
  100eb2:	90                   	nop    
  100eb3:	90                   	nop    
  100eb4:	90                   	nop    
  100eb5:	90                   	nop    
  100eb6:	90                   	nop    
  100eb7:	90                   	nop    
  100eb8:	90                   	nop    
  100eb9:	90                   	nop    
  100eba:	90                   	nop    
  100ebb:	90                   	nop    
  100ebc:	90                   	nop    
  100ebd:	90                   	nop    
  100ebe:	90                   	nop    
  100ebf:	90                   	nop    
  100ec0:	90                   	nop    
  100ec1:	90                   	nop    
  100ec2:	90                   	nop    
  100ec3:	90                   	nop    
  100ec4:	90                   	nop    
  100ec5:	90                   	nop    
  100ec6:	90                   	nop    
  100ec7:	90                   	nop    
  100ec8:	90                   	nop    
  100ec9:	90                   	nop    
  100eca:	90                   	nop    
  100ecb:	90                   	nop    
  100ecc:	90                   	nop    
  100ecd:	90                   	nop    
  100ece:	90                   	nop    
  100ecf:	90                   	nop    
  100ed0:	90                   	nop    
  100ed1:	90                   	nop    
  100ed2:	90                   	nop    
  100ed3:	90                   	nop    
  100ed4:	90                   	nop    
  100ed5:	90                   	nop    
  100ed6:	90                   	nop    
  100ed7:	90                   	nop    
  100ed8:	90                   	nop    
  100ed9:	90                   	nop    
  100eda:	90                   	nop    
  100edb:	90                   	nop    
  100edc:	90                   	nop    
  100edd:	90                   	nop    
  100ede:	90                   	nop    
  100edf:	90                   	nop    
  100ee0:	90                   	nop    
  100ee1:	90                   	nop    
  100ee2:	90                   	nop    
  100ee3:	90                   	nop    
  100ee4:	90                   	nop    
  100ee5:	90                   	nop    
  100ee6:	90                   	nop    
  100ee7:	90                   	nop    
  100ee8:	90                   	nop    
  100ee9:	90                   	nop    
  100eea:	90                   	nop    
  100eeb:	90                   	nop    
  100eec:	90                   	nop    
  100eed:	90                   	nop    
  100eee:	90                   	nop    
  100eef:	90                   	nop    
  100ef0:	90                   	nop    
  100ef1:	90                   	nop    
  100ef2:	90                   	nop    
  100ef3:	90                   	nop    
  100ef4:	90                   	nop    
  100ef5:	90                   	nop    
  100ef6:	90                   	nop    
  100ef7:	90                   	nop    
  100ef8:	90                   	nop    
  100ef9:	90                   	nop    
  100efa:	90                   	nop    
  100efb:	90                   	nop    
  100efc:	90                   	nop    
  100efd:	90                   	nop    
  100efe:	90                   	nop    
  100eff:	90                   	nop    
  100f00:	90                   	nop    
  100f01:	90                   	nop    
  100f02:	90                   	nop    
  100f03:	90                   	nop    
  100f04:	90                   	nop    
  100f05:	90                   	nop    
  100f06:	90                   	nop    
  100f07:	90                   	nop    
  100f08:	90                   	nop    
  100f09:	90                   	nop    
  100f0a:	90                   	nop    
  100f0b:	90                   	nop    
  100f0c:	90                   	nop    
  100f0d:	90                   	nop    
  100f0e:	90                   	nop    
  100f0f:	90                   	nop    
  100f10:	90                   	nop    
  100f11:	90                   	nop    
  100f12:	90                   	nop    
  100f13:	90                   	nop    
  100f14:	90                   	nop    
  100f15:	90                   	nop    
  100f16:	90                   	nop    
  100f17:	90                   	nop    
  100f18:	90                   	nop    
  100f19:	90                   	nop    
  100f1a:	90                   	nop    
  100f1b:	90                   	nop    
  100f1c:	90                   	nop    
  100f1d:	90                   	nop    
  100f1e:	90                   	nop    
  100f1f:	90                   	nop    
  100f20:	90                   	nop    
  100f21:	90                   	nop    
  100f22:	90                   	nop    
  100f23:	90                   	nop    
  100f24:	90                   	nop    
  100f25:	90                   	nop    
  100f26:	90                   	nop    
  100f27:	90                   	nop    
  100f28:	90                   	nop    
  100f29:	90                   	nop    
  100f2a:	90                   	nop    
  100f2b:	90                   	nop    
  100f2c:	90                   	nop    
  100f2d:	90                   	nop    
  100f2e:	90                   	nop    
  100f2f:	90                   	nop    
  100f30:	90                   	nop    
  100f31:	90                   	nop    
  100f32:	90                   	nop    
  100f33:	90                   	nop    
  100f34:	90                   	nop    
  100f35:	90                   	nop    
  100f36:	90                   	nop    
  100f37:	90                   	nop    
  100f38:	90                   	nop    
  100f39:	90                   	nop    
  100f3a:	90                   	nop    
  100f3b:	90                   	nop    
  100f3c:	90                   	nop    
  100f3d:	90                   	nop    
  100f3e:	90                   	nop    
  100f3f:	90                   	nop    
  100f40:	90                   	nop    
  100f41:	90                   	nop    
  100f42:	90                   	nop    
  100f43:	90                   	nop    
  100f44:	90                   	nop    
  100f45:	90                   	nop    
  100f46:	90                   	nop    
  100f47:	90                   	nop    
  100f48:	90                   	nop    
  100f49:	90                   	nop    
  100f4a:	90                   	nop    
  100f4b:	90                   	nop    
  100f4c:	90                   	nop    
  100f4d:	90                   	nop    
  100f4e:	90                   	nop    
  100f4f:	90                   	nop    
  100f50:	90                   	nop    
  100f51:	90                   	nop    
  100f52:	90                   	nop    
  100f53:	90                   	nop    
  100f54:	90                   	nop    
  100f55:	90                   	nop    
  100f56:	90                   	nop    
  100f57:	90                   	nop    
  100f58:	90                   	nop    
  100f59:	90                   	nop    
  100f5a:	90                   	nop    
  100f5b:	90                   	nop    
  100f5c:	90                   	nop    
  100f5d:	90                   	nop    
  100f5e:	90                   	nop    
  100f5f:	90                   	nop    
  100f60:	90                   	nop    
  100f61:	90                   	nop    
  100f62:	90                   	nop    
  100f63:	90                   	nop    
  100f64:	90                   	nop    
  100f65:	90                   	nop    
  100f66:	90                   	nop    
  100f67:	90                   	nop    
  100f68:	90                   	nop    
  100f69:	90                   	nop    
  100f6a:	90                   	nop    
  100f6b:	90                   	nop    
  100f6c:	90                   	nop    
  100f6d:	90                   	nop    
  100f6e:	90                   	nop    
  100f6f:	90                   	nop    
  100f70:	90                   	nop    
  100f71:	90                   	nop    
  100f72:	90                   	nop    
  100f73:	90                   	nop    
  100f74:	90                   	nop    
  100f75:	90                   	nop    
  100f76:	90                   	nop    
  100f77:	90                   	nop    
  100f78:	90                   	nop    
  100f79:	90                   	nop    
  100f7a:	90                   	nop    
  100f7b:	90                   	nop    
  100f7c:	90                   	nop    
  100f7d:	90                   	nop    
  100f7e:	90                   	nop    
  100f7f:	90                   	nop    
  100f80:	90                   	nop    
  100f81:	90                   	nop    
  100f82:	90                   	nop    
  100f83:	90                   	nop    
  100f84:	90                   	nop    
  100f85:	90                   	nop    
  100f86:	90                   	nop    
  100f87:	90                   	nop    
  100f88:	90                   	nop    
  100f89:	90                   	nop    
  100f8a:	90                   	nop    
  100f8b:	90                   	nop    
  100f8c:	90                   	nop    
  100f8d:	90                   	nop    
  100f8e:	90                   	nop    
  100f8f:	90                   	nop    
  100f90:	90                   	nop    
  100f91:	90                   	nop    
  100f92:	90                   	nop    
  100f93:	90                   	nop    
  100f94:	90                   	nop    
  100f95:	90                   	nop    
  100f96:	90                   	nop    
  100f97:	90                   	nop    
  100f98:	90                   	nop    
  100f99:	90                   	nop    
  100f9a:	90                   	nop    
  100f9b:	90                   	nop    
  100f9c:	90                   	nop    
  100f9d:	90                   	nop    
  100f9e:	90                   	nop    
  100f9f:	90                   	nop    
  100fa0:	90                   	nop    
  100fa1:	90                   	nop    
  100fa2:	90                   	nop    
  100fa3:	90                   	nop    
  100fa4:	90                   	nop    
  100fa5:	90                   	nop    
  100fa6:	90                   	nop    
  100fa7:	90                   	nop    
  100fa8:	90                   	nop    
  100fa9:	90                   	nop    
  100faa:	90                   	nop    
  100fab:	90                   	nop    
  100fac:	90                   	nop    
  100fad:	90                   	nop    
  100fae:	90                   	nop    
  100faf:	90                   	nop    
  100fb0:	90                   	nop    
  100fb1:	90                   	nop    
  100fb2:	90                   	nop    
  100fb3:	90                   	nop    
  100fb4:	90                   	nop    
  100fb5:	90                   	nop    
  100fb6:	90                   	nop    
  100fb7:	90                   	nop    
  100fb8:	90                   	nop    
  100fb9:	90                   	nop    
  100fba:	90                   	nop    
  100fbb:	90                   	nop    
  100fbc:	90                   	nop    
  100fbd:	90                   	nop    
  100fbe:	90                   	nop    
  100fbf:	90                   	nop    
  100fc0:	90                   	nop    
  100fc1:	90                   	nop    
  100fc2:	90                   	nop    
  100fc3:	90                   	nop    
  100fc4:	90                   	nop    
  100fc5:	90                   	nop    
  100fc6:	90                   	nop    
  100fc7:	90                   	nop    
  100fc8:	90                   	nop    
  100fc9:	90                   	nop    
  100fca:	90                   	nop    
  100fcb:	90                   	nop    
  100fcc:	90                   	nop    
  100fcd:	90                   	nop    
  100fce:	90                   	nop    
  100fcf:	90                   	nop    
  100fd0:	90                   	nop    
  100fd1:	90                   	nop    
  100fd2:	90                   	nop    
  100fd3:	90                   	nop    
  100fd4:	90                   	nop    
  100fd5:	90                   	nop    
  100fd6:	90                   	nop    
  100fd7:	90                   	nop    
  100fd8:	90                   	nop    
  100fd9:	90                   	nop    
  100fda:	90                   	nop    
  100fdb:	90                   	nop    
  100fdc:	90                   	nop    
  100fdd:	90                   	nop    
  100fde:	90                   	nop    
  100fdf:	90                   	nop    
  100fe0:	90                   	nop    
  100fe1:	90                   	nop    
  100fe2:	90                   	nop    
  100fe3:	90                   	nop    
  100fe4:	90                   	nop    
  100fe5:	90                   	nop    
  100fe6:	90                   	nop    
  100fe7:	90                   	nop    
  100fe8:	90                   	nop    
  100fe9:	90                   	nop    
  100fea:	90                   	nop    
  100feb:	90                   	nop    
  100fec:	90                   	nop    
  100fed:	90                   	nop    
  100fee:	90                   	nop    
  100fef:	90                   	nop    
  100ff0:	90                   	nop    
  100ff1:	90                   	nop    
  100ff2:	90                   	nop    
  100ff3:	90                   	nop    
  100ff4:	90                   	nop    
  100ff5:	90                   	nop    
  100ff6:	90                   	nop    
  100ff7:	90                   	nop    
  100ff8:	90                   	nop    
  100ff9:	90                   	nop    
  100ffa:	90                   	nop    
  100ffb:	90                   	nop    
  100ffc:	90                   	nop    
  100ffd:	90                   	nop    
  100ffe:	90                   	nop    
  100fff:	90                   	nop    

0000000000101000 <pml4_base>:
  101000:	07                   	(bad)  
  101001:	30 10                	xor    %dl,(%rax)
	...

0000000000102000 <level2_ident_pgt>:
  102000:	83 00 00             	addl   $0x0,(%rax)
  102003:	00 00                	add    %al,(%rax)
  102005:	00 00                	add    %al,(%rax)
  102007:	00 83 00 20 00 00    	add    %al,0x2000(%rbx)
  10200d:	00 00                	add    %al,(%rax)
  10200f:	00 83 00 40 00 00    	add    %al,0x4000(%rbx)
  102015:	00 00                	add    %al,(%rax)
  102017:	00 83 00 60 00 00    	add    %al,0x6000(%rbx)
  10201d:	00 00                	add    %al,(%rax)
  10201f:	00 83 00 80 00 00    	add    %al,0x8000(%rbx)
  102025:	00 00                	add    %al,(%rax)
  102027:	00 83 00 a0 00 00    	add    %al,0xa000(%rbx)
  10202d:	00 00                	add    %al,(%rax)
  10202f:	00 83 00 c0 00 00    	add    %al,0xc000(%rbx)
  102035:	00 00                	add    %al,(%rax)
  102037:	00 83 00 e0 00 00    	add    %al,0xe000(%rbx)
  10203d:	00 00                	add    %al,(%rax)
  10203f:	00 83 00 00 01 00    	add    %al,0x10000(%rbx)
  102045:	00 00                	add    %al,(%rax)
  102047:	00 83 00 20 01 00    	add    %al,0x12000(%rbx)
  10204d:	00 00                	add    %al,(%rax)
  10204f:	00 83 00 40 01 00    	add    %al,0x14000(%rbx)
  102055:	00 00                	add    %al,(%rax)
  102057:	00 83 00 60 01 00    	add    %al,0x16000(%rbx)
  10205d:	00 00                	add    %al,(%rax)
  10205f:	00 83 00 80 01 00    	add    %al,0x18000(%rbx)
  102065:	00 00                	add    %al,(%rax)
  102067:	00 83 00 a0 01 00    	add    %al,0x1a000(%rbx)
  10206d:	00 00                	add    %al,(%rax)
  10206f:	00 83 00 c0 01 00    	add    %al,0x1c000(%rbx)
  102075:	00 00                	add    %al,(%rax)
  102077:	00 83 00 e0 01 00    	add    %al,0x1e000(%rbx)
  10207d:	00 00                	add    %al,(%rax)
  10207f:	00 83 00 00 02 00    	add    %al,0x20000(%rbx)
  102085:	00 00                	add    %al,(%rax)
  102087:	00 83 00 20 02 00    	add    %al,0x22000(%rbx)
  10208d:	00 00                	add    %al,(%rax)
  10208f:	00 83 00 40 02 00    	add    %al,0x24000(%rbx)
  102095:	00 00                	add    %al,(%rax)
  102097:	00 83 00 60 02 00    	add    %al,0x26000(%rbx)
  10209d:	00 00                	add    %al,(%rax)
	...

00000000001020a0 <temp_boot_pmds>:
	...

0000000000103000 <level3_ident_pgt>:
  103000:	07                   	(bad)  
  103001:	20 10                	and    %dl,(%rax)
	...

0000000000104000 <_D6kernel10CHECK_FLAGFkkZk>:
	Params:
		flags = The flags from the multiboot header the kernel wishes to check.
		bit = The number of the bit the kernel would like to check for data.
	Returns: Whether the bit "bit" in "flags" has a value (1 if it is set, 0 if it is not)
*/
uint CHECK_FLAG(uint flags, uint bit)
  104000:	55                   	push   %rbp
  104001:	48 89 e5             	mov    %rsp,%rbp
  104004:	89 7d fc             	mov    %edi,-0x4(%rbp)
  104007:	89 75 f8             	mov    %esi,-0x8(%rbp)
{
	return ((flags) & (1 << (bit)));
  10400a:	8b 4d f8             	mov    -0x8(%rbp),%ecx
  10400d:	b8 01 00 00 00       	mov    $0x1,%eax
  104012:	d3 e0                	shl    %cl,%eax
  104014:	23 45 fc             	and    -0x4(%rbp),%eax
}
  104017:	c9                   	leaveq 
  104018:	c3                   	retq   

0000000000104019 <_D6kernel15set_rflags_ioplFZv>:

/**
This method sets sets the Input/Output Permission Level to 3, so
that it will not check the IO permissions bitmap when access is requested.
*/
void set_rflags_iopl()
  104019:	55                   	push   %rbp
  10401a:	48 89 e5             	mov    %rsp,%rbp
	/* popf RFLAGS to set (IOPL) bits 12 & 13 = 1 */
	/* 0x3000 = 11000000000000 => bits 12 and 13 are 1*/
	asm
	 {
		"pushf";
		"popq %%rax";
  10401d:	9c                   	pushfq 
		"or $0x3000, %%rax";
  10401e:	58                   	pop    %rax
		"pushq %%rax";
  10401f:	48 0d 00 30 00 00    	or     $0x3000,%rax
		"popf";
  104025:	50                   	push   %rax
	}
  104026:	9d                   	popfq  
}
  104027:	c9                   	leaveq 
  104028:	c3                   	retq   

0000000000104029 <cmain>:
	Params:
		magic = the magic number returned by the GRUB bootloader
		addr = the address of the multiboot header, passed to the kernel to by the
			GRUB bootloader.
*/
extern(C) void cmain(uint magic, uint addr)
  104029:	55                   	push   %rbp
  10402a:	48 89 e5             	mov    %rsp,%rbp
  10402d:	48 81 ec b0 01 00 00 	sub    $0x1b0,%rsp
  104034:	89 bd 7c fe ff ff    	mov    %edi,-0x184(%rbp)
  10403a:	89 b5 78 fe ff ff    	mov    %esi,-0x188(%rbp)
{
	/// declare a pointer to the multiboot header.
	multiboot_info_t *mbi;
  104040:	48 c7 45 d0 00 00 00 	movq   $0x0,-0x30(%rbp)
  104047:	00 

	/// set flags.
	set_rflags_iopl();
  104048:	e8 cc ff ff ff       	callq  104019 <_D6kernel15set_rflags_ioplFZv>

	/// install the Global Descriptor Table (GDT) and the Interrupt Descriptor Table (IDT)
	GDT.install();
  10404d:	e8 6d 3d 00 00       	callq  107dbf <_D3gdt3GDT7installFZv>
	idt.install();
  104052:	e8 a2 19 00 00       	callq  1059f9 <_D3idt7installFZv>

	idt.setCustomHandler(idt.Type.PageFault, &handle_faults);
  104057:	be dc 7f 10 00       	mov    $0x107fdc,%esi
  10405c:	ba ff ff ff ff       	mov    $0xffffffff,%edx
  104061:	bf 0e 00 00 00       	mov    $0xe,%edi
  104066:	e8 a1 1d 00 00       	callq  105e0c <_D3idt16setCustomHandlerFmPFPS3idt15interrupt_stackZviZv>

	if( enable_kgdb ){
  10406b:	0f b6 05 3e 1b 02 00 	movzbl 0x21b3e(%rip),%eax        # 125bb0 <_D6config11enable_kgdbb>
  104072:	84 c0                	test   %al,%al
  104074:	74 0a                	je     104080 <cmain+0x57>
		set_debug_traps();
  104076:	e8 ff 52 00 00       	callq  10937a <_D9kgdb_stub15set_debug_trapsFZv>
		breakpoint();
  10407b:	e8 e3 52 00 00       	callq  109363 <_D9kgdb_stub10breakpointFZv>
	}

	/// Create a handler to deal with data in the LSTAR memory location. This handler
	/// will deal with system interrupts.
	lstar.set_handler(&lstar.syscallHandler);
  104080:	bf 6c 7e 10 00       	mov    $0x107e6c,%edi
  104085:	e8 13 3e 00 00       	callq  107e9d <_D5lstar11set_handlerFPFZvZv>

	/// Turn general interrupts on, so the computer can deal with errors and faults.
	asm{sti;}
  10408a:	fb                   	sti    

	/// Clear the screen in order to begin printing.
	/// Console.cls();

	/// Print initial booting information.
	kprintf("Booting ");
  10408b:	48 c7 85 80 fe ff ff 	movq   $0x8,-0x180(%rbp)
  104092:	08 00 00 00 
  104096:	48 c7 85 88 fe ff ff 	movq   $0x1170c0,-0x178(%rbp)
  10409d:	c0 70 11 00 
  1040a1:	48 8b b5 80 fe ff ff 	mov    -0x180(%rbp),%rsi
  1040a8:	48 8b 95 88 fe ff ff 	mov    -0x178(%rbp),%rdx
  1040af:	bf a0 00 12 00       	mov    $0x1200a0,%edi
  1040b4:	b8 00 00 00 00       	mov    $0x0,%eax
  1040b9:	e8 cb 0f 00 00       	callq  105089 <_D3vga7Console7kprintfFAaYv>
	Console.setColors(Color.Black, Color.HighRed);
  1040be:	be 0c 00 00 00       	mov    $0xc,%esi
  1040c3:	bf 00 00 00 00       	mov    $0x0,%edi
  1040c8:	e8 94 09 00 00       	callq  104a61 <_D3vga7Console9setColorsFE3vga5ColorE3vga5ColorZv>
	kprintf("PaGanOS");
  1040cd:	48 c7 85 90 fe ff ff 	movq   $0x7,-0x170(%rbp)
  1040d4:	07 00 00 00 
  1040d8:	48 c7 85 98 fe ff ff 	movq   $0x1170c9,-0x168(%rbp)
  1040df:	c9 70 11 00 
  1040e3:	48 8b b5 90 fe ff ff 	mov    -0x170(%rbp),%rsi
  1040ea:	48 8b 95 98 fe ff ff 	mov    -0x168(%rbp),%rdx
  1040f1:	bf a0 00 12 00       	mov    $0x1200a0,%edi
  1040f6:	b8 00 00 00 00       	mov    $0x0,%eax
  1040fb:	e8 89 0f 00 00       	callq  105089 <_D3vga7Console7kprintfFAaYv>
	Console.resetColors();
  104100:	e8 06 09 00 00       	callq  104a0b <_D3vga7Console11resetColorsFZv>
	kprintfln("...\n");
  104105:	48 c7 85 a0 fe ff ff 	movq   $0x4,-0x160(%rbp)
  10410c:	04 00 00 00 
  104110:	48 c7 85 a8 fe ff ff 	movq   $0x1170d1,-0x158(%rbp)
  104117:	d1 70 11 00 
  10411b:	48 8b b5 a0 fe ff ff 	mov    -0x160(%rbp),%rsi
  104122:	48 8b 95 a8 fe ff ff 	mov    -0x158(%rbp),%rdx
  104129:	bf a0 00 12 00       	mov    $0x1200a0,%edi
  10412e:	b8 00 00 00 00       	mov    $0x0,%eax
  104133:	e8 c6 10 00 00       	callq  1051fe <_D3vga7Console9kprintflnFAaYv>

	/// Make sure that the magic number, passed to the kernel, is a valid GRUB magic number.
	/// If it is not, print to the screen that the magic number is invalid and end execution.
	/// Invalid magic numbers can indicate that the system was illegally booted, or that the 
	// system was booted by a bootloader other than GRUB.
	if(magic != MULTIBOOT_BOOTLOADER_MAGIC)
  104138:	81 bd 7c fe ff ff 02 	cmpl   $0x2badb002,-0x184(%rbp)
  10413f:	b0 ad 2b 
  104142:	74 3e                	je     104182 <cmain+0x159>
	{
		kprintfln("Invalid magic number: 0x%x", cast(uint)magic);
  104144:	48 c7 85 b0 fe ff ff 	movq   $0x1a,-0x150(%rbp)
  10414b:	1a 00 00 00 
  10414f:	48 c7 85 b8 fe ff ff 	movq   $0x1170d6,-0x148(%rbp)
  104156:	d6 70 11 00 
  10415a:	8b 8d 7c fe ff ff    	mov    -0x184(%rbp),%ecx
  104160:	48 8b b5 b0 fe ff ff 	mov    -0x150(%rbp),%rsi
  104167:	48 8b 95 b8 fe ff ff 	mov    -0x148(%rbp),%rdx
  10416e:	bf c0 00 12 00       	mov    $0x1200c0,%edi
  104173:	b8 00 00 00 00       	mov    $0x0,%eax
  104178:	e8 81 10 00 00       	callq  1051fe <_D3vga7Console9kprintflnFAaYv>
		return;
  10417d:	e9 f8 05 00 00       	jmpq   10477a <cmain+0x751>
	}

	/// Set MBI to the address of the Multiboot information structure, passed to the kernel
	/// by GRUB.
	mbi = cast(multiboot_info_t*)addr;
  104182:	8b 85 78 fe ff ff    	mov    -0x188(%rbp),%eax
  104188:	48 89 45 d0          	mov    %rax,-0x30(%rbp)

	/// Print out all the values of the flags presented to the operating system by GRUB.
	kprintfln("flags = 0x%x", cast(uint)mbi.flags);
  10418c:	48 8b 45 d0          	mov    -0x30(%rbp),%rax
  104190:	8b 08                	mov    (%rax),%ecx
  104192:	48 c7 85 c0 fe ff ff 	movq   $0xc,-0x140(%rbp)
  104199:	0c 00 00 00 
  10419d:	48 c7 85 c8 fe ff ff 	movq   $0x1170f1,-0x138(%rbp)
  1041a4:	f1 70 11 00 
  1041a8:	48 8b b5 c0 fe ff ff 	mov    -0x140(%rbp),%rsi
  1041af:	48 8b 95 c8 fe ff ff 	mov    -0x138(%rbp),%rdx
  1041b6:	bf c0 00 12 00       	mov    $0x1200c0,%edi
  1041bb:	b8 00 00 00 00       	mov    $0x0,%eax
  1041c0:	e8 39 10 00 00       	callq  1051fe <_D3vga7Console9kprintflnFAaYv>

	/// Are mem_* valid
	if(CHECK_FLAG(mbi.flags, 0))
  1041c5:	48 8b 45 d0          	mov    -0x30(%rbp),%rax
  1041c9:	8b 38                	mov    (%rax),%edi
  1041cb:	be 00 00 00 00       	mov    $0x0,%esi
  1041d0:	e8 2b fe ff ff       	callq  104000 <_D6kernel10CHECK_FLAGFkkZk>
  1041d5:	85 c0                	test   %eax,%eax
  1041d7:	74 4c                	je     104225 <cmain+0x1fc>
		kprintfln("mem_lower = %uKB, mem_upper = %uKB", cast(uint)mbi.mem_lower, cast(uint)mbi.mem_upper);
  1041d9:	48 8b 45 d0          	mov    -0x30(%rbp),%rax
  1041dd:	48 83 c0 08          	add    $0x8,%rax
  1041e1:	8b 08                	mov    (%rax),%ecx
  1041e3:	48 8b 45 d0          	mov    -0x30(%rbp),%rax
  1041e7:	48 83 c0 04          	add    $0x4,%rax
  1041eb:	8b 00                	mov    (%rax),%eax
  1041ed:	48 c7 85 d0 fe ff ff 	movq   $0x22,-0x130(%rbp)
  1041f4:	22 00 00 00 
  1041f8:	48 c7 85 d8 fe ff ff 	movq   $0x117100,-0x128(%rbp)
  1041ff:	00 71 11 00 
  104203:	48 8b b5 d0 fe ff ff 	mov    -0x130(%rbp),%rsi
  10420a:	48 8b 95 d8 fe ff ff 	mov    -0x128(%rbp),%rdx
  104211:	41 89 c8             	mov    %ecx,%r8d
  104214:	89 c1                	mov    %eax,%ecx
  104216:	bf e0 00 12 00       	mov    $0x1200e0,%edi
  10421b:	b8 00 00 00 00       	mov    $0x0,%eax
  104220:	e8 d9 0f 00 00       	callq  1051fe <_D3vga7Console9kprintflnFAaYv>

	/// Check to make sure the boot device is valid.
	if(CHECK_FLAG(mbi.flags, 1))
  104225:	48 8b 45 d0          	mov    -0x30(%rbp),%rax
  104229:	8b 38                	mov    (%rax),%edi
  10422b:	be 01 00 00 00       	mov    $0x1,%esi
  104230:	e8 cb fd ff ff       	callq  104000 <_D6kernel10CHECK_FLAGFkkZk>
  104235:	85 c0                	test   %eax,%eax
  104237:	74 3d                	je     104276 <cmain+0x24d>
		kprintfln("boot_device = 0x%x", cast(uint)mbi.boot_device);
  104239:	48 8b 45 d0          	mov    -0x30(%rbp),%rax
  10423d:	48 83 c0 0c          	add    $0xc,%rax
  104241:	8b 08                	mov    (%rax),%ecx
  104243:	48 c7 85 e0 fe ff ff 	movq   $0x12,-0x120(%rbp)
  10424a:	12 00 00 00 
  10424e:	48 c7 85 e8 fe ff ff 	movq   $0x117123,-0x118(%rbp)
  104255:	23 71 11 00 
  104259:	48 8b b5 e0 fe ff ff 	mov    -0x120(%rbp),%rsi
  104260:	48 8b 95 e8 fe ff ff 	mov    -0x118(%rbp),%rdx
  104267:	bf c0 00 12 00       	mov    $0x1200c0,%edi
  10426c:	b8 00 00 00 00       	mov    $0x0,%eax
  104271:	e8 88 0f 00 00       	callq  1051fe <_D3vga7Console9kprintflnFAaYv>

	/// Is the command line passed?
	if(CHECK_FLAG(mbi.flags, 2))
  104276:	48 8b 45 d0          	mov    -0x30(%rbp),%rax
  10427a:	8b 38                	mov    (%rax),%edi
  10427c:	be 02 00 00 00       	mov    $0x2,%esi
  104281:	e8 7a fd ff ff       	callq  104000 <_D6kernel10CHECK_FLAGFkkZk>
  104286:	85 c0                	test   %eax,%eax
  104288:	74 5f                	je     1042e9 <cmain+0x2c0>
		kprintfln("cmdline = %s", system.toString(cast(char*)mbi.cmdline));
  10428a:	48 8b 45 d0          	mov    -0x30(%rbp),%rax
  10428e:	48 83 c0 10          	add    $0x10,%rax
  104292:	8b 00                	mov    (%rax),%eax
  104294:	89 c0                	mov    %eax,%eax
  104296:	48 89 c6             	mov    %rax,%rsi
  104299:	48 8d bd f0 fe ff ff 	lea    -0x110(%rbp),%rdi
  1042a0:	e8 8b 15 00 00       	callq  105830 <_D6system8toStringFPaZAa>
  1042a5:	48 8b 85 f8 fe ff ff 	mov    -0x108(%rbp),%rax
  1042ac:	48 8b 8d f0 fe ff ff 	mov    -0x110(%rbp),%rcx
  1042b3:	48 c7 85 00 ff ff ff 	movq   $0xc,-0x100(%rbp)
  1042ba:	0c 00 00 00 
  1042be:	48 c7 85 08 ff ff ff 	movq   $0x117136,-0xf8(%rbp)
  1042c5:	36 71 11 00 
  1042c9:	48 8b b5 00 ff ff ff 	mov    -0x100(%rbp),%rsi
  1042d0:	48 8b 95 08 ff ff ff 	mov    -0xf8(%rbp),%rdx
  1042d7:	49 89 c0             	mov    %rax,%r8
  1042da:	bf 00 01 12 00       	mov    $0x120100,%edi
  1042df:	b8 00 00 00 00       	mov    $0x0,%eax
  1042e4:	e8 15 0f 00 00       	callq  1051fe <_D3vga7Console9kprintflnFAaYv>

	/// This if statement calls the function CHECK_FLAG on the flags of the GRUB multiboot header.
	/// It then checks to make sure the flags are valid (indicating proper, secure booting).
	if(CHECK_FLAG(mbi.flags, 3))
  1042e9:	48 8b 45 d0          	mov    -0x30(%rbp),%rax
  1042ed:	8b 38                	mov    (%rax),%edi
  1042ef:	be 03 00 00 00       	mov    $0x3,%esi
  1042f4:	e8 07 fd ff ff       	callq  104000 <_D6kernel10CHECK_FLAGFkkZk>
  1042f9:	85 c0                	test   %eax,%eax
  1042fb:	0f 84 30 01 00 00    	je     104431 <cmain+0x408>
	{
		/// print out the number of modules loaded by GRUB, and the physical memory address of the first module in memory.
		kprintfln("mods_count = %d, mods_addr = 0x%x", cast(int)mbi.mods_count, cast(int)mbi.mods_addr);
  104301:	48 8b 45 d0          	mov    -0x30(%rbp),%rax
  104305:	48 83 c0 18          	add    $0x18,%rax
  104309:	8b 00                	mov    (%rax),%eax
  10430b:	89 c1                	mov    %eax,%ecx
  10430d:	48 8b 45 d0          	mov    -0x30(%rbp),%rax
  104311:	48 83 c0 14          	add    $0x14,%rax
  104315:	8b 00                	mov    (%rax),%eax
  104317:	48 c7 85 10 ff ff ff 	movq   $0x21,-0xf0(%rbp)
  10431e:	21 00 00 00 
  104322:	48 c7 85 18 ff ff ff 	movq   $0x117148,-0xe8(%rbp)
  104329:	48 71 11 00 
  10432d:	48 8b b5 10 ff ff ff 	mov    -0xf0(%rbp),%rsi
  104334:	48 8b 95 18 ff ff ff 	mov    -0xe8(%rbp),%rdx
  10433b:	41 89 c8             	mov    %ecx,%r8d
  10433e:	89 c1                	mov    %eax,%ecx
  104340:	bf 20 01 12 00       	mov    $0x120120,%edi
  104345:	b8 00 00 00 00       	mov    $0x0,%eax
  10434a:	e8 af 0e 00 00       	callq  1051fe <_D3vga7Console9kprintflnFAaYv>

		module_t* mod;
  10434f:	48 c7 45 e0 00 00 00 	movq   $0x0,-0x20(%rbp)
  104356:	00 
		int i;
  104357:	c7 45 dc 00 00 00 00 	movl   $0x0,-0x24(%rbp)

		/// Go through all of the modules loaded by GRUB.
		for(i = 0, mod = cast(module_t*)mbi.mods_addr; i < mbi.mods_count; i++, mod++)
  10435e:	c7 45 dc 00 00 00 00 	movl   $0x0,-0x24(%rbp)
  104365:	48 8b 45 d0          	mov    -0x30(%rbp),%rax
  104369:	48 83 c0 18          	add    $0x18,%rax
  10436d:	8b 00                	mov    (%rax),%eax
  10436f:	89 c0                	mov    %eax,%eax
  104371:	48 89 45 e0          	mov    %rax,-0x20(%rbp)
  104375:	8b 55 dc             	mov    -0x24(%rbp),%edx
  104378:	48 8b 45 d0          	mov    -0x30(%rbp),%rax
  10437c:	8b 40 14             	mov    0x14(%rax),%eax
  10437f:	39 c2                	cmp    %eax,%edx
  104381:	0f 92 c0             	setb   %al
  104384:	83 f0 01             	xor    $0x1,%eax
  104387:	84 c0                	test   %al,%al
  104389:	0f 85 8f 00 00 00    	jne    10441e <cmain+0x3f5>
		{
			/// print out the memory address of the beginning of that module, the address of the end of that module,
			/// and the name of that module.
			kprintfln(" mod_start = 0x%x, mod_end = 0x%x, string = %s",
  10438f:	48 8b 45 e0          	mov    -0x20(%rbp),%rax
  104393:	48 83 c0 08          	add    $0x8,%rax
  104397:	8b 00                	mov    (%rax),%eax
  104399:	89 c0                	mov    %eax,%eax
  10439b:	48 89 c6             	mov    %rax,%rsi
  10439e:	48 8d bd 20 ff ff ff 	lea    -0xe0(%rbp),%rdi
  1043a5:	e8 86 14 00 00       	callq  105830 <_D6system8toStringFPaZAa>
  1043aa:	48 8b 95 28 ff ff ff 	mov    -0xd8(%rbp),%rdx
  1043b1:	48 8b 8d 20 ff ff ff 	mov    -0xe0(%rbp),%rcx
  1043b8:	48 8b 45 e0          	mov    -0x20(%rbp),%rax
  1043bc:	48 83 c0 04          	add    $0x4,%rax
  1043c0:	8b 30                	mov    (%rax),%esi
  1043c2:	48 8b 45 e0          	mov    -0x20(%rbp),%rax
  1043c6:	8b 00                	mov    (%rax),%eax
  1043c8:	48 c7 85 30 ff ff ff 	movq   $0x2e,-0xd0(%rbp)
  1043cf:	2e 00 00 00 
  1043d3:	48 c7 85 38 ff ff ff 	movq   $0x117170,-0xc8(%rbp)
  1043da:	70 71 11 00 
  1043de:	48 8b bd 30 ff ff ff 	mov    -0xd0(%rbp),%rdi
  1043e5:	4c 8b 95 38 ff ff ff 	mov    -0xc8(%rbp),%r10
  1043ec:	48 89 14 24          	mov    %rdx,(%rsp)
  1043f0:	49 89 c9             	mov    %rcx,%r9
  1043f3:	41 89 f0             	mov    %esi,%r8d
  1043f6:	89 c1                	mov    %eax,%ecx
  1043f8:	48 89 fe             	mov    %rdi,%rsi
  1043fb:	4c 89 d2             	mov    %r10,%rdx
  1043fe:	bf 40 01 12 00       	mov    $0x120140,%edi
  104403:	b8 00 00 00 00       	mov    $0x0,%eax
  104408:	e8 f1 0d 00 00       	callq  1051fe <_D3vga7Console9kprintflnFAaYv>
  10440d:	ff 45 dc             	incl   -0x24(%rbp)
  104410:	b8 10 00 00 00       	mov    $0x10,%eax
  104415:	48 01 45 e0          	add    %rax,-0x20(%rbp)
  104419:	e9 57 ff ff ff       	jmpq   104375 <cmain+0x34c>
				cast(uint)mod.mod_end,
				system.toString(cast(char*)mod.string));
		}

		/// Use the jumpTo() method (see below) to execute the first module.
		jumpTo(0, mbi);
  10441e:	48 8b 75 d0          	mov    -0x30(%rbp),%rsi
  104422:	bf 00 00 00 00       	mov    $0x0,%edi
  104427:	e8 50 03 00 00       	callq  10477c <_D6kernel6jumpToFkPS9multiboot16multiboot_info_tZv>
		return;
  10442c:	e9 49 03 00 00       	jmpq   10477a <cmain+0x751>
	}

	/// Bits 4 and 5 are mutually exclusive!
	if(CHECK_FLAG(mbi.flags, 4) && CHECK_FLAG(mbi.flags, 5))
  104431:	48 8b 45 d0          	mov    -0x30(%rbp),%rax
  104435:	8b 38                	mov    (%rax),%edi
  104437:	be 04 00 00 00       	mov    $0x4,%esi
  10443c:	e8 bf fb ff ff       	callq  104000 <_D6kernel10CHECK_FLAGFkkZk>
  104441:	85 c0                	test   %eax,%eax
  104443:	74 4c                	je     104491 <cmain+0x468>
  104445:	48 8b 45 d0          	mov    -0x30(%rbp),%rax
  104449:	8b 38                	mov    (%rax),%edi
  10444b:	be 05 00 00 00       	mov    $0x5,%esi
  104450:	e8 ab fb ff ff       	callq  104000 <_D6kernel10CHECK_FLAGFkkZk>
  104455:	85 c0                	test   %eax,%eax
  104457:	74 38                	je     104491 <cmain+0x468>
	{
		kprintfln("Both bits 4 and 5 are set.");
  104459:	48 c7 85 40 ff ff ff 	movq   $0x1a,-0xc0(%rbp)
  104460:	1a 00 00 00 
  104464:	48 c7 85 48 ff ff ff 	movq   $0x11719f,-0xb8(%rbp)
  10446b:	9f 71 11 00 
  10446f:	48 8b b5 40 ff ff ff 	mov    -0xc0(%rbp),%rsi
  104476:	48 8b 95 48 ff ff ff 	mov    -0xb8(%rbp),%rdx
  10447d:	bf a0 00 12 00       	mov    $0x1200a0,%edi
  104482:	b8 00 00 00 00       	mov    $0x0,%eax
  104487:	e8 72 0d 00 00       	callq  1051fe <_D3vga7Console9kprintflnFAaYv>
		return;
  10448c:	e9 e9 02 00 00       	jmpq   10477a <cmain+0x751>
	}

	/// Check to make sure the symbol table of the compiled kernel file is valid.
	if(CHECK_FLAG(mbi.flags, 4))
  104491:	48 8b 45 d0          	mov    -0x30(%rbp),%rax
  104495:	8b 38                	mov    (%rax),%edi
  104497:	be 04 00 00 00       	mov    $0x4,%esi
  10449c:	e8 5f fb ff ff       	callq  104000 <_D6kernel10CHECK_FLAGFkkZk>
  1044a1:	85 c0                	test   %eax,%eax
  1044a3:	74 61                	je     104506 <cmain+0x4dd>
	{
		/// get a pointer to the symbol table, returned by GRUB in the multiboot header.
		aout_symbol_table_t* aout_sym = &(mbi.aout_sym);
  1044a5:	48 8b 45 d0          	mov    -0x30(%rbp),%rax
  1044a9:	48 83 c0 1c          	add    $0x1c,%rax
  1044ad:	48 89 45 e8          	mov    %rax,-0x18(%rbp)

		/// If it is valid, print out information about the compiled kernel's symbol table.
		kprintfln("aout_symbol_table: tabsize = 0x%0x, strsize = 0x%x, addr = 0x%x",
  1044b1:	48 8b 45 e8          	mov    -0x18(%rbp),%rax
  1044b5:	48 83 c0 08          	add    $0x8,%rax
  1044b9:	8b 08                	mov    (%rax),%ecx
  1044bb:	48 8b 45 e8          	mov    -0x18(%rbp),%rax
  1044bf:	48 83 c0 04          	add    $0x4,%rax
  1044c3:	8b 38                	mov    (%rax),%edi
  1044c5:	48 8b 45 e8          	mov    -0x18(%rbp),%rax
  1044c9:	8b 00                	mov    (%rax),%eax
  1044cb:	48 c7 85 50 ff ff ff 	movq   $0x3f,-0xb0(%rbp)
  1044d2:	3f 00 00 00 
  1044d6:	48 c7 85 58 ff ff ff 	movq   $0x1171c0,-0xa8(%rbp)
  1044dd:	c0 71 11 00 
  1044e1:	48 8b b5 50 ff ff ff 	mov    -0xb0(%rbp),%rsi
  1044e8:	48 8b 95 58 ff ff ff 	mov    -0xa8(%rbp),%rdx
  1044ef:	41 89 c9             	mov    %ecx,%r9d
  1044f2:	41 89 f8             	mov    %edi,%r8d
  1044f5:	89 c1                	mov    %eax,%ecx
  1044f7:	bf 60 01 12 00       	mov    $0x120160,%edi
  1044fc:	b8 00 00 00 00       	mov    $0x0,%eax
  104501:	e8 f8 0c 00 00       	callq  1051fe <_D3vga7Console9kprintflnFAaYv>
			cast(uint)aout_sym.strsize,
			cast(uint)aout_sym.addr);
	}

	/// Check to make sure the section header of the compiled kernel is valid.
	if(CHECK_FLAG(mbi.flags, 5))
  104506:	48 8b 45 d0          	mov    -0x30(%rbp),%rax
  10450a:	8b 38                	mov    (%rax),%edi
  10450c:	be 05 00 00 00       	mov    $0x5,%esi
  104511:	e8 ea fa ff ff       	callq  104000 <_D6kernel10CHECK_FLAGFkkZk>
  104516:	85 c0                	test   %eax,%eax
  104518:	74 73                	je     10458d <cmain+0x564>
	{
		elf_section_header_table_t* elf_sec = &(mbi.elf_sec);
  10451a:	48 8b 45 d0          	mov    -0x30(%rbp),%rax
  10451e:	48 83 c0 1c          	add    $0x1c,%rax
  104522:	48 89 45 f0          	mov    %rax,-0x10(%rbp)

		/// If it is valid, print out information about the compiled kernel's section table.
		kprintfln("elf_sec: num = %u, size = 0x%x, addr = 0x%x, shndx = 0x%x",
  104526:	48 8b 45 f0          	mov    -0x10(%rbp),%rax
  10452a:	48 83 c0 0c          	add    $0xc,%rax
  10452e:	44 8b 00             	mov    (%rax),%r8d
  104531:	48 8b 45 f0          	mov    -0x10(%rbp),%rax
  104535:	48 83 c0 08          	add    $0x8,%rax
  104539:	8b 10                	mov    (%rax),%edx
  10453b:	48 8b 45 f0          	mov    -0x10(%rbp),%rax
  10453f:	48 83 c0 04          	add    $0x4,%rax
  104543:	8b 08                	mov    (%rax),%ecx
  104545:	48 8b 45 f0          	mov    -0x10(%rbp),%rax
  104549:	8b 00                	mov    (%rax),%eax
  10454b:	48 c7 85 60 ff ff ff 	movq   $0x39,-0xa0(%rbp)
  104552:	39 00 00 00 
  104556:	48 c7 85 68 ff ff ff 	movq   $0x117200,-0x98(%rbp)
  10455d:	00 72 11 00 
  104561:	48 8b b5 60 ff ff ff 	mov    -0xa0(%rbp),%rsi
  104568:	48 8b bd 68 ff ff ff 	mov    -0x98(%rbp),%rdi
  10456f:	44 89 04 24          	mov    %r8d,(%rsp)
  104573:	41 89 d1             	mov    %edx,%r9d
  104576:	41 89 c8             	mov    %ecx,%r8d
  104579:	89 c1                	mov    %eax,%ecx
  10457b:	48 89 fa             	mov    %rdi,%rdx
  10457e:	bf 80 01 12 00       	mov    $0x120180,%edi
  104583:	b8 00 00 00 00       	mov    $0x0,%eax
  104588:	e8 71 0c 00 00       	callq  1051fe <_D3vga7Console9kprintflnFAaYv>
			cast(uint)elf_sec.num, cast(uint)elf_sec.size,
			cast(uint)elf_sec.addr, cast(uint)elf_sec.shndx);
	}

	/// This checks to make sure that the memory map of the bootloader is valid.
	if(CHECK_FLAG(mbi.flags, 6))
  10458d:	48 8b 45 d0          	mov    -0x30(%rbp),%rax
  104591:	8b 38                	mov    (%rax),%edi
  104593:	be 06 00 00 00       	mov    $0x6,%esi
  104598:	e8 63 fa ff ff       	callq  104000 <_D6kernel10CHECK_FLAGFkkZk>
  10459d:	85 c0                	test   %eax,%eax
  10459f:	0f 84 17 01 00 00    	je     1046bc <cmain+0x693>
	{
		kprintfln("mmap_addr = 0x%x, mmap_length = 0x%x", cast(uint)mbi.mmap_addr, cast(uint)mbi.mmap_length);
  1045a5:	48 8b 45 d0          	mov    -0x30(%rbp),%rax
  1045a9:	48 83 c0 2c          	add    $0x2c,%rax
  1045ad:	8b 08                	mov    (%rax),%ecx
  1045af:	48 8b 45 d0          	mov    -0x30(%rbp),%rax
  1045b3:	48 83 c0 30          	add    $0x30,%rax
  1045b7:	8b 00                	mov    (%rax),%eax
  1045b9:	48 c7 85 70 ff ff ff 	movq   $0x24,-0x90(%rbp)
  1045c0:	24 00 00 00 
  1045c4:	48 c7 85 78 ff ff ff 	movq   $0x117240,-0x88(%rbp)
  1045cb:	40 72 11 00 
  1045cf:	48 8b b5 70 ff ff ff 	mov    -0x90(%rbp),%rsi
  1045d6:	48 8b 95 78 ff ff ff 	mov    -0x88(%rbp),%rdx
  1045dd:	41 89 c8             	mov    %ecx,%r8d
  1045e0:	89 c1                	mov    %eax,%ecx
  1045e2:	bf e0 00 12 00       	mov    $0x1200e0,%edi
  1045e7:	b8 00 00 00 00       	mov    $0x0,%eax
  1045ec:	e8 0d 0c 00 00       	callq  1051fe <_D3vga7Console9kprintflnFAaYv>

		for(memory_map_t* mmap = cast(memory_map_t*)mbi.mmap_addr;
  1045f1:	48 8b 45 d0          	mov    -0x30(%rbp),%rax
  1045f5:	48 83 c0 30          	add    $0x30,%rax
  1045f9:	8b 00                	mov    (%rax),%eax
  1045fb:	89 c0                	mov    %eax,%eax
  1045fd:	48 89 45 f8          	mov    %rax,-0x8(%rbp)
  104601:	48 8b 45 f8          	mov    -0x8(%rbp),%rax
  104605:	89 c1                	mov    %eax,%ecx
  104607:	48 8b 45 d0          	mov    -0x30(%rbp),%rax
  10460b:	8b 50 30             	mov    0x30(%rax),%edx
  10460e:	48 8b 45 d0          	mov    -0x30(%rbp),%rax
  104612:	8b 40 2c             	mov    0x2c(%rax),%eax
  104615:	8d 04 02             	lea    (%rdx,%rax,1),%eax
  104618:	39 c1                	cmp    %eax,%ecx
  10461a:	0f 92 c0             	setb   %al
  10461d:	83 f0 01             	xor    $0x1,%eax
  104620:	84 c0                	test   %al,%al
  104622:	0f 85 94 00 00 00    	jne    1046bc <cmain+0x693>
			cast(uint)mmap < mbi.mmap_addr + mbi.mmap_length;
			mmap = cast(memory_map_t*)(cast(uint)mmap + mmap.size + uint.sizeof))
		{
			kprintfln(" size = 0x%x, base_addr = 0x%x%x, length = 0x%x%x, type = 0x%x",
  104628:	48 8b 45 f8          	mov    -0x8(%rbp),%rax
  10462c:	48 83 c0 14          	add    $0x14,%rax
  104630:	8b 38                	mov    (%rax),%edi
  104632:	48 8b 45 f8          	mov    -0x8(%rbp),%rax
  104636:	48 83 c0 0c          	add    $0xc,%rax
  10463a:	44 8b 00             	mov    (%rax),%r8d
  10463d:	48 8b 45 f8          	mov    -0x8(%rbp),%rax
  104641:	48 83 c0 10          	add    $0x10,%rax
  104645:	44 8b 08             	mov    (%rax),%r9d
  104648:	48 8b 45 f8          	mov    -0x8(%rbp),%rax
  10464c:	48 83 c0 04          	add    $0x4,%rax
  104650:	44 8b 10             	mov    (%rax),%r10d
  104653:	48 8b 45 f8          	mov    -0x8(%rbp),%rax
  104657:	48 83 c0 08          	add    $0x8,%rax
  10465b:	44 8b 18             	mov    (%rax),%r11d
  10465e:	48 8b 45 f8          	mov    -0x8(%rbp),%rax
  104662:	8b 08                	mov    (%rax),%ecx
  104664:	48 c7 45 80 3e 00 00 	movq   $0x3e,-0x80(%rbp)
  10466b:	00 
  10466c:	48 c7 45 88 68 72 11 	movq   $0x117268,-0x78(%rbp)
  104673:	00 
  104674:	48 8b 75 80          	mov    -0x80(%rbp),%rsi
  104678:	48 8b 55 88          	mov    -0x78(%rbp),%rdx
  10467c:	89 7c 24 10          	mov    %edi,0x10(%rsp)
  104680:	44 89 44 24 08       	mov    %r8d,0x8(%rsp)
  104685:	44 89 0c 24          	mov    %r9d,(%rsp)
  104689:	45 89 d1             	mov    %r10d,%r9d
  10468c:	45 89 d8             	mov    %r11d,%r8d
  10468f:	bf a0 01 12 00       	mov    $0x1201a0,%edi
  104694:	b8 00 00 00 00       	mov    $0x0,%eax
  104699:	e8 60 0b 00 00       	callq  1051fe <_D3vga7Console9kprintflnFAaYv>
  10469e:	48 8b 45 f8          	mov    -0x8(%rbp),%rax
  1046a2:	89 c2                	mov    %eax,%edx
  1046a4:	48 8b 45 f8          	mov    -0x8(%rbp),%rax
  1046a8:	8b 00                	mov    (%rax),%eax
  1046aa:	8d 04 02             	lea    (%rdx,%rax,1),%eax
  1046ad:	89 c0                	mov    %eax,%eax
  1046af:	48 83 c0 04          	add    $0x4,%rax
  1046b3:	48 89 45 f8          	mov    %rax,-0x8(%rbp)
  1046b7:	e9 45 ff ff ff       	jmpq   104601 <cmain+0x5d8>
				cast(uint)mmap.type);
		}
	}

	/// Print out our slogan. Literally, "We came, we saw, we conquered."
	Console.setColors(Color.Yellow, Color.LowBlue);
  1046bc:	be 01 00 00 00       	mov    $0x1,%esi
  1046c1:	bf 0e 00 00 00       	mov    $0xe,%edi
  1046c6:	e8 96 03 00 00       	callq  104a61 <_D3vga7Console9setColorsFE3vga5ColorE3vga5ColorZv>
	kprintfln("\nVenimus, vidimus, vicimus!  --PittGeeks");
  1046cb:	48 c7 45 90 28 00 00 	movq   $0x28,-0x70(%rbp)
  1046d2:	00 
  1046d3:	48 c7 45 98 a8 72 11 	movq   $0x1172a8,-0x68(%rbp)
  1046da:	00 
  1046db:	48 8b 75 90          	mov    -0x70(%rbp),%rsi
  1046df:	48 8b 55 98          	mov    -0x68(%rbp),%rdx
  1046e3:	bf a0 00 12 00       	mov    $0x1200a0,%edi
  1046e8:	b8 00 00 00 00       	mov    $0x0,%eax
  1046ed:	e8 0c 0b 00 00       	callq  1051fe <_D3vga7Console9kprintflnFAaYv>
	Console.resetColors();
  1046f2:	e8 14 03 00 00       	callq  104a0b <_D3vga7Console11resetColorsFZv>

	/// Print out memory information, including the size of system integers. This
	/// will let us debug problems in changing from 32-bit to 64-bit.
	kprintfln("(int*).sizeof == %d", (int*).sizeof);
  1046f7:	48 c7 45 a0 13 00 00 	movq   $0x13,-0x60(%rbp)
  1046fe:	00 
  1046ff:	48 c7 45 a8 d1 72 11 	movq   $0x1172d1,-0x58(%rbp)
  104706:	00 
  104707:	48 8b 75 a0          	mov    -0x60(%rbp),%rsi
  10470b:	48 8b 55 a8          	mov    -0x58(%rbp),%rdx
  10470f:	b9 08 00 00 00       	mov    $0x8,%ecx
  104714:	bf c0 01 12 00       	mov    $0x1201c0,%edi
  104719:	b8 00 00 00 00       	mov    $0x0,%eax
  10471e:	e8 db 0a 00 00       	callq  1051fe <_D3vga7Console9kprintflnFAaYv>
	// kprintfln("TESTING SYSCALL INTERRUPT");
	// asm{int 128;}
	
	/// This is alternate code, attempting to call a system call without a 128 interrupt.
	// first, set a syscall type into eax.
	kprintf("SETTING EAX TO 0\n");
  104723:	48 c7 45 b0 11 00 00 	movq   $0x11,-0x50(%rbp)
  10472a:	00 
  10472b:	48 c7 45 b8 e5 72 11 	movq   $0x1172e5,-0x48(%rbp)
  104732:	00 
  104733:	48 8b 75 b0          	mov    -0x50(%rbp),%rsi
  104737:	48 8b 55 b8          	mov    -0x48(%rbp),%rdx
  10473b:	bf a0 00 12 00       	mov    $0x1200a0,%edi
  104740:	b8 00 00 00 00       	mov    $0x0,%eax
  104745:	e8 3f 09 00 00       	callq  105089 <_D3vga7Console7kprintfFAaYv>
	asm {
		"mov %0, %%eax":
		/* no output */:
		"r" 1:
		"eax";
	}
  10474a:	ba 01 00 00 00       	mov    $0x1,%edx
  10474f:	89 d0                	mov    %edx,%eax

	kprintf("CALLING THE SYSCALL.\n");
  104751:	48 c7 45 c0 15 00 00 	movq   $0x15,-0x40(%rbp)
  104758:	00 
  104759:	48 c7 45 c8 f7 72 11 	movq   $0x1172f7,-0x38(%rbp)
  104760:	00 
  104761:	48 8b 75 c0          	mov    -0x40(%rbp),%rsi
  104765:	48 8b 55 c8          	mov    -0x38(%rbp),%rdx
  104769:	bf a0 00 12 00       	mov    $0x1200a0,%edi
  10476e:	b8 00 00 00 00       	mov    $0x0,%eax
  104773:	e8 11 09 00 00       	callq  105089 <_D3vga7Console7kprintfFAaYv>
	asm {
		"syscall";
	}
  104778:	0f 05                	syscall 
	
	/// CURRENT TEST CODE
	// int a = 0, b = cast(int) addr;
	// int foo = b/a;
	// kprintfln("%d", foo);
}
  10477a:	c9                   	leaveq 
  10477b:	c3                   	retq   

000000000010477c <_D6kernel6jumpToFkPS9multiboot16multiboot_info_tZv>:
	Params:
		moduleNumber = The number of the module the kernel wishes to execute. Integer value.
		mbi = A pointer to the multiboot information structure, allowing this function
			to interperet the module data properly.
*/
void jumpTo(uint moduleNumber, multiboot_info_t* mbi)
  10477c:	55                   	push   %rbp
  10477d:	48 89 e5             	mov    %rsp,%rbp
  104780:	48 81 ec a0 00 00 00 	sub    $0xa0,%rsp
  104787:	89 7d 9c             	mov    %edi,-0x64(%rbp)
  10478a:	48 89 75 90          	mov    %rsi,-0x70(%rbp)
{
	/// get a pointer to the loaded module.
	module_t* mod = &(cast(module_t*)mbi.mods_addr)[moduleNumber];
  10478e:	48 8b 45 90          	mov    -0x70(%rbp),%rax
  104792:	48 83 c0 18          	add    $0x18,%rax
  104796:	8b 00                	mov    (%rax),%eax
  104798:	89 c0                	mov    %eax,%eax
  10479a:	48 89 c2             	mov    %rax,%rdx
  10479d:	8b 45 9c             	mov    -0x64(%rbp),%eax
  1047a0:	48 c1 e0 04          	shl    $0x4,%rax
  1047a4:	48 8d 04 02          	lea    (%rdx,%rax,1),%rax
  1047a8:	48 89 45 f8          	mov    %rax,-0x8(%rbp)
	
	/// get the memory address of the module's starting point.
	/// also, get a pointer to the module's ELF header.
	void* start = cast(void*)mod.mod_start;
  1047ac:	48 8b 45 f8          	mov    -0x8(%rbp),%rax
  1047b0:	8b 00                	mov    (%rax),%eax
  1047b2:	89 c0                	mov    %eax,%eax
  1047b4:	48 89 45 f0          	mov    %rax,-0x10(%rbp)
	Elf64_Ehdr* header = cast(Elf64_Ehdr*)start;
  1047b8:	48 8b 45 f0          	mov    -0x10(%rbp),%rax
  1047bc:	48 89 45 e8          	mov    %rax,-0x18(%rbp)

	/// find all the sections in the module's ELF Section header.
	Elf64_Shdr[] sections = (cast(Elf64_Shdr*)(start + header.e_shoff))[0 .. header.e_shnum];
  1047c0:	48 8b 45 e8          	mov    -0x18(%rbp),%rax
  1047c4:	48 83 c0 3c          	add    $0x3c,%rax
  1047c8:	0f b7 00             	movzwl (%rax),%eax
  1047cb:	0f b7 d0             	movzwl %ax,%edx
  1047ce:	48 8b 45 e8          	mov    -0x18(%rbp),%rax
  1047d2:	48 83 c0 28          	add    $0x28,%rax
  1047d6:	48 8b 00             	mov    (%rax),%rax
  1047d9:	48 03 45 f0          	add    -0x10(%rbp),%rax
  1047dd:	48 89 55 a0          	mov    %rdx,-0x60(%rbp)
  1047e1:	48 89 45 a8          	mov    %rax,-0x58(%rbp)
	Elf64_Shdr* strTable = &sections[header.e_shstrndx];
  1047e5:	48 8b 45 a8          	mov    -0x58(%rbp),%rax
  1047e9:	48 89 85 68 ff ff ff 	mov    %rax,-0x98(%rbp)
  1047f0:	48 8b 45 e8          	mov    -0x18(%rbp),%rax
  1047f4:	48 83 c0 3e          	add    $0x3e,%rax
  1047f8:	0f b7 00             	movzwl (%rax),%eax
  1047fb:	0f b7 c0             	movzwl %ax,%eax
  1047fe:	48 89 85 78 ff ff ff 	mov    %rax,-0x88(%rbp)
  104805:	48 8b 45 a0          	mov    -0x60(%rbp),%rax
  104809:	48 39 85 78 ff ff ff 	cmp    %rax,-0x88(%rbp)
  104810:	73 10                	jae    104822 <_D6kernel6jumpToFkPS9multiboot16multiboot_info_tZv+0xa6>
  104812:	48 8b 85 78 ff ff ff 	mov    -0x88(%rbp),%rax
  104819:	48 89 85 70 ff ff ff 	mov    %rax,-0x90(%rbp)
  104820:	eb 22                	jmp    104844 <_D6kernel6jumpToFkPS9multiboot16multiboot_info_tZv+0xc8>
  104822:	48 c7 45 b0 08 00 00 	movq   $0x8,-0x50(%rbp)
  104829:	00 
  10482a:	48 c7 45 b8 0d 73 11 	movq   $0x11730d,-0x48(%rbp)
  104831:	00 
  104832:	48 8b 7d b0          	mov    -0x50(%rbp),%rdi
  104836:	48 8b 75 b8          	mov    -0x48(%rbp),%rsi
  10483a:	ba 16 01 00 00       	mov    $0x116,%edx
  10483f:	e8 f1 04 01 00       	callq  114d35 <_d_array_bounds>
  104844:	48 8b 85 70 ff ff ff 	mov    -0x90(%rbp),%rax
  10484b:	48 c1 e0 06          	shl    $0x6,%rax
  10484f:	48 03 85 68 ff ff ff 	add    -0x98(%rbp),%rax
  104856:	48 89 45 e0          	mov    %rax,-0x20(%rbp)
	
	/// go to the first section in the section header.
	Elf64_Shdr* text = &sections[1];
  10485a:	48 8b 45 a8          	mov    -0x58(%rbp),%rax
  10485e:	48 89 45 80          	mov    %rax,-0x80(%rbp)
  104862:	48 8b 45 a0          	mov    -0x60(%rbp),%rax
  104866:	48 83 f8 01          	cmp    $0x1,%rax
  10486a:	76 0a                	jbe    104876 <_D6kernel6jumpToFkPS9multiboot16multiboot_info_tZv+0xfa>
  10486c:	48 c7 45 88 01 00 00 	movq   $0x1,-0x78(%rbp)
  104873:	00 
  104874:	eb 22                	jmp    104898 <_D6kernel6jumpToFkPS9multiboot16multiboot_info_tZv+0x11c>
  104876:	48 c7 45 c0 08 00 00 	movq   $0x8,-0x40(%rbp)
  10487d:	00 
  10487e:	48 c7 45 c8 0d 73 11 	movq   $0x11730d,-0x38(%rbp)
  104885:	00 
  104886:	48 8b 7d c0          	mov    -0x40(%rbp),%rdi
  10488a:	48 8b 75 c8          	mov    -0x38(%rbp),%rsi
  10488e:	ba 19 01 00 00       	mov    $0x119,%edx
  104893:	e8 9d 04 01 00       	callq  114d35 <_d_array_bounds>
  104898:	48 8b 45 88          	mov    -0x78(%rbp),%rax
  10489c:	48 c1 e0 06          	shl    $0x6,%rax
  1048a0:	48 03 45 80          	add    -0x80(%rbp),%rax
  1048a4:	48 89 45 d8          	mov    %rax,-0x28(%rbp)

	/// declare a void function which can be called to jump to the memory position of
	/// __start().
	void function() entry = cast(void function())(start + text.sh_offset);
  1048a8:	48 8b 45 d8          	mov    -0x28(%rbp),%rax
  1048ac:	48 83 c0 18          	add    $0x18,%rax
  1048b0:	48 8b 00             	mov    (%rax),%rax
  1048b3:	48 03 45 f0          	add    -0x10(%rbp),%rax
  1048b7:	48 89 45 d0          	mov    %rax,-0x30(%rbp)
	entry();
  1048bb:	48 8b 45 d0          	mov    -0x30(%rbp),%rax
  1048bf:	ff d0                	callq  *%rax
}
  1048c1:	c9                   	leaveq 
  1048c2:	c3                   	retq   
  1048c3:	90                   	nop    

00000000001048c4 <_D3vga7Console3clsFZv>:
	private ubyte colors = DefaultColors;

	/**
	This method clears the screen and returns the cursor to its default position.
	*/
	void cls()
  1048c4:	55                   	push   %rbp
  1048c5:	48 89 e5             	mov    %rsp,%rbp
	{
		/// Set all pieces of video memory to nothing.
		for(int i = 0; i < Columns * Lines * 2; i++)
  1048c8:	c7 45 fc 00 00 00 00 	movl   $0x0,-0x4(%rbp)
  1048cf:	8b 45 fc             	mov    -0x4(%rbp),%eax
  1048d2:	89 c2                	mov    %eax,%edx
  1048d4:	b8 80 07 00 00       	mov    $0x780,%eax
  1048d9:	01 c0                	add    %eax,%eax
  1048db:	39 c2                	cmp    %eax,%edx
  1048dd:	0f 92 c0             	setb   %al
  1048e0:	83 f0 01             	xor    $0x1,%eax
  1048e3:	84 c0                	test   %al,%al
  1048e5:	75 1d                	jne    104904 <_D3vga7Console3clsFZv+0x40>
			volatile *(VideoMem + i) = 0;
  1048e7:	48 8b 15 f2 b8 01 00 	mov    0x1b8f2(%rip),%rdx        # 1201e0 <_D3vga7Console8VideoMemPh>
  1048ee:	8b 45 fc             	mov    -0x4(%rbp),%eax
  1048f1:	48 98                	cltq   
  1048f3:	48 8d 04 02          	lea    (%rdx,%rax,1),%rax
  1048f7:	c6 00 00             	movb   $0x0,(%rax)
  1048fa:	8b 45 fc             	mov    -0x4(%rbp),%eax
  1048fd:	ff c0                	inc    %eax
  1048ff:	89 45 fc             	mov    %eax,-0x4(%rbp)
  104902:	eb cb                	jmp    1048cf <_D3vga7Console3clsFZv+0xb>

		xpos = 0;
  104904:	c7 05 72 f5 01 00 00 	movl   $0x0,0x1f572(%rip)        # 123e80 <_D3vga7Console4xposi>
  10490b:	00 00 00 
		ypos = 0;
  10490e:	c7 05 6c f5 01 00 00 	movl   $0x0,0x1f56c(%rip)        # 123e84 <_D3vga7Console4yposi>
  104915:	00 00 00 
	}
  104918:	c9                   	leaveq 
  104919:	c3                   	retq   

000000000010491a <_D3vga7Console7putcharFaZv>:
	/**
	This method places a character (c) on the screen at the current cursor location.
		Params:
			c = The character you wish to print to the screen.
	*/
	void putchar(char c)
  10491a:	55                   	push   %rbp
  10491b:	48 89 e5             	mov    %rsp,%rbp
  10491e:	48 83 ec 10          	sub    $0x10,%rsp
  104922:	40 88 7d ff          	mov    %dil,-0x1(%rbp)
	{
		/// Check to make sure that c is not a standard escape sequence.
		if(c == '\n' || c == '\r')
  104926:	0f b6 45 ff          	movzbl -0x1(%rbp),%eax
  10492a:	0f b6 c0             	movzbl %al,%eax
  10492d:	83 f8 0a             	cmp    $0xa,%eax
  104930:	74 0c                	je     10493e <_D3vga7Console7putcharFaZv+0x24>
  104932:	0f b6 45 ff          	movzbl -0x1(%rbp),%eax
  104936:	0f b6 c0             	movzbl %al,%eax
  104939:	83 f8 0d             	cmp    $0xd,%eax
  10493c:	75 36                	jne    104974 <_D3vga7Console7putcharFaZv+0x5a>
		{
			/// If it is, increase the cursor's y-position, thus creating a new line.
			newline:
				xpos = 0;
  10493e:	c7 05 38 f5 01 00 00 	movl   $0x0,0x1f538(%rip)        # 123e80 <_D3vga7Console4xposi>
  104945:	00 00 00 
				ypos++;
  104948:	8b 05 36 f5 01 00    	mov    0x1f536(%rip),%eax        # 123e84 <_D3vga7Console4yposi>
  10494e:	ff c0                	inc    %eax
  104950:	89 05 2e f5 01 00    	mov    %eax,0x1f52e(%rip)        # 123e84 <_D3vga7Console4yposi>

				/// If the printing has reached the end of the screen, set the y-cursor to the top of the screen.
				if(ypos >= Lines)
  104956:	8b 05 28 f5 01 00    	mov    0x1f528(%rip),%eax        # 123e84 <_D3vga7Console4yposi>
  10495c:	83 f8 18             	cmp    $0x18,%eax
  10495f:	0f 82 a4 00 00 00    	jb     104a09 <_D3vga7Console7putcharFaZv+0xef>
					scrollDisplay(1);
  104965:	bf 01 00 00 00       	mov    $0x1,%edi
  10496a:	e8 18 01 00 00       	callq  104a87 <_D3vga7Console13scrollDisplayFiZv>

				return;
  10496f:	e9 95 00 00 00       	jmpq   104a09 <_D3vga7Console7putcharFaZv+0xef>
		}

		/// Set the current piece of video memory to the character to print.
		volatile *(VideoMem + (xpos + ypos * Columns) * 2) = c & 0xFF;
  104974:	48 8b 35 65 b8 01 00 	mov    0x1b865(%rip),%rsi        # 1201e0 <_D3vga7Console8VideoMemPh>
  10497b:	8b 05 ff f4 01 00    	mov    0x1f4ff(%rip),%eax        # 123e80 <_D3vga7Console4xposi>
  104981:	89 c1                	mov    %eax,%ecx
  104983:	8b 05 fb f4 01 00    	mov    0x1f4fb(%rip),%eax        # 123e84 <_D3vga7Console4yposi>
  104989:	89 c2                	mov    %eax,%edx
  10498b:	c1 e2 04             	shl    $0x4,%edx
  10498e:	8d 04 95 00 00 00 00 	lea    0x0(,%rdx,4),%eax
  104995:	8d 04 02             	lea    (%rdx,%rax,1),%eax
  104998:	8d 04 01             	lea    (%rcx,%rax,1),%eax
  10499b:	01 c0                	add    %eax,%eax
  10499d:	89 c0                	mov    %eax,%eax
  10499f:	48 8d 0c 06          	lea    (%rsi,%rax,1),%rcx
  1049a3:	0f b6 55 ff          	movzbl -0x1(%rbp),%edx
  1049a7:	b8 ff ff ff ff       	mov    $0xffffffff,%eax
  1049ac:	21 d0                	and    %edx,%eax
  1049ae:	88 01                	mov    %al,(%rcx)
		volatile *(VideoMem + (xpos + ypos * Columns) * 2 + 1) = colors;
  1049b0:	48 8b 35 29 b8 01 00 	mov    0x1b829(%rip),%rsi        # 1201e0 <_D3vga7Console8VideoMemPh>
  1049b7:	8b 05 c3 f4 01 00    	mov    0x1f4c3(%rip),%eax        # 123e80 <_D3vga7Console4xposi>
  1049bd:	89 c1                	mov    %eax,%ecx
  1049bf:	8b 05 bf f4 01 00    	mov    0x1f4bf(%rip),%eax        # 123e84 <_D3vga7Console4yposi>
  1049c5:	89 c2                	mov    %eax,%edx
  1049c7:	c1 e2 04             	shl    $0x4,%edx
  1049ca:	8d 04 95 00 00 00 00 	lea    0x0(,%rdx,4),%eax
  1049d1:	8d 04 02             	lea    (%rdx,%rax,1),%eax
  1049d4:	8d 04 01             	lea    (%rcx,%rax,1),%eax
  1049d7:	01 c0                	add    %eax,%eax
  1049d9:	89 c0                	mov    %eax,%eax
  1049db:	48 8d 04 06          	lea    (%rsi,%rax,1),%rax
  1049df:	48 8d 50 01          	lea    0x1(%rax),%rdx
  1049e3:	0f b6 05 fe b7 01 00 	movzbl 0x1b7fe(%rip),%eax        # 1201e8 <_D3vga7Console6colorsh>
  1049ea:	88 02                	mov    %al,(%rdx)
	
		/// Increase the cursor position.
		xpos++;
  1049ec:	8b 05 8e f4 01 00    	mov    0x1f48e(%rip),%eax        # 123e80 <_D3vga7Console4xposi>
  1049f2:	ff c0                	inc    %eax
  1049f4:	89 05 86 f4 01 00    	mov    %eax,0x1f486(%rip)        # 123e80 <_D3vga7Console4xposi>
	
		/// If you have reached the end of the screen, create a new line (declared above).
		if(xpos >= Columns)
  1049fa:	8b 05 80 f4 01 00    	mov    0x1f480(%rip),%eax        # 123e80 <_D3vga7Console4xposi>
  104a00:	83 f8 50             	cmp    $0x50,%eax
  104a03:	0f 83 35 ff ff ff    	jae    10493e <_D3vga7Console7putcharFaZv+0x24>
			goto newline;
	}
  104a09:	c9                   	leaveq 
  104a0a:	c3                   	retq   

0000000000104a0b <_D3vga7Console11resetColorsFZv>:
	
	/**
	This function sets the console colors back to their defaults.
	*/
	void resetColors()
  104a0b:	55                   	push   %rbp
  104a0c:	48 89 e5             	mov    %rsp,%rbp
	{
	    colors = DefaultColors;
  104a0f:	c6 05 d2 b7 01 00 07 	movb   $0x7,0x1b7d2(%rip)        # 1201e8 <_D3vga7Console6colorsh>
	}
  104a16:	c9                   	leaveq 
  104a17:	c3                   	retq   

0000000000104a18 <_D3vga7Console12setForeColorFE3vga5ColorZv>:
	/**
	This function sets the forecolor (font color) to the given color.
		Params:
			newcol = The new color to set the font color to.
	*/
	void setForeColor(Color newcol)
  104a18:	55                   	push   %rbp
  104a19:	48 89 e5             	mov    %rsp,%rbp
  104a1c:	40 88 7d ff          	mov    %dil,-0x1(%rbp)
	{
		colors &= newcol | 0xF0;
  104a20:	0f b6 55 ff          	movzbl -0x1(%rbp),%edx
  104a24:	b8 f0 ff ff ff       	mov    $0xfffffff0,%eax
  104a29:	09 c2                	or     %eax,%edx
  104a2b:	0f b6 05 b6 b7 01 00 	movzbl 0x1b7b6(%rip),%eax        # 1201e8 <_D3vga7Console6colorsh>
  104a32:	21 d0                	and    %edx,%eax
  104a34:	88 05 ae b7 01 00    	mov    %al,0x1b7ae(%rip)        # 1201e8 <_D3vga7Console6colorsh>
	}
  104a3a:	c9                   	leaveq 
  104a3b:	c3                   	retq   

0000000000104a3c <_D3vga7Console12setBackColorFE3vga5ColorZv>:
	/**
	 Sets the current text background to a new color.
		Params:
			newcol = The new color to set the background color to.
	*/
	void setBackColor(Color newcol)
  104a3c:	55                   	push   %rbp
  104a3d:	48 89 e5             	mov    %rsp,%rbp
  104a40:	40 88 7d ff          	mov    %dil,-0x1(%rbp)
	{
		colors &= (newcol << 4) | 0x0F;
  104a44:	0f b6 45 ff          	movzbl -0x1(%rbp),%eax
  104a48:	c1 e0 04             	shl    $0x4,%eax
  104a4b:	89 c2                	mov    %eax,%edx
  104a4d:	83 ca 0f             	or     $0xf,%edx
  104a50:	0f b6 05 91 b7 01 00 	movzbl 0x1b791(%rip),%eax        # 1201e8 <_D3vga7Console6colorsh>
  104a57:	21 d0                	and    %edx,%eax
  104a59:	88 05 89 b7 01 00    	mov    %al,0x1b789(%rip)        # 1201e8 <_D3vga7Console6colorsh>
	}
  104a5f:	c9                   	leaveq 
  104a60:	c3                   	retq   

0000000000104a61 <_D3vga7Console9setColorsFE3vga5ColorE3vga5ColorZv>:
	Allows, in one function call, to set both the background and text color.
		Params:
			forecolor = The color to set the text color to.
			backcolor = The color to set the background color to.
	*/
	void setColors(Color forecolor, Color backcolor)
  104a61:	55                   	push   %rbp
  104a62:	48 89 e5             	mov    %rsp,%rbp
  104a65:	40 88 7d ff          	mov    %dil,-0x1(%rbp)
  104a69:	40 88 75 fe          	mov    %sil,-0x2(%rbp)
	{
		colors = (forecolor & 0x0F) | (backcolor << 4);
  104a6d:	0f b6 45 ff          	movzbl -0x1(%rbp),%eax
  104a71:	89 c2                	mov    %eax,%edx
  104a73:	83 e2 0f             	and    $0xf,%edx
  104a76:	0f b6 45 fe          	movzbl -0x2(%rbp),%eax
  104a7a:	c1 e0 04             	shl    $0x4,%eax
  104a7d:	09 d0                	or     %edx,%eax
  104a7f:	88 05 63 b7 01 00    	mov    %al,0x1b763(%rip)        # 1201e8 <_D3vga7Console6colorsh>
	}
  104a85:	c9                   	leaveq 
  104a86:	c3                   	retq   

0000000000104a87 <_D3vga7Console13scrollDisplayFiZv>:
	the length of a standard screen.
		Params:
			numlines = The number of lines that should be added to the bottom of the screen
				after the scrolling is complete.
	*/
	void scrollDisplay(int numlines)
  104a87:	55                   	push   %rbp
  104a88:	48 89 e5             	mov    %rsp,%rbp
  104a8b:	48 83 ec 28          	sub    $0x28,%rsp
  104a8f:	89 7d dc             	mov    %edi,-0x24(%rbp)
	{
		/// The function received no lines. Do nothing.
		if(numlines <= 0)
  104a92:	83 7d dc 00          	cmpl   $0x0,-0x24(%rbp)
  104a96:	0f 8e 79 01 00 00    	jle    104c15 <_D3vga7Console13scrollDisplayFiZv+0x18e>
			return;
	
		/// If you cannot increase that far, clear the screen, instead of using the processor
		/// power to go through each line.
		if(numlines >= Lines)
  104a9c:	8b 45 dc             	mov    -0x24(%rbp),%eax
  104a9f:	83 f8 18             	cmp    $0x18,%eax
  104aa2:	72 0a                	jb     104aae <_D3vga7Console13scrollDisplayFiZv+0x27>
		{
			cls();
  104aa4:	e8 1b fe ff ff       	callq  1048c4 <_D3vga7Console3clsFZv>
			return;
  104aa9:	e9 67 01 00 00       	jmpq   104c15 <_D3vga7Console13scrollDisplayFiZv+0x18e>
		}

		int cury = 0;
  104aae:	c7 45 f4 00 00 00 00 	movl   $0x0,-0xc(%rbp)
		int offset1 = 0;
  104ab5:	c7 45 f0 00 00 00 00 	movl   $0x0,-0x10(%rbp)
		int offset2 = numlines * Columns;
  104abc:	8b 45 dc             	mov    -0x24(%rbp),%eax
  104abf:	89 c2                	mov    %eax,%edx
  104ac1:	c1 e2 04             	shl    $0x4,%edx
  104ac4:	8d 04 95 00 00 00 00 	lea    0x0(,%rdx,4),%eax
  104acb:	8d 04 02             	lea    (%rdx,%rax,1),%eax
  104ace:	89 45 ec             	mov    %eax,-0x14(%rbp)

		/// Go through everything in memory and copy it the proper amount
		/// to increase the number of lines on the screen.
		for(; cury < Lines - numlines; cury++)
  104ad1:	8b 4d f4             	mov    -0xc(%rbp),%ecx
  104ad4:	8b 55 dc             	mov    -0x24(%rbp),%edx
  104ad7:	b8 18 00 00 00       	mov    $0x18,%eax
  104adc:	29 d0                	sub    %edx,%eax
  104ade:	39 c1                	cmp    %eax,%ecx
  104ae0:	0f 92 c0             	setb   %al
  104ae3:	83 f0 01             	xor    $0x1,%eax
  104ae6:	84 c0                	test   %al,%al
  104ae8:	0f 85 97 00 00 00    	jne    104b85 <_D3vga7Console13scrollDisplayFiZv+0xfe>
		{
			for(int curx = 0; curx < Columns; curx++)
  104aee:	c7 45 f8 00 00 00 00 	movl   $0x0,-0x8(%rbp)
  104af5:	8b 45 f8             	mov    -0x8(%rbp),%eax
  104af8:	83 f8 4f             	cmp    $0x4f,%eax
  104afb:	0f 96 c0             	setbe  %al
  104afe:	83 f0 01             	xor    $0x1,%eax
  104b01:	84 c0                	test   %al,%al
  104b03:	75 6f                	jne    104b74 <_D3vga7Console13scrollDisplayFiZv+0xed>
			{
				*(VideoMem + (curx + offset1) * 2) = *(VideoMem + (curx + offset1 + offset2) * 2);
  104b05:	48 8b 15 d4 b6 01 00 	mov    0x1b6d4(%rip),%rdx        # 1201e0 <_D3vga7Console8VideoMemPh>
  104b0c:	8b 45 f0             	mov    -0x10(%rbp),%eax
  104b0f:	03 45 f8             	add    -0x8(%rbp),%eax
  104b12:	01 c0                	add    %eax,%eax
  104b14:	48 98                	cltq   
  104b16:	48 01 c2             	add    %rax,%rdx
  104b19:	48 8b 0d c0 b6 01 00 	mov    0x1b6c0(%rip),%rcx        # 1201e0 <_D3vga7Console8VideoMemPh>
  104b20:	8b 45 f0             	mov    -0x10(%rbp),%eax
  104b23:	03 45 f8             	add    -0x8(%rbp),%eax
  104b26:	03 45 ec             	add    -0x14(%rbp),%eax
  104b29:	01 c0                	add    %eax,%eax
  104b2b:	48 98                	cltq   
  104b2d:	48 8d 04 01          	lea    (%rcx,%rax,1),%rax
  104b31:	0f b6 00             	movzbl (%rax),%eax
  104b34:	88 02                	mov    %al,(%rdx)
				*(VideoMem + (curx + offset1) * 2 + 1) = *(VideoMem + (curx + offset1 + offset2) * 2 + 1);
  104b36:	48 8b 15 a3 b6 01 00 	mov    0x1b6a3(%rip),%rdx        # 1201e0 <_D3vga7Console8VideoMemPh>
  104b3d:	8b 45 f0             	mov    -0x10(%rbp),%eax
  104b40:	03 45 f8             	add    -0x8(%rbp),%eax
  104b43:	01 c0                	add    %eax,%eax
  104b45:	48 98                	cltq   
  104b47:	48 8d 04 02          	lea    (%rdx,%rax,1),%rax
  104b4b:	48 8d 48 01          	lea    0x1(%rax),%rcx
  104b4f:	48 8b 15 8a b6 01 00 	mov    0x1b68a(%rip),%rdx        # 1201e0 <_D3vga7Console8VideoMemPh>
  104b56:	8b 45 f0             	mov    -0x10(%rbp),%eax
  104b59:	03 45 f8             	add    -0x8(%rbp),%eax
  104b5c:	03 45 ec             	add    -0x14(%rbp),%eax
  104b5f:	01 c0                	add    %eax,%eax
  104b61:	48 98                	cltq   
  104b63:	48 8d 04 02          	lea    (%rdx,%rax,1),%rax
  104b67:	48 ff c0             	inc    %rax
  104b6a:	0f b6 00             	movzbl (%rax),%eax
  104b6d:	88 01                	mov    %al,(%rcx)
  104b6f:	ff 45 f8             	incl   -0x8(%rbp)
  104b72:	eb 81                	jmp    104af5 <_D3vga7Console13scrollDisplayFiZv+0x6e>
			}

			offset1 += Columns;
  104b74:	8b 45 f0             	mov    -0x10(%rbp),%eax
  104b77:	83 c0 50             	add    $0x50,%eax
  104b7a:	89 45 f0             	mov    %eax,-0x10(%rbp)
  104b7d:	ff 45 f4             	incl   -0xc(%rbp)
  104b80:	e9 4c ff ff ff       	jmpq   104ad1 <_D3vga7Console13scrollDisplayFiZv+0x4a>
		}

		for(; cury < Lines; cury++)
  104b85:	8b 45 f4             	mov    -0xc(%rbp),%eax
  104b88:	83 f8 17             	cmp    $0x17,%eax
  104b8b:	0f 96 c0             	setbe  %al
  104b8e:	83 f0 01             	xor    $0x1,%eax
  104b91:	84 c0                	test   %al,%al
  104b93:	75 5d                	jne    104bf2 <_D3vga7Console13scrollDisplayFiZv+0x16b>
		{
			for(int curx = 0; curx < Columns; curx++)
  104b95:	c7 45 fc 00 00 00 00 	movl   $0x0,-0x4(%rbp)
  104b9c:	8b 45 fc             	mov    -0x4(%rbp),%eax
  104b9f:	83 f8 4f             	cmp    $0x4f,%eax
  104ba2:	0f 96 c0             	setbe  %al
  104ba5:	83 f0 01             	xor    $0x1,%eax
  104ba8:	84 c0                	test   %al,%al
  104baa:	75 38                	jne    104be4 <_D3vga7Console13scrollDisplayFiZv+0x15d>
			{
				*(VideoMem + (curx + offset1) * 2) = 0x00;
  104bac:	48 8b 15 2d b6 01 00 	mov    0x1b62d(%rip),%rdx        # 1201e0 <_D3vga7Console8VideoMemPh>
  104bb3:	8b 45 f0             	mov    -0x10(%rbp),%eax
  104bb6:	03 45 fc             	add    -0x4(%rbp),%eax
  104bb9:	01 c0                	add    %eax,%eax
  104bbb:	48 98                	cltq   
  104bbd:	48 8d 04 02          	lea    (%rdx,%rax,1),%rax
  104bc1:	c6 00 00             	movb   $0x0,(%rax)
				*(VideoMem + (curx + offset1) * 2 + 1) = 0x00;
  104bc4:	48 8b 15 15 b6 01 00 	mov    0x1b615(%rip),%rdx        # 1201e0 <_D3vga7Console8VideoMemPh>
  104bcb:	8b 45 f0             	mov    -0x10(%rbp),%eax
  104bce:	03 45 fc             	add    -0x4(%rbp),%eax
  104bd1:	01 c0                	add    %eax,%eax
  104bd3:	48 98                	cltq   
  104bd5:	48 8d 04 02          	lea    (%rdx,%rax,1),%rax
  104bd9:	48 ff c0             	inc    %rax
  104bdc:	c6 00 00             	movb   $0x0,(%rax)
  104bdf:	ff 45 fc             	incl   -0x4(%rbp)
  104be2:	eb b8                	jmp    104b9c <_D3vga7Console13scrollDisplayFiZv+0x115>
			}

			offset1 += Columns;
  104be4:	8b 45 f0             	mov    -0x10(%rbp),%eax
  104be7:	83 c0 50             	add    $0x50,%eax
  104bea:	89 45 f0             	mov    %eax,-0x10(%rbp)
  104bed:	ff 45 f4             	incl   -0xc(%rbp)
  104bf0:	eb 93                	jmp    104b85 <_D3vga7Console13scrollDisplayFiZv+0xfe>
	    }
	
		ypos -= numlines;
  104bf2:	8b 05 8c f2 01 00    	mov    0x1f28c(%rip),%eax        # 123e84 <_D3vga7Console4yposi>
  104bf8:	2b 45 dc             	sub    -0x24(%rbp),%eax
  104bfb:	89 05 83 f2 01 00    	mov    %eax,0x1f283(%rip)        # 123e84 <_D3vga7Console4yposi>
	
		if(ypos < 0)
  104c01:	8b 05 7d f2 01 00    	mov    0x1f27d(%rip),%eax        # 123e84 <_D3vga7Console4yposi>
  104c07:	85 c0                	test   %eax,%eax
  104c09:	79 0a                	jns    104c15 <_D3vga7Console13scrollDisplayFiZv+0x18e>
			ypos = 0;
  104c0b:	c7 05 6f f2 01 00 00 	movl   $0x0,0x1f26f(%rip)        # 123e84 <_D3vga7Console4yposi>
  104c12:	00 00 00 
	}
  104c15:	c9                   	leaveq 
  104c16:	c3                   	retq   

0000000000104c17 <_D3vga7Console8kvprintfFAaAC8TypeInfoG1S3gcc8builtins13__va_list_tagZv>:
			arguments = A set of arguments that should be printed into the string, depending on which escape sequences have been used.
				E.G. if a %d escape sequence is included in the string, an integer should be passed as an argument.
			argptr = A variatic list pointing to the actual values of the arguments. Because this is variatic, it has an indeterminant length
				at runtime.
	*/
	void kvprintf(char[] format, TypeInfo[] arguments, va_list argptr)
  104c17:	55                   	push   %rbp
  104c18:	48 89 e5             	mov    %rsp,%rbp
  104c1b:	48 81 ec 60 01 00 00 	sub    $0x160,%rsp
  104c22:	49 89 d1             	mov    %rdx,%r9
  104c25:	4c 89 85 08 ff ff ff 	mov    %r8,-0xf8(%rbp)
  104c2c:	48 89 f8             	mov    %rdi,%rax
  104c2f:	48 89 f2             	mov    %rsi,%rdx
  104c32:	48 89 85 20 ff ff ff 	mov    %rax,-0xe0(%rbp)
  104c39:	48 89 95 28 ff ff ff 	mov    %rdx,-0xd8(%rbp)
  104c40:	4c 89 c8             	mov    %r9,%rax
  104c43:	48 89 ca             	mov    %rcx,%rdx
  104c46:	48 89 85 10 ff ff ff 	mov    %rax,-0xf0(%rbp)
  104c4d:	48 89 95 18 ff ff ff 	mov    %rdx,-0xe8(%rbp)
	{
		char[20] buf;
  104c54:	48 c7 85 60 ff ff ff 	movq   $0x14,-0xa0(%rbp)
  104c5b:	14 00 00 00 
  104c5f:	48 8d 85 40 ff ff ff 	lea    -0xc0(%rbp),%rax
  104c66:	48 89 85 68 ff ff ff 	mov    %rax,-0x98(%rbp)
  104c6d:	48 8b 85 60 ff ff ff 	mov    -0xa0(%rbp),%rax
  104c74:	48 89 45 d0          	mov    %rax,-0x30(%rbp)
  104c78:	48 8b 85 68 ff ff ff 	mov    -0x98(%rbp),%rax
  104c7f:	48 89 45 c8          	mov    %rax,-0x38(%rbp)
  104c83:	48 83 7d d0 00       	cmpq   $0x0,-0x30(%rbp)
  104c88:	0f 95 c0             	setne  %al
  104c8b:	83 f0 01             	xor    $0x1,%eax
  104c8e:	84 c0                	test   %al,%al
  104c90:	75 11                	jne    104ca3 <_D3vga7Console8kvprintfFAaAC8TypeInfoG1S3gcc8builtins13__va_list_tagZv+0x8c>
  104c92:	48 8b 45 c8          	mov    -0x38(%rbp),%rax
  104c96:	c6 00 ff             	movb   $0xff,(%rax)
  104c99:	48 ff 45 c8          	incq   -0x38(%rbp)
  104c9d:	48 ff 4d d0          	decq   -0x30(%rbp)
  104ca1:	eb e0                	jmp    104c83 <_D3vga7Console8kvprintfFAaAC8TypeInfoG1S3gcc8builtins13__va_list_tagZv+0x6c>

		for(int i = 0; i < format.length; i++)
  104ca3:	c7 45 d8 00 00 00 00 	movl   $0x0,-0x28(%rbp)
  104caa:	8b 45 d8             	mov    -0x28(%rbp),%eax
  104cad:	48 63 d0             	movslq %eax,%rdx
  104cb0:	48 8b 85 20 ff ff ff 	mov    -0xe0(%rbp),%rax
  104cb7:	48 39 c2             	cmp    %rax,%rdx
  104cba:	0f 92 c0             	setb   %al
  104cbd:	83 f0 01             	xor    $0x1,%eax
  104cc0:	84 c0                	test   %al,%al
  104cc2:	0f 85 bf 03 00 00    	jne    105087 <_D3vga7Console8kvprintfFAaAC8TypeInfoG1S3gcc8builtins13__va_list_tagZv+0x470>
		{
			char c = format[i];
  104cc8:	48 8b 85 28 ff ff ff 	mov    -0xd8(%rbp),%rax
  104ccf:	48 89 85 a0 fe ff ff 	mov    %rax,-0x160(%rbp)
  104cd6:	8b 45 d8             	mov    -0x28(%rbp),%eax
  104cd9:	48 63 d0             	movslq %eax,%rdx
  104cdc:	48 8b 85 20 ff ff ff 	mov    -0xe0(%rbp),%rax
  104ce3:	48 39 c2             	cmp    %rax,%rdx
  104ce6:	73 0e                	jae    104cf6 <_D3vga7Console8kvprintfFAaAC8TypeInfoG1S3gcc8builtins13__va_list_tagZv+0xdf>
  104ce8:	8b 45 d8             	mov    -0x28(%rbp),%eax
  104ceb:	48 98                	cltq   
  104ced:	48 89 85 a8 fe ff ff 	mov    %rax,-0x158(%rbp)
  104cf4:	eb 2e                	jmp    104d24 <_D3vga7Console8kvprintfFAaAC8TypeInfoG1S3gcc8builtins13__va_list_tagZv+0x10d>
  104cf6:	48 c7 85 70 ff ff ff 	movq   $0x5,-0x90(%rbp)
  104cfd:	05 00 00 00 
  104d01:	48 c7 85 78 ff ff ff 	movq   $0x117321,-0x88(%rbp)
  104d08:	21 73 11 00 
  104d0c:	48 8b bd 70 ff ff ff 	mov    -0x90(%rbp),%rdi
  104d13:	48 8b b5 78 ff ff ff 	mov    -0x88(%rbp),%rsi
  104d1a:	ba d8 00 00 00       	mov    $0xd8,%edx
  104d1f:	e8 11 00 01 00       	callq  114d35 <_d_array_bounds>
  104d24:	48 8b 85 a8 fe ff ff 	mov    -0x158(%rbp),%rax
  104d2b:	48 03 85 a0 fe ff ff 	add    -0x160(%rbp),%rax
  104d32:	0f b6 00             	movzbl (%rax),%eax
  104d35:	88 45 df             	mov    %al,-0x21(%rbp)

			if(c != '%')
  104d38:	0f b6 45 df          	movzbl -0x21(%rbp),%eax
  104d3c:	83 f8 25             	cmp    $0x25,%eax
  104d3f:	74 0e                	je     104d4f <_D3vga7Console8kvprintfFAaAC8TypeInfoG1S3gcc8builtins13__va_list_tagZv+0x138>
				putchar(c);
  104d41:	0f b6 7d df          	movzbl -0x21(%rbp),%edi
  104d45:	e8 d0 fb ff ff       	callq  10491a <_D3vga7Console7putcharFaZv>
  104d4a:	e9 30 03 00 00       	jmpq   10507f <_D3vga7Console8kvprintfFAaAC8TypeInfoG1S3gcc8builtins13__va_list_tagZv+0x468>
			else
			{
				char[] p;
  104d4f:	48 c7 85 30 ff ff ff 	movq   $0x0,-0xd0(%rbp)
  104d56:	00 00 00 00 
  104d5a:	48 c7 85 38 ff ff ff 	movq   $0x0,-0xc8(%rbp)
  104d61:	00 00 00 00 
				c = format[++i];
  104d65:	48 8b 95 28 ff ff ff 	mov    -0xd8(%rbp),%rdx
  104d6c:	48 89 95 b0 fe ff ff 	mov    %rdx,-0x150(%rbp)
  104d73:	ff 45 d8             	incl   -0x28(%rbp)
  104d76:	8b 45 d8             	mov    -0x28(%rbp),%eax
  104d79:	48 98                	cltq   
  104d7b:	48 89 85 c0 fe ff ff 	mov    %rax,-0x140(%rbp)
  104d82:	48 8b 85 20 ff ff ff 	mov    -0xe0(%rbp),%rax
  104d89:	48 39 85 c0 fe ff ff 	cmp    %rax,-0x140(%rbp)
  104d90:	73 10                	jae    104da2 <_D3vga7Console8kvprintfFAaAC8TypeInfoG1S3gcc8builtins13__va_list_tagZv+0x18b>
  104d92:	48 8b 8d c0 fe ff ff 	mov    -0x140(%rbp),%rcx
  104d99:	48 89 8d b8 fe ff ff 	mov    %rcx,-0x148(%rbp)
  104da0:	eb 22                	jmp    104dc4 <_D3vga7Console8kvprintfFAaAC8TypeInfoG1S3gcc8builtins13__va_list_tagZv+0x1ad>
  104da2:	48 c7 45 80 05 00 00 	movq   $0x5,-0x80(%rbp)
  104da9:	00 
  104daa:	48 c7 45 88 21 73 11 	movq   $0x117321,-0x78(%rbp)
  104db1:	00 
  104db2:	48 8b 7d 80          	mov    -0x80(%rbp),%rdi
  104db6:	48 8b 75 88          	mov    -0x78(%rbp),%rsi
  104dba:	ba df 00 00 00       	mov    $0xdf,%edx
  104dbf:	e8 71 ff 00 00       	callq  114d35 <_d_array_bounds>
  104dc4:	48 8b 85 b8 fe ff ff 	mov    -0x148(%rbp),%rax
  104dcb:	48 03 85 b0 fe ff ff 	add    -0x150(%rbp),%rax
  104dd2:	0f b6 00             	movzbl (%rax),%eax
  104dd5:	88 45 df             	mov    %al,-0x21(%rbp)
								putchar(ch);
							break;

					default:
						/// This is unknown. Print out nothing.
						break;
  104dd8:	0f b6 45 df          	movzbl -0x21(%rbp),%eax
  104ddc:	89 85 cc fe ff ff    	mov    %eax,-0x134(%rbp)
  104de2:	83 bd cc fe ff ff 73 	cmpl   $0x73,-0x134(%rbp)
  104de9:	0f 84 e6 00 00 00    	je     104ed5 <_D3vga7Console8kvprintfFAaAC8TypeInfoG1S3gcc8builtins13__va_list_tagZv+0x2be>
  104def:	83 bd cc fe ff ff 73 	cmpl   $0x73,-0x134(%rbp)
  104df6:	7f 0e                	jg     104e06 <_D3vga7Console8kvprintfFAaAC8TypeInfoG1S3gcc8builtins13__va_list_tagZv+0x1ef>
  104df8:	83 bd cc fe ff ff 64 	cmpl   $0x64,-0x134(%rbp)
  104dff:	74 1c                	je     104e1d <_D3vga7Console8kvprintfFAaAC8TypeInfoG1S3gcc8builtins13__va_list_tagZv+0x206>
  104e01:	e9 79 02 00 00       	jmpq   10507f <_D3vga7Console8kvprintfFAaAC8TypeInfoG1S3gcc8builtins13__va_list_tagZv+0x468>
  104e06:	83 bd cc fe ff ff 75 	cmpl   $0x75,-0x134(%rbp)
  104e0d:	74 0e                	je     104e1d <_D3vga7Console8kvprintfFAaAC8TypeInfoG1S3gcc8builtins13__va_list_tagZv+0x206>
  104e0f:	83 bd cc fe ff ff 78 	cmpl   $0x78,-0x134(%rbp)
  104e16:	74 05                	je     104e1d <_D3vga7Console8kvprintfFAaAC8TypeInfoG1S3gcc8builtins13__va_list_tagZv+0x206>
  104e18:	e9 62 02 00 00       	jmpq   10507f <_D3vga7Console8kvprintfFAaAC8TypeInfoG1S3gcc8builtins13__va_list_tagZv+0x468>
				switch (c)
				{
					case 'd':
					case 'u':
					case 'x':
						p = itoa(buf, c, va_arg!(int)(argptr));
  104e1d:	48 8b 95 08 ff ff ff 	mov    -0xf8(%rbp),%rdx
  104e24:	48 89 95 d0 fe ff ff 	mov    %rdx,-0x130(%rbp)
  104e2b:	48 8b 8d d0 fe ff ff 	mov    -0x130(%rbp),%rcx
  104e32:	8b 01                	mov    (%rcx),%eax
  104e34:	83 f8 30             	cmp    $0x30,%eax
  104e37:	73 37                	jae    104e70 <_D3vga7Console8kvprintfFAaAC8TypeInfoG1S3gcc8builtins13__va_list_tagZv+0x259>
  104e39:	48 8b 85 d0 fe ff ff 	mov    -0x130(%rbp),%rax
  104e40:	48 8b 50 10          	mov    0x10(%rax),%rdx
  104e44:	48 8b 8d d0 fe ff ff 	mov    -0x130(%rbp),%rcx
  104e4b:	8b 01                	mov    (%rcx),%eax
  104e4d:	89 c0                	mov    %eax,%eax
  104e4f:	48 01 c2             	add    %rax,%rdx
  104e52:	48 89 95 d8 fe ff ff 	mov    %rdx,-0x128(%rbp)
  104e59:	48 8b 95 d0 fe ff ff 	mov    -0x130(%rbp),%rdx
  104e60:	8b 02                	mov    (%rdx),%eax
  104e62:	83 c0 08             	add    $0x8,%eax
  104e65:	48 8b 8d d0 fe ff ff 	mov    -0x130(%rbp),%rcx
  104e6c:	89 01                	mov    %eax,(%rcx)
  104e6e:	eb 21                	jmp    104e91 <_D3vga7Console8kvprintfFAaAC8TypeInfoG1S3gcc8builtins13__va_list_tagZv+0x27a>
  104e70:	48 8b 95 d0 fe ff ff 	mov    -0x130(%rbp),%rdx
  104e77:	48 8b 42 08          	mov    0x8(%rdx),%rax
  104e7b:	48 89 85 d8 fe ff ff 	mov    %rax,-0x128(%rbp)
  104e82:	48 83 c0 08          	add    $0x8,%rax
  104e86:	48 8b 8d d0 fe ff ff 	mov    -0x130(%rbp),%rcx
  104e8d:	48 89 41 08          	mov    %rax,0x8(%rcx)
  104e91:	48 8b 85 d8 fe ff ff 	mov    -0x128(%rbp),%rax
  104e98:	8b 00                	mov    (%rax),%eax
  104e9a:	48 63 c8             	movslq %eax,%rcx
  104e9d:	0f b6 7d df          	movzbl -0x21(%rbp),%edi
  104ea1:	48 c7 45 90 14 00 00 	movq   $0x14,-0x70(%rbp)
  104ea8:	00 
  104ea9:	48 8d 85 40 ff ff ff 	lea    -0xc0(%rbp),%rax
  104eb0:	48 89 45 98          	mov    %rax,-0x68(%rbp)
  104eb4:	48 8d 85 30 ff ff ff 	lea    -0xd0(%rbp),%rax
  104ebb:	48 8b 75 90          	mov    -0x70(%rbp),%rsi
  104ebf:	48 8b 55 98          	mov    -0x68(%rbp),%rdx
  104ec3:	49 89 c8             	mov    %rcx,%r8
  104ec6:	89 f9                	mov    %edi,%ecx
  104ec8:	48 89 c7             	mov    %rax,%rdi
  104ecb:	e8 ad 04 00 00       	callq  10537d <_D3vga4itoaFAaalZAa>
						goto string;
  104ed0:	e9 5c 01 00 00       	jmpq   105031 <_D3vga7Console8kvprintfFAaAC8TypeInfoG1S3gcc8builtins13__va_list_tagZv+0x41a>

					case 's':
						p = va_arg!(char[])(argptr);
  104ed5:	48 8b 85 08 ff ff ff 	mov    -0xf8(%rbp),%rax
  104edc:	48 89 85 e0 fe ff ff 	mov    %rax,-0x120(%rbp)
  104ee3:	48 8b 95 e0 fe ff ff 	mov    -0x120(%rbp),%rdx
  104eea:	8b 02                	mov    (%rdx),%eax
  104eec:	83 f8 30             	cmp    $0x30,%eax
  104eef:	73 37                	jae    104f28 <_D3vga7Console8kvprintfFAaAC8TypeInfoG1S3gcc8builtins13__va_list_tagZv+0x311>
  104ef1:	48 8b 8d e0 fe ff ff 	mov    -0x120(%rbp),%rcx
  104ef8:	48 8b 51 10          	mov    0x10(%rcx),%rdx
  104efc:	48 8b 8d e0 fe ff ff 	mov    -0x120(%rbp),%rcx
  104f03:	8b 01                	mov    (%rcx),%eax
  104f05:	89 c0                	mov    %eax,%eax
  104f07:	48 01 c2             	add    %rax,%rdx
  104f0a:	48 89 95 e8 fe ff ff 	mov    %rdx,-0x118(%rbp)
  104f11:	48 8b 95 e0 fe ff ff 	mov    -0x120(%rbp),%rdx
  104f18:	8b 02                	mov    (%rdx),%eax
  104f1a:	83 c0 08             	add    $0x8,%eax
  104f1d:	48 8b 8d e0 fe ff ff 	mov    -0x120(%rbp),%rcx
  104f24:	89 01                	mov    %eax,(%rcx)
  104f26:	eb 21                	jmp    104f49 <_D3vga7Console8kvprintfFAaAC8TypeInfoG1S3gcc8builtins13__va_list_tagZv+0x332>
  104f28:	48 8b 95 e0 fe ff ff 	mov    -0x120(%rbp),%rdx
  104f2f:	48 8b 42 08          	mov    0x8(%rdx),%rax
  104f33:	48 89 85 e8 fe ff ff 	mov    %rax,-0x118(%rbp)
  104f3a:	48 83 c0 08          	add    $0x8,%rax
  104f3e:	48 8b 8d e0 fe ff ff 	mov    -0x120(%rbp),%rcx
  104f45:	48 89 41 08          	mov    %rax,0x8(%rcx)
  104f49:	48 8b 85 e8 fe ff ff 	mov    -0x118(%rbp),%rax
  104f50:	48 8b 00             	mov    (%rax),%rax
  104f53:	48 89 45 e0          	mov    %rax,-0x20(%rbp)
  104f57:	48 8b 85 08 ff ff ff 	mov    -0xf8(%rbp),%rax
  104f5e:	48 89 85 f0 fe ff ff 	mov    %rax,-0x110(%rbp)
  104f65:	48 8b 95 f0 fe ff ff 	mov    -0x110(%rbp),%rdx
  104f6c:	8b 02                	mov    (%rdx),%eax
  104f6e:	83 f8 30             	cmp    $0x30,%eax
  104f71:	73 37                	jae    104faa <_D3vga7Console8kvprintfFAaAC8TypeInfoG1S3gcc8builtins13__va_list_tagZv+0x393>
  104f73:	48 8b 8d f0 fe ff ff 	mov    -0x110(%rbp),%rcx
  104f7a:	48 8b 51 10          	mov    0x10(%rcx),%rdx
  104f7e:	48 8b 8d f0 fe ff ff 	mov    -0x110(%rbp),%rcx
  104f85:	8b 01                	mov    (%rcx),%eax
  104f87:	89 c0                	mov    %eax,%eax
  104f89:	48 01 c2             	add    %rax,%rdx
  104f8c:	48 89 95 f8 fe ff ff 	mov    %rdx,-0x108(%rbp)
  104f93:	48 8b 95 f0 fe ff ff 	mov    -0x110(%rbp),%rdx
  104f9a:	8b 02                	mov    (%rdx),%eax
  104f9c:	83 c0 08             	add    $0x8,%eax
  104f9f:	48 8b 8d f0 fe ff ff 	mov    -0x110(%rbp),%rcx
  104fa6:	89 01                	mov    %eax,(%rcx)
  104fa8:	eb 21                	jmp    104fcb <_D3vga7Console8kvprintfFAaAC8TypeInfoG1S3gcc8builtins13__va_list_tagZv+0x3b4>
  104faa:	48 8b 95 f0 fe ff ff 	mov    -0x110(%rbp),%rdx
  104fb1:	48 8b 42 08          	mov    0x8(%rdx),%rax
  104fb5:	48 89 85 f8 fe ff ff 	mov    %rax,-0x108(%rbp)
  104fbc:	48 83 c0 08          	add    $0x8,%rax
  104fc0:	48 8b 8d f0 fe ff ff 	mov    -0x110(%rbp),%rcx
  104fc7:	48 89 41 08          	mov    %rax,0x8(%rcx)
  104fcb:	48 8b 85 f8 fe ff ff 	mov    -0x108(%rbp),%rax
  104fd2:	48 8b 00             	mov    (%rax),%rax
  104fd5:	48 89 45 e8          	mov    %rax,-0x18(%rbp)
  104fd9:	48 8b 45 e0          	mov    -0x20(%rbp),%rax
  104fdd:	48 89 45 b0          	mov    %rax,-0x50(%rbp)
  104fe1:	48 8b 45 e8          	mov    -0x18(%rbp),%rax
  104fe5:	48 89 45 b8          	mov    %rax,-0x48(%rbp)
  104fe9:	48 8b 45 b0          	mov    -0x50(%rbp),%rax
  104fed:	48 89 45 a0          	mov    %rax,-0x60(%rbp)
  104ff1:	48 8b 45 b8          	mov    -0x48(%rbp),%rax
  104ff5:	48 89 45 a8          	mov    %rax,-0x58(%rbp)
  104ff9:	48 8b 45 a0          	mov    -0x60(%rbp),%rax
  104ffd:	48 89 85 30 ff ff ff 	mov    %rax,-0xd0(%rbp)
  105004:	48 8b 45 a8          	mov    -0x58(%rbp),%rax
  105008:	48 89 85 38 ff ff ff 	mov    %rax,-0xc8(%rbp)
						if(p.ptr is null)
  10500f:	48 8b 85 38 ff ff ff 	mov    -0xc8(%rbp),%rax
  105016:	48 85 c0             	test   %rax,%rax
  105019:	75 16                	jne    105031 <_D3vga7Console8kvprintfFAaAC8TypeInfoG1S3gcc8builtins13__va_list_tagZv+0x41a>
							p = "(null)";
  10501b:	48 c7 85 30 ff ff ff 	movq   $0x6,-0xd0(%rbp)
  105022:	06 00 00 00 
  105026:	48 c7 85 38 ff ff ff 	movq   $0x117327,-0xc8(%rbp)
  10502d:	27 73 11 00 

						string:
							foreach(ch; p)
  105031:	48 8b 85 38 ff ff ff 	mov    -0xc8(%rbp),%rax
  105038:	48 89 85 00 ff ff ff 	mov    %rax,-0x100(%rbp)
  10503f:	48 8b 95 00 ff ff ff 	mov    -0x100(%rbp),%rdx
  105046:	48 89 55 f0          	mov    %rdx,-0x10(%rbp)
  10504a:	48 8b 85 30 ff ff ff 	mov    -0xd0(%rbp),%rax
  105051:	48 03 85 00 ff ff ff 	add    -0x100(%rbp),%rax
  105058:	48 39 45 f0          	cmp    %rax,-0x10(%rbp)
  10505c:	0f 95 c0             	setne  %al
  10505f:	83 f0 01             	xor    $0x1,%eax
  105062:	84 c0                	test   %al,%al
  105064:	75 19                	jne    10507f <_D3vga7Console8kvprintfFAaAC8TypeInfoG1S3gcc8builtins13__va_list_tagZv+0x468>
  105066:	48 8b 45 f0          	mov    -0x10(%rbp),%rax
  10506a:	0f b6 00             	movzbl (%rax),%eax
  10506d:	88 45 ff             	mov    %al,-0x1(%rbp)
								putchar(ch);
  105070:	0f b6 7d ff          	movzbl -0x1(%rbp),%edi
  105074:	e8 a1 f8 ff ff       	callq  10491a <_D3vga7Console7putcharFaZv>
  105079:	48 ff 45 f0          	incq   -0x10(%rbp)
  10507d:	eb cb                	jmp    10504a <_D3vga7Console8kvprintfFAaAC8TypeInfoG1S3gcc8builtins13__va_list_tagZv+0x433>

		for(int i = 0; i < format.length; i++)
		{
			char c = format[i];

			if(c != '%')
  10507f:	ff 45 d8             	incl   -0x28(%rbp)
  105082:	e9 23 fc ff ff       	jmpq   104caa <_D3vga7Console8kvprintfFAaAC8TypeInfoG1S3gcc8builtins13__va_list_tagZv+0x93>
						/// This is unknown. Print out nothing.
						break;
				}
			}
		}
	}
  105087:	c9                   	leaveq 
  105088:	c3                   	retq   

0000000000105089 <_D3vga7Console7kprintfFAaYv>:
		Params:
			format = the actual string, containing information and escape sequences.
			... = a variatic list containing the variables that correspond to the escape sequences in "format."
				E.G. in the "format" string "The number is %d," %d must have an integer tied to it to be printed.
	*/
	void kprintf(char[] format, ...)
  105089:	55                   	push   %rbp
  10508a:	48 89 e5             	mov    %rsp,%rbp
  10508d:	48 81 ec 30 01 00 00 	sub    $0x130,%rsp
  105094:	48 89 bd f8 fe ff ff 	mov    %rdi,-0x108(%rbp)
  10509b:	48 89 8d 68 ff ff ff 	mov    %rcx,-0x98(%rbp)
  1050a2:	4c 89 85 70 ff ff ff 	mov    %r8,-0x90(%rbp)
  1050a9:	4c 89 8d 78 ff ff ff 	mov    %r9,-0x88(%rbp)
  1050b0:	0f b6 c0             	movzbl %al,%eax
  1050b3:	48 89 85 e0 fe ff ff 	mov    %rax,-0x120(%rbp)
  1050ba:	48 8b 8d e0 fe ff ff 	mov    -0x120(%rbp),%rcx
  1050c1:	48 8d 04 8d 00 00 00 	lea    0x0(,%rcx,4),%rax
  1050c8:	00 
  1050c9:	48 c7 85 e0 fe ff ff 	movq   $0x105108,-0x120(%rbp)
  1050d0:	08 51 10 00 
  1050d4:	48 29 85 e0 fe ff ff 	sub    %rax,-0x120(%rbp)
  1050db:	48 8d 45 ff          	lea    -0x1(%rbp),%rax
  1050df:	48 8b 8d e0 fe ff ff 	mov    -0x120(%rbp),%rcx
  1050e6:	ff e1                	jmpq   *%rcx
  1050e8:	0f 29 78 f1          	movaps %xmm7,-0xf(%rax)
  1050ec:	0f 29 70 e1          	movaps %xmm6,-0x1f(%rax)
  1050f0:	0f 29 68 d1          	movaps %xmm5,-0x2f(%rax)
  1050f4:	0f 29 60 c1          	movaps %xmm4,-0x3f(%rax)
  1050f8:	0f 29 58 b1          	movaps %xmm3,-0x4f(%rax)
  1050fc:	0f 29 50 a1          	movaps %xmm2,-0x5f(%rax)
  105100:	0f 29 48 91          	movaps %xmm1,-0x6f(%rax)
  105104:	0f 29 40 81          	movaps %xmm0,-0x7f(%rax)
  105108:	48 89 f0             	mov    %rsi,%rax
  10510b:	48 89 85 e8 fe ff ff 	mov    %rax,-0x118(%rbp)
  105112:	48 89 95 f0 fe ff ff 	mov    %rdx,-0x110(%rbp)
	{
		va_list begin = void;
		va_start(begin, format);
		kvprintf(format, _arguments, begin);
  105119:	48 8d 85 30 ff ff ff 	lea    -0xd0(%rbp),%rax
  105120:	c7 00 18 00 00 00    	movl   $0x18,(%rax)
  105126:	48 8d 85 30 ff ff ff 	lea    -0xd0(%rbp),%rax
  10512d:	c7 40 04 30 00 00 00 	movl   $0x30,0x4(%rax)
  105134:	48 8d 85 30 ff ff ff 	lea    -0xd0(%rbp),%rax
  10513b:	48 8d 55 10          	lea    0x10(%rbp),%rdx
  10513f:	48 89 50 08          	mov    %rdx,0x8(%rax)
  105143:	48 8d 85 30 ff ff ff 	lea    -0xd0(%rbp),%rax
  10514a:	48 8d 8d 50 ff ff ff 	lea    -0xb0(%rbp),%rcx
  105151:	48 89 48 10          	mov    %rcx,0x10(%rax)
		Params:
			format = the actual string, containing information and escape sequences.
			... = a variatic list containing the variables that correspond to the escape sequences in "format."
				E.G. in the "format" string "The number is %d," %d must have an integer tied to it to be printed.
	*/
	void kprintf(char[] format, ...)
  105155:	48 8b 95 f8 fe ff ff 	mov    -0x108(%rbp),%rdx
  10515c:	48 8b 42 10          	mov    0x10(%rdx),%rax
  105160:	48 89 85 00 ff ff ff 	mov    %rax,-0x100(%rbp)
  105167:	48 8b 42 18          	mov    0x18(%rdx),%rax
  10516b:	48 89 85 08 ff ff ff 	mov    %rax,-0xf8(%rbp)
	{
		va_list begin = void;
		va_start(begin, format);
  105172:	48 8d 85 10 ff ff ff 	lea    -0xf0(%rbp),%rax
  105179:	c7 00 18 00 00 00    	movl   $0x18,(%rax)
  10517f:	48 8d 85 10 ff ff ff 	lea    -0xf0(%rbp),%rax
  105186:	c7 40 04 30 00 00 00 	movl   $0x30,0x4(%rax)
  10518d:	48 8d 85 10 ff ff ff 	lea    -0xf0(%rbp),%rax
  105194:	48 8d 55 10          	lea    0x10(%rbp),%rdx
  105198:	48 89 50 08          	mov    %rdx,0x8(%rax)
  10519c:	48 8d 85 10 ff ff ff 	lea    -0xf0(%rbp),%rax
  1051a3:	48 8d 8d 50 ff ff ff 	lea    -0xb0(%rbp),%rcx
  1051aa:	48 89 48 10          	mov    %rcx,0x10(%rax)
		kvprintf(format, _arguments, begin);
  1051ae:	48 8d 85 10 ff ff ff 	lea    -0xf0(%rbp),%rax
  1051b5:	48 8b 95 00 ff ff ff 	mov    -0x100(%rbp),%rdx
  1051bc:	48 8b 8d 08 ff ff ff 	mov    -0xf8(%rbp),%rcx
  1051c3:	48 8b bd e8 fe ff ff 	mov    -0x118(%rbp),%rdi
  1051ca:	48 8b b5 f0 fe ff ff 	mov    -0x110(%rbp),%rsi
  1051d1:	49 89 c0             	mov    %rax,%r8
  1051d4:	e8 3e fa ff ff       	callq  104c17 <_D3vga7Console8kvprintfFAaAC8TypeInfoG1S3gcc8builtins13__va_list_tagZv>
	}
  1051d9:	eb 21                	jmp    1051fc <_D3vga7Console7kprintfFAaYv+0x173>
  1051db:	48 89 85 d8 fe ff ff 	mov    %rax,-0x128(%rbp)
  1051e2:	48 8b 85 d8 fe ff ff 	mov    -0x128(%rbp),%rax
	*/
	void kprintf(char[] format, ...)
	{
		va_list begin = void;
		va_start(begin, format);
		kvprintf(format, _arguments, begin);
  1051e9:	48 89 85 d8 fe ff ff 	mov    %rax,-0x128(%rbp)
  1051f0:	48 8b bd d8 fe ff ff 	mov    -0x128(%rbp),%rdi
  1051f7:	e8 ca fe 00 00       	callq  1150c6 <_Unwind_Resume>
	}
  1051fc:	c9                   	leaveq 
  1051fd:	c3                   	retq   

00000000001051fe <_D3vga7Console9kprintflnFAaYv>:
	
	/*
	This function works in much the same way as kprintf, but adds a newline after printing.
	See kprintf for information on input and output values.
	*/
	void kprintfln(char[] format, ...)
  1051fe:	55                   	push   %rbp
  1051ff:	48 89 e5             	mov    %rsp,%rbp
  105202:	48 81 ec 30 01 00 00 	sub    $0x130,%rsp
  105209:	48 89 bd f8 fe ff ff 	mov    %rdi,-0x108(%rbp)
  105210:	48 89 8d 68 ff ff ff 	mov    %rcx,-0x98(%rbp)
  105217:	4c 89 85 70 ff ff ff 	mov    %r8,-0x90(%rbp)
  10521e:	4c 89 8d 78 ff ff ff 	mov    %r9,-0x88(%rbp)
  105225:	0f b6 c0             	movzbl %al,%eax
  105228:	48 89 85 e0 fe ff ff 	mov    %rax,-0x120(%rbp)
  10522f:	48 8b 8d e0 fe ff ff 	mov    -0x120(%rbp),%rcx
  105236:	48 8d 04 8d 00 00 00 	lea    0x0(,%rcx,4),%rax
  10523d:	00 
  10523e:	48 c7 85 e0 fe ff ff 	movq   $0x10527d,-0x120(%rbp)
  105245:	7d 52 10 00 
  105249:	48 29 85 e0 fe ff ff 	sub    %rax,-0x120(%rbp)
  105250:	48 8d 45 ff          	lea    -0x1(%rbp),%rax
  105254:	48 8b 8d e0 fe ff ff 	mov    -0x120(%rbp),%rcx
  10525b:	ff e1                	jmpq   *%rcx
  10525d:	0f 29 78 f1          	movaps %xmm7,-0xf(%rax)
  105261:	0f 29 70 e1          	movaps %xmm6,-0x1f(%rax)
  105265:	0f 29 68 d1          	movaps %xmm5,-0x2f(%rax)
  105269:	0f 29 60 c1          	movaps %xmm4,-0x3f(%rax)
  10526d:	0f 29 58 b1          	movaps %xmm3,-0x4f(%rax)
  105271:	0f 29 50 a1          	movaps %xmm2,-0x5f(%rax)
  105275:	0f 29 48 91          	movaps %xmm1,-0x6f(%rax)
  105279:	0f 29 40 81          	movaps %xmm0,-0x7f(%rax)
  10527d:	48 89 f0             	mov    %rsi,%rax
  105280:	48 89 85 e8 fe ff ff 	mov    %rax,-0x118(%rbp)
  105287:	48 89 95 f0 fe ff ff 	mov    %rdx,-0x110(%rbp)
	{
		va_list begin = void;
		va_start(begin, format);
		kvprintf(format, _arguments, begin);
		putchar('\n');
  10528e:	48 8d 85 30 ff ff ff 	lea    -0xd0(%rbp),%rax
  105295:	c7 00 18 00 00 00    	movl   $0x18,(%rax)
  10529b:	48 8d 85 30 ff ff ff 	lea    -0xd0(%rbp),%rax
  1052a2:	c7 40 04 30 00 00 00 	movl   $0x30,0x4(%rax)
  1052a9:	48 8d 85 30 ff ff ff 	lea    -0xd0(%rbp),%rax
  1052b0:	48 8d 55 10          	lea    0x10(%rbp),%rdx
  1052b4:	48 89 50 08          	mov    %rdx,0x8(%rax)
  1052b8:	48 8d 85 30 ff ff ff 	lea    -0xd0(%rbp),%rax
  1052bf:	48 8d 8d 50 ff ff ff 	lea    -0xb0(%rbp),%rcx
  1052c6:	48 89 48 10          	mov    %rcx,0x10(%rax)
	
	/*
	This function works in much the same way as kprintf, but adds a newline after printing.
	See kprintf for information on input and output values.
	*/
	void kprintfln(char[] format, ...)
  1052ca:	48 8b 95 f8 fe ff ff 	mov    -0x108(%rbp),%rdx
  1052d1:	48 8b 42 10          	mov    0x10(%rdx),%rax
  1052d5:	48 89 85 00 ff ff ff 	mov    %rax,-0x100(%rbp)
  1052dc:	48 8b 42 18          	mov    0x18(%rdx),%rax
  1052e0:	48 89 85 08 ff ff ff 	mov    %rax,-0xf8(%rbp)
	{
		va_list begin = void;
		va_start(begin, format);
  1052e7:	48 8d 85 10 ff ff ff 	lea    -0xf0(%rbp),%rax
  1052ee:	c7 00 18 00 00 00    	movl   $0x18,(%rax)
  1052f4:	48 8d 85 10 ff ff ff 	lea    -0xf0(%rbp),%rax
  1052fb:	c7 40 04 30 00 00 00 	movl   $0x30,0x4(%rax)
  105302:	48 8d 85 10 ff ff ff 	lea    -0xf0(%rbp),%rax
  105309:	48 8d 55 10          	lea    0x10(%rbp),%rdx
  10530d:	48 89 50 08          	mov    %rdx,0x8(%rax)
  105311:	48 8d 85 10 ff ff ff 	lea    -0xf0(%rbp),%rax
  105318:	48 8d 8d 50 ff ff ff 	lea    -0xb0(%rbp),%rcx
  10531f:	48 89 48 10          	mov    %rcx,0x10(%rax)
		kvprintf(format, _arguments, begin);
  105323:	48 8d 85 10 ff ff ff 	lea    -0xf0(%rbp),%rax
  10532a:	48 8b 95 00 ff ff ff 	mov    -0x100(%rbp),%rdx
  105331:	48 8b 8d 08 ff ff ff 	mov    -0xf8(%rbp),%rcx
  105338:	48 8b bd e8 fe ff ff 	mov    -0x118(%rbp),%rdi
  10533f:	48 8b b5 f0 fe ff ff 	mov    -0x110(%rbp),%rsi
  105346:	49 89 c0             	mov    %rax,%r8
  105349:	e8 c9 f8 ff ff       	callq  104c17 <_D3vga7Console8kvprintfFAaAC8TypeInfoG1S3gcc8builtins13__va_list_tagZv>
		putchar('\n');
  10534e:	bf 0a 00 00 00       	mov    $0xa,%edi
  105353:	e8 c2 f5 ff ff       	callq  10491a <_D3vga7Console7putcharFaZv>
	}
  105358:	eb 21                	jmp    10537b <_D3vga7Console9kprintflnFAaYv+0x17d>
  10535a:	48 89 85 d8 fe ff ff 	mov    %rax,-0x128(%rbp)
  105361:	48 8b 85 d8 fe ff ff 	mov    -0x128(%rbp),%rax
	void kprintfln(char[] format, ...)
	{
		va_list begin = void;
		va_start(begin, format);
		kvprintf(format, _arguments, begin);
		putchar('\n');
  105368:	48 89 85 d8 fe ff ff 	mov    %rax,-0x128(%rbp)
  10536f:	48 8b bd d8 fe ff ff 	mov    -0x128(%rbp),%rdi
  105376:	e8 4b fd 00 00       	callq  1150c6 <_Unwind_Resume>
	}
  10537b:	c9                   	leaveq 
  10537c:	c3                   	retq   

000000000010537d <_D3vga4itoaFAaalZAa>:
		base = The base of the integer value. If "d," it will be assumed to be decimal. If "x," the integer
			will be hexadecimal.
		d = The integer to translate.
	Returns: The translated string in a character array.
*/
char[] itoa(char[] buf, char base, long d)
  10537d:	55                   	push   %rbp
  10537e:	48 89 e5             	mov    %rsp,%rbp
  105381:	48 81 ec 10 01 00 00 	sub    $0x110,%rsp
  105388:	48 89 bd f0 fe ff ff 	mov    %rdi,-0x110(%rbp)
  10538f:	88 8d 6f ff ff ff    	mov    %cl,-0x91(%rbp)
  105395:	4c 89 85 60 ff ff ff 	mov    %r8,-0xa0(%rbp)
  10539c:	48 89 f0             	mov    %rsi,%rax
  10539f:	48 89 85 70 ff ff ff 	mov    %rax,-0x90(%rbp)
  1053a6:	48 89 95 78 ff ff ff 	mov    %rdx,-0x88(%rbp)
{
	size_t p = buf.length - 1;
  1053ad:	48 8b 85 70 ff ff ff 	mov    -0x90(%rbp),%rax
  1053b4:	48 ff c8             	dec    %rax
  1053b7:	48 89 45 e8          	mov    %rax,-0x18(%rbp)
	size_t startIdx = 0;
  1053bb:	48 c7 45 e0 00 00 00 	movq   $0x0,-0x20(%rbp)
  1053c2:	00 
	ulong ud = d;
  1053c3:	48 8b 85 60 ff ff ff 	mov    -0xa0(%rbp),%rax
  1053ca:	48 89 45 d8          	mov    %rax,-0x28(%rbp)
	bool negative = false;
  1053ce:	c6 45 d7 00          	movb   $0x0,-0x29(%rbp)

	int divisor = 10;
  1053d2:	c7 45 d0 0a 00 00 00 	movl   $0xa,-0x30(%rbp)

	// If %d is specified and D is minus, put `-' in the head.
	if(base == 'd' && d < 0)
  1053d9:	0f b6 85 6f ff ff ff 	movzbl -0x91(%rbp),%eax
  1053e0:	83 f8 64             	cmp    $0x64,%eax
  1053e3:	75 1e                	jne    105403 <_D3vga4itoaFAaalZAa+0x86>
  1053e5:	48 83 bd 60 ff ff ff 	cmpq   $0x0,-0xa0(%rbp)
  1053ec:	00 
  1053ed:	79 14                	jns    105403 <_D3vga4itoaFAaalZAa+0x86>
	{
		negative = true;
  1053ef:	c6 45 d7 01          	movb   $0x1,-0x29(%rbp)
		ud = -d;
  1053f3:	48 8b 85 60 ff ff ff 	mov    -0xa0(%rbp),%rax
  1053fa:	48 f7 d8             	neg    %rax
  1053fd:	48 89 45 d8          	mov    %rax,-0x28(%rbp)
	bool negative = false;

	int divisor = 10;

	// If %d is specified and D is minus, put `-' in the head.
	if(base == 'd' && d < 0)
  105401:	eb 13                	jmp    105416 <_D3vga4itoaFAaalZAa+0x99>
	{
		negative = true;
		ud = -d;
	}
	else if(base == 'x')
  105403:	0f b6 85 6f ff ff ff 	movzbl -0x91(%rbp),%eax
  10540a:	83 f8 78             	cmp    $0x78,%eax
  10540d:	75 07                	jne    105416 <_D3vga4itoaFAaalZAa+0x99>
		divisor = 16;
  10540f:	c7 45 d0 10 00 00 00 	movl   $0x10,-0x30(%rbp)

	// Divide UD by DIVISOR until UD == 0.
	do
	{
		int remainder = ud % divisor;
  105416:	8b 45 d0             	mov    -0x30(%rbp),%eax
  105419:	48 63 d0             	movslq %eax,%rdx
  10541c:	48 8b 45 d8          	mov    -0x28(%rbp),%rax
  105420:	48 89 d1             	mov    %rdx,%rcx
  105423:	ba 00 00 00 00       	mov    $0x0,%edx
  105428:	48 f7 f1             	div    %rcx
  10542b:	48 89 d0             	mov    %rdx,%rax
  10542e:	89 45 f4             	mov    %eax,-0xc(%rbp)
		buf[p--] = (remainder < 10) ? remainder + '0' : remainder + 'a' - 10;
  105431:	48 8b 85 78 ff ff ff 	mov    -0x88(%rbp),%rax
  105438:	48 89 85 f8 fe ff ff 	mov    %rax,-0x108(%rbp)
  10543f:	48 8b 55 e8          	mov    -0x18(%rbp),%rdx
  105443:	48 89 95 08 ff ff ff 	mov    %rdx,-0xf8(%rbp)
  10544a:	48 8b 85 70 ff ff ff 	mov    -0x90(%rbp),%rax
  105451:	48 39 85 08 ff ff ff 	cmp    %rax,-0xf8(%rbp)
  105458:	0f 92 c0             	setb   %al
  10545b:	48 ff 4d e8          	decq   -0x18(%rbp)
  10545f:	84 c0                	test   %al,%al
  105461:	74 10                	je     105473 <_D3vga4itoaFAaalZAa+0xf6>
  105463:	48 8b 8d 08 ff ff ff 	mov    -0xf8(%rbp),%rcx
  10546a:	48 89 8d 00 ff ff ff 	mov    %rcx,-0x100(%rbp)
  105471:	eb 22                	jmp    105495 <_D3vga4itoaFAaalZAa+0x118>
  105473:	48 c7 45 80 05 00 00 	movq   $0x5,-0x80(%rbp)
  10547a:	00 
  10547b:	48 c7 45 88 21 73 11 	movq   $0x117321,-0x78(%rbp)
  105482:	00 
  105483:	48 8b 7d 80          	mov    -0x80(%rbp),%rdi
  105487:	48 8b 75 88          	mov    -0x78(%rbp),%rsi
  10548b:	ba 3c 01 00 00       	mov    $0x13c,%edx
  105490:	e8 a0 f8 00 00       	callq  114d35 <_d_array_bounds>
  105495:	48 8b 85 00 ff ff ff 	mov    -0x100(%rbp),%rax
  10549c:	48 8b 95 f8 fe ff ff 	mov    -0x108(%rbp),%rdx
  1054a3:	48 01 c2             	add    %rax,%rdx
  1054a6:	48 89 95 10 ff ff ff 	mov    %rdx,-0xf0(%rbp)
  1054ad:	83 7d f4 0a          	cmpl   $0xa,-0xc(%rbp)
  1054b1:	7d 0e                	jge    1054c1 <_D3vga4itoaFAaalZAa+0x144>
  1054b3:	8b 45 f4             	mov    -0xc(%rbp),%eax
  1054b6:	83 c0 30             	add    $0x30,%eax
  1054b9:	88 85 1f ff ff ff    	mov    %al,-0xe1(%rbp)
  1054bf:	eb 0c                	jmp    1054cd <_D3vga4itoaFAaalZAa+0x150>
  1054c1:	8b 45 f4             	mov    -0xc(%rbp),%eax
  1054c4:	83 c0 57             	add    $0x57,%eax
  1054c7:	88 85 1f ff ff ff    	mov    %al,-0xe1(%rbp)
  1054cd:	0f b6 8d 1f ff ff ff 	movzbl -0xe1(%rbp),%ecx
  1054d4:	48 8b 85 10 ff ff ff 	mov    -0xf0(%rbp),%rax
  1054db:	88 08                	mov    %cl,(%rax)
  1054dd:	8b 45 d0             	mov    -0x30(%rbp),%eax
  1054e0:	48 63 d0             	movslq %eax,%rdx
  1054e3:	48 8b 45 d8          	mov    -0x28(%rbp),%rax
  1054e7:	48 89 d1             	mov    %rdx,%rcx
  1054ea:	ba 00 00 00 00       	mov    $0x0,%edx
  1054ef:	48 f7 f1             	div    %rcx
  1054f2:	48 89 45 d8          	mov    %rax,-0x28(%rbp)
  1054f6:	48 83 7d d8 00       	cmpq   $0x0,-0x28(%rbp)
  1054fb:	0f 95 c0             	setne  %al
  1054fe:	83 f0 01             	xor    $0x1,%eax
  105501:	84 c0                	test   %al,%al
  105503:	75 05                	jne    10550a <_D3vga4itoaFAaalZAa+0x18d>
  105505:	e9 0c ff ff ff       	jmpq   105416 <_D3vga4itoaFAaalZAa+0x99>
	}
	while (ud /= divisor)

	if(negative)
  10550a:	80 7d d7 00          	cmpb   $0x0,-0x29(%rbp)
  10550e:	74 75                	je     105585 <_D3vga4itoaFAaalZAa+0x208>
		buf[p--] = '-';
  105510:	48 8b 85 78 ff ff ff 	mov    -0x88(%rbp),%rax
  105517:	48 89 85 20 ff ff ff 	mov    %rax,-0xe0(%rbp)
  10551e:	48 8b 55 e8          	mov    -0x18(%rbp),%rdx
  105522:	48 89 95 30 ff ff ff 	mov    %rdx,-0xd0(%rbp)
  105529:	48 8b 85 70 ff ff ff 	mov    -0x90(%rbp),%rax
  105530:	48 39 85 30 ff ff ff 	cmp    %rax,-0xd0(%rbp)
  105537:	0f 92 c0             	setb   %al
  10553a:	48 ff 4d e8          	decq   -0x18(%rbp)
  10553e:	84 c0                	test   %al,%al
  105540:	74 10                	je     105552 <_D3vga4itoaFAaalZAa+0x1d5>
  105542:	48 8b 8d 30 ff ff ff 	mov    -0xd0(%rbp),%rcx
  105549:	48 89 8d 28 ff ff ff 	mov    %rcx,-0xd8(%rbp)
  105550:	eb 22                	jmp    105574 <_D3vga4itoaFAaalZAa+0x1f7>
  105552:	48 c7 45 90 05 00 00 	movq   $0x5,-0x70(%rbp)
  105559:	00 
  10555a:	48 c7 45 98 21 73 11 	movq   $0x117321,-0x68(%rbp)
  105561:	00 
  105562:	48 8b 7d 90          	mov    -0x70(%rbp),%rdi
  105566:	48 8b 75 98          	mov    -0x68(%rbp),%rsi
  10556a:	ba 41 01 00 00       	mov    $0x141,%edx
  10556f:	e8 c1 f7 00 00       	callq  114d35 <_d_array_bounds>
  105574:	48 8b 85 28 ff ff ff 	mov    -0xd8(%rbp),%rax
  10557b:	48 03 85 20 ff ff ff 	add    -0xe0(%rbp),%rax
  105582:	c6 00 2d             	movb   $0x2d,(%rax)

	return buf[p + 1 .. $];
  105585:	48 8b 85 70 ff ff ff 	mov    -0x90(%rbp),%rax
  10558c:	48 89 45 f8          	mov    %rax,-0x8(%rbp)
  105590:	48 8b 85 70 ff ff ff 	mov    -0x90(%rbp),%rax
  105597:	48 39 45 f8          	cmp    %rax,-0x8(%rbp)
  10559b:	77 0d                	ja     1055aa <_D3vga4itoaFAaalZAa+0x22d>
  10559d:	48 8b 45 f8          	mov    -0x8(%rbp),%rax
  1055a1:	48 89 85 38 ff ff ff 	mov    %rax,-0xc8(%rbp)
  1055a8:	eb 22                	jmp    1055cc <_D3vga4itoaFAaalZAa+0x24f>
  1055aa:	48 c7 45 b0 05 00 00 	movq   $0x5,-0x50(%rbp)
  1055b1:	00 
  1055b2:	48 c7 45 b8 21 73 11 	movq   $0x117321,-0x48(%rbp)
  1055b9:	00 
  1055ba:	48 8b 7d b0          	mov    -0x50(%rbp),%rdi
  1055be:	48 8b 75 b8          	mov    -0x48(%rbp),%rsi
  1055c2:	ba 43 01 00 00       	mov    $0x143,%edx
  1055c7:	e8 69 f7 00 00       	callq  114d35 <_d_array_bounds>
  1055cc:	48 8b 55 e8          	mov    -0x18(%rbp),%rdx
  1055d0:	48 ff c2             	inc    %rdx
  1055d3:	48 89 95 40 ff ff ff 	mov    %rdx,-0xc0(%rbp)
  1055da:	48 8b 8d 38 ff ff ff 	mov    -0xc8(%rbp),%rcx
  1055e1:	48 2b 8d 40 ff ff ff 	sub    -0xc0(%rbp),%rcx
  1055e8:	48 89 8d 48 ff ff ff 	mov    %rcx,-0xb8(%rbp)
  1055ef:	48 8b 85 78 ff ff ff 	mov    -0x88(%rbp),%rax
  1055f6:	48 89 85 50 ff ff ff 	mov    %rax,-0xb0(%rbp)
  1055fd:	48 8b 85 70 ff ff ff 	mov    -0x90(%rbp),%rax
  105604:	48 39 85 40 ff ff ff 	cmp    %rax,-0xc0(%rbp)
  10560b:	77 10                	ja     10561d <_D3vga4itoaFAaalZAa+0x2a0>
  10560d:	48 8b 95 40 ff ff ff 	mov    -0xc0(%rbp),%rdx
  105614:	48 89 95 58 ff ff ff 	mov    %rdx,-0xa8(%rbp)
  10561b:	eb 22                	jmp    10563f <_D3vga4itoaFAaalZAa+0x2c2>
  10561d:	48 c7 45 c0 05 00 00 	movq   $0x5,-0x40(%rbp)
  105624:	00 
  105625:	48 c7 45 c8 21 73 11 	movq   $0x117321,-0x38(%rbp)
  10562c:	00 
  10562d:	48 8b 7d c0          	mov    -0x40(%rbp),%rdi
  105631:	48 8b 75 c8          	mov    -0x38(%rbp),%rsi
  105635:	ba 43 01 00 00       	mov    $0x143,%edx
  10563a:	e8 f6 f6 00 00       	callq  114d35 <_d_array_bounds>
  10563f:	48 8b 85 58 ff ff ff 	mov    -0xa8(%rbp),%rax
  105646:	48 03 85 50 ff ff ff 	add    -0xb0(%rbp),%rax
  10564d:	48 8b 8d 48 ff ff ff 	mov    -0xb8(%rbp),%rcx
  105654:	48 89 4d a0          	mov    %rcx,-0x60(%rbp)
  105658:	48 89 45 a8          	mov    %rax,-0x58(%rbp)
  10565c:	48 8b 45 a0          	mov    -0x60(%rbp),%rax
  105660:	48 8b 95 f0 fe ff ff 	mov    -0x110(%rbp),%rdx
  105667:	48 89 02             	mov    %rax,(%rdx)
  10566a:	48 8b 45 a8          	mov    -0x58(%rbp),%rax
  10566e:	48 8b 8d f0 fe ff ff 	mov    -0x110(%rbp),%rcx
  105675:	48 89 41 08          	mov    %rax,0x8(%rcx)
}
  105679:	48 8b 85 f0 fe ff ff 	mov    -0x110(%rbp),%rax
  105680:	c9                   	leaveq 
  105681:	c3                   	retq   

0000000000105682 <_D3std1c6stdarg13__T6va_argTiZ6va_argFG1S3gcc8builtins13__va_list_tagZi>:
	}
}

template va_arg(T)
{
	T va_arg(ref va_list _argptr)
  105682:	55                   	push   %rbp
  105683:	48 89 e5             	mov    %rsp,%rbp
  105686:	48 89 7d f8          	mov    %rdi,-0x8(%rbp)
	{
		return T.init;
  10568a:	b8 00 00 00 00       	mov    $0x0,%eax
	}
  10568f:	c9                   	leaveq 
