
application/application2:     file format elf64-x86-64

Disassembly of section .text:

0000000000400078 <_Dmain>:
(effectively, passing the kernel an input variable) and calls a system call (inbterrupt 128).
*/

import user.syscall;

void main()
  400078:	55                   	push   %rbp
  400079:	48 89 e5             	mov    %rsp,%rbp
  40007c:	48 83 ec 10          	sub    $0x10,%rsp
{

	// 1st parameter is the CPU id from 0 to numCpus - 1

	int cpuID;
  400080:	c7 45 fc 00 00 00 00 	movl   $0x0,-0x4(%rbp)

	asm {

		"movq %%rsi, %0" :: "m" cpuID : "rax";

	}
  400087:	48 89 75 fc          	mov    %rsi,-0x4(%rbp)

 for (;;)
  40008b:	b8 00 00 00 00       	mov    $0x0,%eax
  400090:	84 c0                	test   %al,%al
  400092:	75 07                	jne    40009b <_Dmain+0x23>
 {
	//grabch();
	yield();
  400094:	e8 ef d5 00 00       	callq  40d688 <_D4user7syscall5yieldFZv>
  400099:	eb f0                	jmp    40008b <_Dmain+0x13>
 }

 return;
  40009b:	b8 00 00 00 00       	mov    $0x0,%eax
}
  4000a0:	c9                   	leaveq 
  4000a1:	c3                   	retq   
  4000a2:	90                   	nop    
  4000a3:	90                   	nop    

00000000004000a4 <_D3std8typeinfo5ti_AC11TypeInfo_AC7getHashMFPvZm>:

// Object[]

class TypeInfo_AC : TypeInfo
{
    hash_t getHash(void *p)
  4000a4:	55                   	push   %rbp
  4000a5:	48 89 e5             	mov    %rsp,%rbp
  4000a8:	48 83 ec 50          	sub    $0x50,%rsp
  4000ac:	48 89 7d c8          	mov    %rdi,-0x38(%rbp)
  4000b0:	48 89 75 c0          	mov    %rsi,-0x40(%rbp)
  4000b4:	48 8b 7d c8          	mov    -0x38(%rbp),%rdi
  4000b8:	e8 ff 8d 00 00       	callq  408ebc <_D9invariant12_d_invariantFC6ObjectZv>
    {	Object[] s = *cast(Object[]*)p;
  4000bd:	48 8b 55 c0          	mov    -0x40(%rbp),%rdx
  4000c1:	48 8b 02             	mov    (%rdx),%rax
  4000c4:	48 89 45 d0          	mov    %rax,-0x30(%rbp)
  4000c8:	48 8b 42 08          	mov    0x8(%rdx),%rax
  4000cc:	48 89 45 d8          	mov    %rax,-0x28(%rbp)
	hash_t hash = 0;
  4000d0:	48 c7 45 e8 00 00 00 	movq   $0x0,-0x18(%rbp)
  4000d7:	00 

	foreach (Object o; s)
  4000d8:	48 8b 45 d8          	mov    -0x28(%rbp),%rax
  4000dc:	48 89 45 b8          	mov    %rax,-0x48(%rbp)
  4000e0:	48 8b 45 b8          	mov    -0x48(%rbp),%rax
  4000e4:	48 89 45 f0          	mov    %rax,-0x10(%rbp)
  4000e8:	48 8b 45 d0          	mov    -0x30(%rbp),%rax
  4000ec:	48 c1 e0 03          	shl    $0x3,%rax
  4000f0:	48 03 45 b8          	add    -0x48(%rbp),%rax
  4000f4:	48 39 45 f0          	cmp    %rax,-0x10(%rbp)
  4000f8:	0f 95 c0             	setne  %al
  4000fb:	83 f0 01             	xor    $0x1,%eax
  4000fe:	84 c0                	test   %al,%al
  400100:	75 31                	jne    400133 <_D3std8typeinfo5ti_AC11TypeInfo_AC7getHashMFPvZm+0x8f>
  400102:	48 8b 45 f0          	mov    -0x10(%rbp),%rax
  400106:	48 8b 00             	mov    (%rax),%rax
  400109:	48 89 45 f8          	mov    %rax,-0x8(%rbp)
	{
	    if (o)
  40010d:	48 83 7d f8 00       	cmpq   $0x0,-0x8(%rbp)
  400112:	74 18                	je     40012c <_D3std8typeinfo5ti_AC11TypeInfo_AC7getHashMFPvZm+0x88>
		hash += o.toHash();
  400114:	48 8b 45 f8          	mov    -0x8(%rbp),%rax
  400118:	48 8b 00             	mov    (%rax),%rax
  40011b:	48 83 c0 10          	add    $0x10,%rax
  40011f:	48 8b 00             	mov    (%rax),%rax
  400122:	48 8b 7d f8          	mov    -0x8(%rbp),%rdi
  400126:	ff d0                	callq  *%rax
  400128:	48 01 45 e8          	add    %rax,-0x18(%rbp)
    {	Object[] s = *cast(Object[]*)p;
	hash_t hash = 0;

	foreach (Object o; s)
	{
	    if (o)
  40012c:	48 83 45 f0 08       	addq   $0x8,-0x10(%rbp)
  400131:	eb b5                	jmp    4000e8 <_D3std8typeinfo5ti_AC11TypeInfo_AC7getHashMFPvZm+0x44>
		hash += o.toHash();
	}
	return hash;
  400133:	48 8b 45 e8          	mov    -0x18(%rbp),%rax
    }
  400137:	c9                   	leaveq 
  400138:	c3                   	retq   

0000000000400139 <_D3std8typeinfo5ti_AC11TypeInfo_AC6equalsMFPvPvZi>:

    int equals(void *p1, void *p2)
  400139:	55                   	push   %rbp
  40013a:	48 89 e5             	mov    %rsp,%rbp
  40013d:	48 81 ec a0 00 00 00 	sub    $0xa0,%rsp
  400144:	48 89 7d 98          	mov    %rdi,-0x68(%rbp)
  400148:	48 89 75 90          	mov    %rsi,-0x70(%rbp)
  40014c:	48 89 55 88          	mov    %rdx,-0x78(%rbp)
  400150:	48 8b 7d 98          	mov    -0x68(%rbp),%rdi
  400154:	e8 63 8d 00 00       	callq  408ebc <_D9invariant12_d_invariantFC6ObjectZv>
    {
	Object[] s1 = *cast(Object[]*)p1;
  400159:	48 8b 55 90          	mov    -0x70(%rbp),%rdx
  40015d:	48 8b 02             	mov    (%rdx),%rax
  400160:	48 89 45 a0          	mov    %rax,-0x60(%rbp)
  400164:	48 8b 42 08          	mov    0x8(%rdx),%rax
  400168:	48 89 45 a8          	mov    %rax,-0x58(%rbp)
	Object[] s2 = *cast(Object[]*)p2;
  40016c:	48 8b 55 88          	mov    -0x78(%rbp),%rdx
  400170:	48 8b 02             	mov    (%rdx),%rax
  400173:	48 89 45 b0          	mov    %rax,-0x50(%rbp)
  400177:	48 8b 42 08          	mov    0x8(%rdx),%rax
  40017b:	48 89 45 b8          	mov    %rax,-0x48(%rbp)

	if (s1.length == s2.length)
  40017f:	48 8b 55 a0          	mov    -0x60(%rbp),%rdx
  400183:	48 8b 45 b0          	mov    -0x50(%rbp),%rax
  400187:	48 39 c2             	cmp    %rax,%rdx
  40018a:	0f 85 3d 01 00 00    	jne    4002cd <_D3std8typeinfo5ti_AC11TypeInfo_AC6equalsMFPvPvZi+0x194>
	{
	    for (size_t u = 0; u < s1.length; u++)
  400190:	48 c7 45 e8 00 00 00 	movq   $0x0,-0x18(%rbp)
  400197:	00 
  400198:	48 8b 45 a0          	mov    -0x60(%rbp),%rax
  40019c:	48 39 45 e8          	cmp    %rax,-0x18(%rbp)
  4001a0:	0f 92 c0             	setb   %al
  4001a3:	83 f0 01             	xor    $0x1,%eax
  4001a6:	84 c0                	test   %al,%al
  4001a8:	0f 85 16 01 00 00    	jne    4002c4 <_D3std8typeinfo5ti_AC11TypeInfo_AC6equalsMFPvPvZi+0x18b>
	    {	Object o1 = s1[u];
  4001ae:	48 8b 45 a8          	mov    -0x58(%rbp),%rax
  4001b2:	48 89 85 60 ff ff ff 	mov    %rax,-0xa0(%rbp)
  4001b9:	48 8b 45 a0          	mov    -0x60(%rbp),%rax
  4001bd:	48 39 45 e8          	cmp    %rax,-0x18(%rbp)
  4001c1:	73 0d                	jae    4001d0 <_D3std8typeinfo5ti_AC11TypeInfo_AC6equalsMFPvPvZi+0x97>
  4001c3:	48 8b 45 e8          	mov    -0x18(%rbp),%rax
  4001c7:	48 89 85 68 ff ff ff 	mov    %rax,-0x98(%rbp)
  4001ce:	eb 22                	jmp    4001f2 <_D3std8typeinfo5ti_AC11TypeInfo_AC6equalsMFPvPvZi+0xb9>
  4001d0:	48 c7 45 c0 14 00 00 	movq   $0x14,-0x40(%rbp)
  4001d7:	00 
  4001d8:	48 c7 45 c8 00 f0 40 	movq   $0x40f000,-0x38(%rbp)
  4001df:	00 
  4001e0:	48 8b 7d c0          	mov    -0x40(%rbp),%rdi
  4001e4:	48 8b 75 c8          	mov    -0x38(%rbp),%rsi
  4001e8:	ba 1b 00 00 00       	mov    $0x1b,%edx
  4001ed:	e8 93 a7 00 00       	callq  40a985 <_d_array_bounds>
  4001f2:	48 8b 85 68 ff ff ff 	mov    -0x98(%rbp),%rax
  4001f9:	48 c1 e0 03          	shl    $0x3,%rax
  4001fd:	48 03 85 60 ff ff ff 	add    -0xa0(%rbp),%rax
  400204:	48 8b 00             	mov    (%rax),%rax
  400207:	48 89 45 f8          	mov    %rax,-0x8(%rbp)
		Object o2 = s2[u];
  40020b:	48 8b 45 b8          	mov    -0x48(%rbp),%rax
  40020f:	48 89 85 70 ff ff ff 	mov    %rax,-0x90(%rbp)
  400216:	48 8b 45 b0          	mov    -0x50(%rbp),%rax
  40021a:	48 39 45 e8          	cmp    %rax,-0x18(%rbp)
  40021e:	73 0d                	jae    40022d <_D3std8typeinfo5ti_AC11TypeInfo_AC6equalsMFPvPvZi+0xf4>
  400220:	48 8b 45 e8          	mov    -0x18(%rbp),%rax
  400224:	48 89 85 78 ff ff ff 	mov    %rax,-0x88(%rbp)
  40022b:	eb 22                	jmp    40024f <_D3std8typeinfo5ti_AC11TypeInfo_AC6equalsMFPvPvZi+0x116>
  40022d:	48 c7 45 d0 14 00 00 	movq   $0x14,-0x30(%rbp)
  400234:	00 
  400235:	48 c7 45 d8 00 f0 40 	movq   $0x40f000,-0x28(%rbp)
  40023c:	00 
  40023d:	48 8b 7d d0          	mov    -0x30(%rbp),%rdi
  400241:	48 8b 75 d8          	mov    -0x28(%rbp),%rsi
  400245:	ba 1c 00 00 00       	mov    $0x1c,%edx
  40024a:	e8 36 a7 00 00       	callq  40a985 <_d_array_bounds>
  40024f:	48 8b 85 78 ff ff ff 	mov    -0x88(%rbp),%rax
  400256:	48 c1 e0 03          	shl    $0x3,%rax
  40025a:	48 03 85 70 ff ff ff 	add    -0x90(%rbp),%rax
  400261:	48 8b 00             	mov    (%rax),%rax
  400264:	48 89 45 f0          	mov    %rax,-0x10(%rbp)

		// Do not pass null's to Object.opEquals()
		if (o1 is o2 ||
  400268:	48 8b 45 f8          	mov    -0x8(%rbp),%rax
  40026c:	48 3b 45 f0          	cmp    -0x10(%rbp),%rax
  400270:	74 49                	je     4002bb <_D3std8typeinfo5ti_AC11TypeInfo_AC6equalsMFPvPvZi+0x182>
  400272:	48 83 7d f8 00       	cmpq   $0x0,-0x8(%rbp)
  400277:	0f 94 c0             	sete   %al
  40027a:	83 f0 01             	xor    $0x1,%eax
  40027d:	83 f0 01             	xor    $0x1,%eax
  400280:	84 c0                	test   %al,%al
  400282:	75 2e                	jne    4002b2 <_D3std8typeinfo5ti_AC11TypeInfo_AC6equalsMFPvPvZi+0x179>
  400284:	48 83 7d f0 00       	cmpq   $0x0,-0x10(%rbp)
  400289:	0f 94 c0             	sete   %al
  40028c:	83 f0 01             	xor    $0x1,%eax
  40028f:	83 f0 01             	xor    $0x1,%eax
  400292:	84 c0                	test   %al,%al
  400294:	75 1c                	jne    4002b2 <_D3std8typeinfo5ti_AC11TypeInfo_AC6equalsMFPvPvZi+0x179>
  400296:	48 8b 45 f8          	mov    -0x8(%rbp),%rax
  40029a:	48 8b 00             	mov    (%rax),%rax
  40029d:	48 83 c0 20          	add    $0x20,%rax
  4002a1:	48 8b 00             	mov    (%rax),%rax
  4002a4:	48 8b 75 f0          	mov    -0x10(%rbp),%rsi
  4002a8:	48 8b 7d f8          	mov    -0x8(%rbp),%rdi
  4002ac:	ff d0                	callq  *%rax
  4002ae:	85 c0                	test   %eax,%eax
  4002b0:	75 09                	jne    4002bb <_D3std8typeinfo5ti_AC11TypeInfo_AC6equalsMFPvPvZi+0x182>
		    (!(o1 is null) && !(o2 is null) && o1.opEquals(o2)))
		    continue;
		return 0;
  4002b2:	c7 45 84 00 00 00 00 	movl   $0x0,-0x7c(%rbp)
  4002b9:	eb 19                	jmp    4002d4 <_D3std8typeinfo5ti_AC11TypeInfo_AC6equalsMFPvPvZi+0x19b>
  4002bb:	48 ff 45 e8          	incq   -0x18(%rbp)
  4002bf:	e9 d4 fe ff ff       	jmpq   400198 <_D3std8typeinfo5ti_AC11TypeInfo_AC6equalsMFPvPvZi+0x5f>
	    }
	    return 1;
  4002c4:	c7 45 84 01 00 00 00 	movl   $0x1,-0x7c(%rbp)
  4002cb:	eb 07                	jmp    4002d4 <_D3std8typeinfo5ti_AC11TypeInfo_AC6equalsMFPvPvZi+0x19b>
	}
	return 0;
  4002cd:	c7 45 84 00 00 00 00 	movl   $0x0,-0x7c(%rbp)
  4002d4:	8b 45 84             	mov    -0x7c(%rbp),%eax
    }
  4002d7:	c9                   	leaveq 
  4002d8:	c3                   	retq   

00000000004002d9 <_D3std8typeinfo5ti_AC11TypeInfo_AC7compareMFPvPvZi>:

    int compare(void *p1, void *p2)
  4002d9:	55                   	push   %rbp
  4002da:	48 89 e5             	mov    %rsp,%rbp
  4002dd:	48 81 ec a0 00 00 00 	sub    $0xa0,%rsp
  4002e4:	48 89 7d 98          	mov    %rdi,-0x68(%rbp)
  4002e8:	48 89 75 90          	mov    %rsi,-0x70(%rbp)
  4002ec:	48 89 55 88          	mov    %rdx,-0x78(%rbp)
  4002f0:	48 8b 7d 98          	mov    -0x68(%rbp),%rdi
  4002f4:	e8 c3 8b 00 00       	callq  408ebc <_D9invariant12_d_invariantFC6ObjectZv>
    {
	Object[] s1 = *cast(Object[]*)p1;
  4002f9:	48 8b 55 90          	mov    -0x70(%rbp),%rdx
  4002fd:	48 8b 02             	mov    (%rdx),%rax
  400300:	48 89 45 a0          	mov    %rax,-0x60(%rbp)
  400304:	48 8b 42 08          	mov    0x8(%rdx),%rax
  400308:	48 89 45 a8          	mov    %rax,-0x58(%rbp)
	Object[] s2 = *cast(Object[]*)p2;
  40030c:	48 8b 55 88          	mov    -0x78(%rbp),%rdx
  400310:	48 8b 02             	mov    (%rdx),%rax
  400313:	48 89 45 b0          	mov    %rax,-0x50(%rbp)
  400317:	48 8b 42 08          	mov    0x8(%rdx),%rax
  40031b:	48 89 45 b8          	mov    %rax,-0x48(%rbp)
	ptrdiff_t c;
  40031f:	48 c7 45 e0 00 00 00 	movq   $0x0,-0x20(%rbp)
  400326:	00 

	c = cast(ptrdiff_t)s1.length - cast(ptrdiff_t)s2.length;
  400327:	48 8b 45 a0          	mov    -0x60(%rbp),%rax
  40032b:	48 89 c2             	mov    %rax,%rdx
  40032e:	48 8b 45 b0          	mov    -0x50(%rbp),%rax
  400332:	48 89 d1             	mov    %rdx,%rcx
  400335:	48 29 c1             	sub    %rax,%rcx
  400338:	48 89 c8             	mov    %rcx,%rax
  40033b:	48 89 45 e0          	mov    %rax,-0x20(%rbp)
	if (c == 0)
  40033f:	48 83 7d e0 00       	cmpq   $0x0,-0x20(%rbp)
  400344:	0f 85 36 01 00 00    	jne    400480 <_D3std8typeinfo5ti_AC11TypeInfo_AC7compareMFPvPvZi+0x1a7>
	{
	    for (size_t u = 0; u < s1.length; u++)
  40034a:	48 c7 45 e8 00 00 00 	movq   $0x0,-0x18(%rbp)
  400351:	00 
  400352:	48 8b 45 a0          	mov    -0x60(%rbp),%rax
  400356:	48 39 45 e8          	cmp    %rax,-0x18(%rbp)
  40035a:	0f 92 c0             	setb   %al
  40035d:	83 f0 01             	xor    $0x1,%eax
  400360:	84 c0                	test   %al,%al
  400362:	0f 85 18 01 00 00    	jne    400480 <_D3std8typeinfo5ti_AC11TypeInfo_AC7compareMFPvPvZi+0x1a7>
	    {	Object o1 = s1[u];
  400368:	48 8b 45 a8          	mov    -0x58(%rbp),%rax
  40036c:	48 89 85 68 ff ff ff 	mov    %rax,-0x98(%rbp)
  400373:	48 8b 45 a0          	mov    -0x60(%rbp),%rax
  400377:	48 39 45 e8          	cmp    %rax,-0x18(%rbp)
  40037b:	73 0d                	jae    40038a <_D3std8typeinfo5ti_AC11TypeInfo_AC7compareMFPvPvZi+0xb1>
  40037d:	48 8b 4d e8          	mov    -0x18(%rbp),%rcx
  400381:	48 89 8d 70 ff ff ff 	mov    %rcx,-0x90(%rbp)
  400388:	eb 22                	jmp    4003ac <_D3std8typeinfo5ti_AC11TypeInfo_AC7compareMFPvPvZi+0xd3>
  40038a:	48 c7 45 c0 14 00 00 	movq   $0x14,-0x40(%rbp)
  400391:	00 
  400392:	48 c7 45 c8 00 f0 40 	movq   $0x40f000,-0x38(%rbp)
  400399:	00 
  40039a:	48 8b 7d c0          	mov    -0x40(%rbp),%rdi
  40039e:	48 8b 75 c8          	mov    -0x38(%rbp),%rsi
  4003a2:	ba 33 00 00 00       	mov    $0x33,%edx
  4003a7:	e8 d9 a5 00 00       	callq  40a985 <_d_array_bounds>
  4003ac:	48 8b 85 70 ff ff ff 	mov    -0x90(%rbp),%rax
  4003b3:	48 c1 e0 03          	shl    $0x3,%rax
  4003b7:	48 03 85 68 ff ff ff 	add    -0x98(%rbp),%rax
  4003be:	48 8b 00             	mov    (%rax),%rax
  4003c1:	48 89 45 f8          	mov    %rax,-0x8(%rbp)
		Object o2 = s2[u];
  4003c5:	48 8b 45 b8          	mov    -0x48(%rbp),%rax
  4003c9:	48 89 85 78 ff ff ff 	mov    %rax,-0x88(%rbp)
  4003d0:	48 8b 45 b0          	mov    -0x50(%rbp),%rax
  4003d4:	48 39 45 e8          	cmp    %rax,-0x18(%rbp)
  4003d8:	73 0a                	jae    4003e4 <_D3std8typeinfo5ti_AC11TypeInfo_AC7compareMFPvPvZi+0x10b>
  4003da:	48 8b 4d e8          	mov    -0x18(%rbp),%rcx
  4003de:	48 89 4d 80          	mov    %rcx,-0x80(%rbp)
  4003e2:	eb 22                	jmp    400406 <_D3std8typeinfo5ti_AC11TypeInfo_AC7compareMFPvPvZi+0x12d>
  4003e4:	48 c7 45 d0 14 00 00 	movq   $0x14,-0x30(%rbp)
  4003eb:	00 
  4003ec:	48 c7 45 d8 00 f0 40 	movq   $0x40f000,-0x28(%rbp)
  4003f3:	00 
  4003f4:	48 8b 7d d0          	mov    -0x30(%rbp),%rdi
  4003f8:	48 8b 75 d8          	mov    -0x28(%rbp),%rsi
  4003fc:	ba 34 00 00 00       	mov    $0x34,%edx
  400401:	e8 7f a5 00 00       	callq  40a985 <_d_array_bounds>
  400406:	48 8b 45 80          	mov    -0x80(%rbp),%rax
  40040a:	48 c1 e0 03          	shl    $0x3,%rax
  40040e:	48 03 85 78 ff ff ff 	add    -0x88(%rbp),%rax
  400415:	48 8b 00             	mov    (%rax),%rax
  400418:	48 89 45 f0          	mov    %rax,-0x10(%rbp)

		if (o1 is o2)
  40041c:	48 8b 45 f8          	mov    -0x8(%rbp),%rax
  400420:	48 3b 45 f0          	cmp    -0x10(%rbp),%rax
  400424:	74 51                	je     400477 <_D3std8typeinfo5ti_AC11TypeInfo_AC7compareMFPvPvZi+0x19e>
		    continue;

		// Regard null references as always being "less than"
		if (o1)
  400426:	48 83 7d f8 00       	cmpq   $0x0,-0x8(%rbp)
  40042b:	74 40                	je     40046d <_D3std8typeinfo5ti_AC11TypeInfo_AC7compareMFPvPvZi+0x194>
		{
		    if (!o2)
  40042d:	48 83 7d f0 00       	cmpq   $0x0,-0x10(%rbp)
  400432:	0f 95 c0             	setne  %al
  400435:	83 f0 01             	xor    $0x1,%eax
  400438:	84 c0                	test   %al,%al
  40043a:	74 0a                	je     400446 <_D3std8typeinfo5ti_AC11TypeInfo_AC7compareMFPvPvZi+0x16d>
		    {	c = 1;
  40043c:	48 c7 45 e0 01 00 00 	movq   $0x1,-0x20(%rbp)
  400443:	00 
			break;
  400444:	eb 3a                	jmp    400480 <_D3std8typeinfo5ti_AC11TypeInfo_AC7compareMFPvPvZi+0x1a7>
		    }
		    c = o1.opCmp(o2);
  400446:	48 8b 45 f8          	mov    -0x8(%rbp),%rax
  40044a:	48 8b 00             	mov    (%rax),%rax
  40044d:	48 83 c0 18          	add    $0x18,%rax
  400451:	48 8b 00             	mov    (%rax),%rax
  400454:	48 8b 75 f0          	mov    -0x10(%rbp),%rsi
  400458:	48 8b 7d f8          	mov    -0x8(%rbp),%rdi
  40045c:	ff d0                	callq  *%rax
  40045e:	48 98                	cltq   
  400460:	48 89 45 e0          	mov    %rax,-0x20(%rbp)
		    if (c)
  400464:	48 83 7d e0 00       	cmpq   $0x0,-0x20(%rbp)
  400469:	75 15                	jne    400480 <_D3std8typeinfo5ti_AC11TypeInfo_AC7compareMFPvPvZi+0x1a7>
			break;
  40046b:	eb 0a                	jmp    400477 <_D3std8typeinfo5ti_AC11TypeInfo_AC7compareMFPvPvZi+0x19e>
		}
		else
		{   c = -1;
  40046d:	48 c7 45 e0 ff ff ff 	movq   $0xffffffffffffffff,-0x20(%rbp)
  400474:	ff 
		    break;
  400475:	eb 09                	jmp    400480 <_D3std8typeinfo5ti_AC11TypeInfo_AC7compareMFPvPvZi+0x1a7>

		if (o1 is o2)
		    continue;

		// Regard null references as always being "less than"
		if (o1)
  400477:	48 ff 45 e8          	incq   -0x18(%rbp)
  40047b:	e9 d2 fe ff ff       	jmpq   400352 <_D3std8typeinfo5ti_AC11TypeInfo_AC7compareMFPvPvZi+0x79>
		{   c = -1;
		    break;
		}
	    }
	}
	if (c < 0)
  400480:	48 83 7d e0 00       	cmpq   $0x0,-0x20(%rbp)
  400485:	79 0a                	jns    400491 <_D3std8typeinfo5ti_AC11TypeInfo_AC7compareMFPvPvZi+0x1b8>
	    c = -1;
  400487:	48 c7 45 e0 ff ff ff 	movq   $0xffffffffffffffff,-0x20(%rbp)
  40048e:	ff 
  40048f:	eb 0f                	jmp    4004a0 <_D3std8typeinfo5ti_AC11TypeInfo_AC7compareMFPvPvZi+0x1c7>
	else if (c > 0)
  400491:	48 83 7d e0 00       	cmpq   $0x0,-0x20(%rbp)
  400496:	7e 08                	jle    4004a0 <_D3std8typeinfo5ti_AC11TypeInfo_AC7compareMFPvPvZi+0x1c7>
	    c = 1;
  400498:	48 c7 45 e0 01 00 00 	movq   $0x1,-0x20(%rbp)
  40049f:	00 
	return c;
  4004a0:	48 8b 45 e0          	mov    -0x20(%rbp),%rax
    }
  4004a4:	c9                   	leaveq 
  4004a5:	c3                   	retq   

00000000004004a6 <_D3std8typeinfo5ti_AC11TypeInfo_AC5tsizeMFZm>:

    size_t tsize()
  4004a6:	55                   	push   %rbp
  4004a7:	48 89 e5             	mov    %rsp,%rbp
  4004aa:	48 83 ec 10          	sub    $0x10,%rsp
  4004ae:	48 89 7d f8          	mov    %rdi,-0x8(%rbp)
  4004b2:	48 8b 7d f8          	mov    -0x8(%rbp),%rdi
  4004b6:	e8 01 8a 00 00       	callq  408ebc <_D9invariant12_d_invariantFC6ObjectZv>
    {
	return (Object[]).sizeof;
  4004bb:	b8 10 00 00 00       	mov    $0x10,%eax
    }
  4004c0:	c9                   	leaveq 
  4004c1:	c3                   	retq   

00000000004004c2 <_D3std8typeinfo5ti_AC11TypeInfo_AC5flagsMFZk>:

    uint flags()
  4004c2:	55                   	push   %rbp
  4004c3:	48 89 e5             	mov    %rsp,%rbp
  4004c6:	48 83 ec 10          	sub    $0x10,%rsp
  4004ca:	48 89 7d f8          	mov    %rdi,-0x8(%rbp)
  4004ce:	48 8b 7d f8          	mov    -0x8(%rbp),%rdi
  4004d2:	e8 e5 89 00 00       	callq  408ebc <_D9invariant12_d_invariantFC6ObjectZv>
    {
	return 1;
  4004d7:	b8 01 00 00 00       	mov    $0x1,%eax
    }
  4004dc:	c9                   	leaveq 
  4004dd:	c3                   	retq   

00000000004004de <_D3std8typeinfo5ti_AC11TypeInfo_AC4nextMFZC8TypeInfo>:

    TypeInfo next()
  4004de:	55                   	push   %rbp
  4004df:	48 89 e5             	mov    %rsp,%rbp
  4004e2:	48 83 ec 10          	sub    $0x10,%rsp
  4004e6:	48 89 7d f8          	mov    %rdi,-0x8(%rbp)
  4004ea:	48 8b 7d f8          	mov    -0x8(%rbp),%rdi
  4004ee:	e8 c9 89 00 00       	callq  408ebc <_D9invariant12_d_invariantFC6ObjectZv>
    {
	return typeid(Object);
  4004f3:	48 c7 c0 10 98 41 00 	mov    $0x419810,%rax
    }
  4004fa:	c9                   	leaveq 
  4004fb:	c3                   	retq   

00000000004004fc <_D3std8typeinfo11ti_Acdouble11TypeInfo_Ar8toStringMFZAa>:

// cdouble[]

class TypeInfo_Ar : TypeInfo
{
    char[] toString() { return "cdouble[]"; }
  4004fc:	55                   	push   %rbp
  4004fd:	48 89 e5             	mov    %rsp,%rbp
  400500:	53                   	push   %rbx
  400501:	48 83 ec 08          	sub    $0x8,%rsp
  400505:	48 89 fb             	mov    %rdi,%rbx
  400508:	48 89 75 f0          	mov    %rsi,-0x10(%rbp)
  40050c:	48 8b 7d f0          	mov    -0x10(%rbp),%rdi
  400510:	e8 a7 89 00 00       	callq  408ebc <_D9invariant12_d_invariantFC6ObjectZv>
  400515:	48 c7 03 09 00 00 00 	movq   $0x9,(%rbx)
  40051c:	48 c7 43 08 c0 f0 40 	movq   $0x40f0c0,0x8(%rbx)
  400523:	00 
  400524:	48 89 d8             	mov    %rbx,%rax
  400527:	48 83 c4 08          	add    $0x8,%rsp
  40052b:	5b                   	pop    %rbx
  40052c:	c9                   	leaveq 
  40052d:	c3                   	retq   

000000000040052e <_D3std8typeinfo11ti_Acdouble11TypeInfo_Ar7getHashMFPvZm>:

    hash_t getHash(void *p)
  40052e:	55                   	push   %rbp
  40052f:	48 89 e5             	mov    %rsp,%rbp
  400532:	48 83 ec 40          	sub    $0x40,%rsp
  400536:	48 89 7d c8          	mov    %rdi,-0x38(%rbp)
  40053a:	48 89 75 c0          	mov    %rsi,-0x40(%rbp)
  40053e:	48 8b 7d c8          	mov    -0x38(%rbp),%rdi
  400542:	e8 75 89 00 00       	callq  408ebc <_D9invariant12_d_invariantFC6ObjectZv>
    {	cdouble[] s = *cast(cdouble[]*)p;
  400547:	48 8b 55 c0          	mov    -0x40(%rbp),%rdx
  40054b:	48 8b 02             	mov    (%rdx),%rax
  40054e:	48 89 45 d0          	mov    %rax,-0x30(%rbp)
  400552:	48 8b 42 08          	mov    0x8(%rdx),%rax
  400556:	48 89 45 d8          	mov    %rax,-0x28(%rbp)
	size_t len = s.length;
  40055a:	48 8b 45 d0          	mov    -0x30(%rbp),%rax
  40055e:	48 89 45 f8          	mov    %rax,-0x8(%rbp)
	cdouble *str = s.ptr;
  400562:	48 8b 45 d8          	mov    -0x28(%rbp),%rax
  400566:	48 89 45 f0          	mov    %rax,-0x10(%rbp)
	hash_t hash = 0;
  40056a:	48 c7 45 e8 00 00 00 	movq   $0x0,-0x18(%rbp)
  400571:	00 

	while (len)
  400572:	48 83 7d f8 00       	cmpq   $0x0,-0x8(%rbp)
  400577:	0f 95 c0             	setne  %al
  40057a:	83 f0 01             	xor    $0x1,%eax
  40057d:	84 c0                	test   %al,%al
  40057f:	75 71                	jne    4005f2 <_D3std8typeinfo11ti_Acdouble11TypeInfo_Ar7getHashMFPvZm+0xc4>
	{
	    hash *= 9;
  400581:	48 8b 55 e8          	mov    -0x18(%rbp),%rdx
  400585:	48 89 d0             	mov    %rdx,%rax
  400588:	48 c1 e0 03          	shl    $0x3,%rax
  40058c:	48 01 d0             	add    %rdx,%rax
  40058f:	48 89 45 e8          	mov    %rax,-0x18(%rbp)
	    hash += (cast(uint *)str)[0];
  400593:	48 8b 55 f0          	mov    -0x10(%rbp),%rdx
  400597:	b8 00 00 00 00       	mov    $0x0,%eax
  40059c:	48 8d 04 02          	lea    (%rdx,%rax,1),%rax
  4005a0:	8b 00                	mov    (%rax),%eax
  4005a2:	89 c0                	mov    %eax,%eax
  4005a4:	48 01 45 e8          	add    %rax,-0x18(%rbp)
	    hash += (cast(uint *)str)[1];
  4005a8:	48 8b 55 f0          	mov    -0x10(%rbp),%rdx
  4005ac:	b8 04 00 00 00       	mov    $0x4,%eax
  4005b1:	48 8d 04 02          	lea    (%rdx,%rax,1),%rax
  4005b5:	8b 00                	mov    (%rax),%eax
  4005b7:	89 c0                	mov    %eax,%eax
  4005b9:	48 01 45 e8          	add    %rax,-0x18(%rbp)
	    hash += (cast(uint *)str)[2];
  4005bd:	48 8b 55 f0          	mov    -0x10(%rbp),%rdx
  4005c1:	b8 08 00 00 00       	mov    $0x8,%eax
  4005c6:	48 8d 04 02          	lea    (%rdx,%rax,1),%rax
  4005ca:	8b 00                	mov    (%rax),%eax
  4005cc:	89 c0                	mov    %eax,%eax
  4005ce:	48 01 45 e8          	add    %rax,-0x18(%rbp)
	    hash += (cast(uint *)str)[3];
  4005d2:	48 8b 55 f0          	mov    -0x10(%rbp),%rdx
  4005d6:	b8 0c 00 00 00       	mov    $0xc,%eax
  4005db:	48 8d 04 02          	lea    (%rdx,%rax,1),%rax
  4005df:	8b 00                	mov    (%rax),%eax
  4005e1:	89 c0                	mov    %eax,%eax
  4005e3:	48 01 45 e8          	add    %rax,-0x18(%rbp)
	    str++;
  4005e7:	48 83 45 f0 10       	addq   $0x10,-0x10(%rbp)
	    len--;
  4005ec:	48 ff 4d f8          	decq   -0x8(%rbp)
  4005f0:	eb 80                	jmp    400572 <_D3std8typeinfo11ti_Acdouble11TypeInfo_Ar7getHashMFPvZm+0x44>
	}

	return hash;
  4005f2:	48 8b 45 e8          	mov    -0x18(%rbp),%rax
    }
  4005f6:	c9                   	leaveq 
  4005f7:	c3                   	retq   

00000000004005f8 <_D3std8typeinfo11ti_Acdouble11TypeInfo_Ar6equalsMFPvPvZi>:

    int equals(void *p1, void *p2)
  4005f8:	55                   	push   %rbp
  4005f9:	48 89 e5             	mov    %rsp,%rbp
  4005fc:	48 81 ec c0 00 00 00 	sub    $0xc0,%rsp
  400603:	48 89 7d 98          	mov    %rdi,-0x68(%rbp)
  400607:	48 89 75 90          	mov    %rsi,-0x70(%rbp)
  40060b:	48 89 55 88          	mov    %rdx,-0x78(%rbp)
  40060f:	48 8b 7d 98          	mov    -0x68(%rbp),%rdi
  400613:	e8 a4 88 00 00       	callq  408ebc <_D9invariant12_d_invariantFC6ObjectZv>
    {
	cdouble[] s1 = *cast(cdouble[]*)p1;
  400618:	48 8b 55 90          	mov    -0x70(%rbp),%rdx
  40061c:	48 8b 02             	mov    (%rdx),%rax
  40061f:	48 89 45 a0          	mov    %rax,-0x60(%rbp)
  400623:	48 8b 42 08          	mov    0x8(%rdx),%rax
  400627:	48 89 45 a8          	mov    %rax,-0x58(%rbp)
	cdouble[] s2 = *cast(cdouble[]*)p2;
  40062b:	48 8b 55 88          	mov    -0x78(%rbp),%rdx
  40062f:	48 8b 02             	mov    (%rdx),%rax
  400632:	48 89 45 b0          	mov    %rax,-0x50(%rbp)
  400636:	48 8b 42 08          	mov    0x8(%rdx),%rax
  40063a:	48 89 45 b8          	mov    %rax,-0x48(%rbp)
	size_t len = s1.length;
  40063e:	48 8b 45 a0          	mov    -0x60(%rbp),%rax
  400642:	48 89 45 e8          	mov    %rax,-0x18(%rbp)

	if (len != s2.length)
  400646:	48 8b 45 b0          	mov    -0x50(%rbp),%rax
  40064a:	48 39 45 e8          	cmp    %rax,-0x18(%rbp)
  40064e:	74 0f                	je     40065f <_D3std8typeinfo11ti_Acdouble11TypeInfo_Ar6equalsMFPvPvZi+0x67>
	    return 0;
  400650:	c7 85 54 ff ff ff 00 	movl   $0x0,-0xac(%rbp)
  400657:	00 00 00 
  40065a:	e9 53 01 00 00       	jmpq   4007b2 <_D3std8typeinfo11ti_Acdouble11TypeInfo_Ar6equalsMFPvPvZi+0x1ba>
	for (size_t u = 0; u < len; u++)
  40065f:	48 c7 45 f0 00 00 00 	movq   $0x0,-0x10(%rbp)
  400666:	00 
  400667:	48 8b 45 f0          	mov    -0x10(%rbp),%rax
  40066b:	48 3b 45 e8          	cmp    -0x18(%rbp),%rax
  40066f:	0f 92 c0             	setb   %al
  400672:	83 f0 01             	xor    $0x1,%eax
  400675:	84 c0                	test   %al,%al
  400677:	0f 85 2b 01 00 00    	jne    4007a8 <_D3std8typeinfo11ti_Acdouble11TypeInfo_Ar6equalsMFPvPvZi+0x1b0>
	{
	    int c = TypeInfo_r._equals(s1[u], s2[u]);
  40067d:	48 8b 45 b8          	mov    -0x48(%rbp),%rax
  400681:	48 89 85 58 ff ff ff 	mov    %rax,-0xa8(%rbp)
  400688:	48 8b 45 b0          	mov    -0x50(%rbp),%rax
  40068c:	48 39 45 f0          	cmp    %rax,-0x10(%rbp)
  400690:	73 0d                	jae    40069f <_D3std8typeinfo11ti_Acdouble11TypeInfo_Ar6equalsMFPvPvZi+0xa7>
  400692:	48 8b 45 f0          	mov    -0x10(%rbp),%rax
  400696:	48 89 85 60 ff ff ff 	mov    %rax,-0xa0(%rbp)
  40069d:	eb 22                	jmp    4006c1 <_D3std8typeinfo11ti_Acdouble11TypeInfo_Ar6equalsMFPvPvZi+0xc9>
  40069f:	48 c7 45 c0 1a 00 00 	movq   $0x1a,-0x40(%rbp)
  4006a6:	00 
  4006a7:	48 c7 45 c8 ca f0 40 	movq   $0x40f0ca,-0x38(%rbp)
  4006ae:	00 
  4006af:	48 8b 7d c0          	mov    -0x40(%rbp),%rdi
  4006b3:	48 8b 75 c8          	mov    -0x38(%rbp),%rsi
  4006b7:	ba 40 00 00 00       	mov    $0x40,%edx
  4006bc:	e8 c4 a2 00 00       	callq  40a985 <_d_array_bounds>
  4006c1:	48 8b 85 60 ff ff ff 	mov    -0xa0(%rbp),%rax
  4006c8:	48 c1 e0 04          	shl    $0x4,%rax
  4006cc:	48 03 85 58 ff ff ff 	add    -0xa8(%rbp),%rax
  4006d3:	dd 00                	fldl   (%rax)
  4006d5:	dd 9d 70 ff ff ff    	fstpl  -0x90(%rbp)
  4006db:	dd 40 08             	fldl   0x8(%rax)
  4006de:	dd 9d 68 ff ff ff    	fstpl  -0x98(%rbp)
  4006e4:	48 8b 45 a8          	mov    -0x58(%rbp),%rax
  4006e8:	48 89 85 78 ff ff ff 	mov    %rax,-0x88(%rbp)
  4006ef:	48 8b 45 a0          	mov    -0x60(%rbp),%rax
  4006f3:	48 39 45 f0          	cmp    %rax,-0x10(%rbp)
  4006f7:	73 0a                	jae    400703 <_D3std8typeinfo11ti_Acdouble11TypeInfo_Ar6equalsMFPvPvZi+0x10b>
  4006f9:	48 8b 45 f0          	mov    -0x10(%rbp),%rax
  4006fd:	48 89 45 80          	mov    %rax,-0x80(%rbp)
  400701:	eb 22                	jmp    400725 <_D3std8typeinfo11ti_Acdouble11TypeInfo_Ar6equalsMFPvPvZi+0x12d>
  400703:	48 c7 45 d0 1a 00 00 	movq   $0x1a,-0x30(%rbp)
  40070a:	00 
  40070b:	48 c7 45 d8 ca f0 40 	movq   $0x40f0ca,-0x28(%rbp)
  400712:	00 
  400713:	48 8b 7d d0          	mov    -0x30(%rbp),%rdi
  400717:	48 8b 75 d8          	mov    -0x28(%rbp),%rsi
  40071b:	ba 40 00 00 00       	mov    $0x40,%edx
  400720:	e8 60 a2 00 00       	callq  40a985 <_d_array_bounds>
  400725:	48 8b 45 80          	mov    -0x80(%rbp),%rax
  400729:	48 c1 e0 04          	shl    $0x4,%rax
  40072d:	48 03 85 78 ff ff ff 	add    -0x88(%rbp),%rax
  400734:	48 8b 10             	mov    (%rax),%rdx
  400737:	48 8b 40 08          	mov    0x8(%rax),%rax
  40073b:	48 8b 8d 70 ff ff ff 	mov    -0x90(%rbp),%rcx
  400742:	48 8b b5 68 ff ff ff 	mov    -0x98(%rbp),%rsi
  400749:	48 89 8d 48 ff ff ff 	mov    %rcx,-0xb8(%rbp)
  400750:	66 0f 12 95 48 ff ff 	movlpd -0xb8(%rbp),%xmm2
  400757:	ff 
  400758:	48 89 b5 48 ff ff ff 	mov    %rsi,-0xb8(%rbp)
  40075f:	66 0f 12 9d 48 ff ff 	movlpd -0xb8(%rbp),%xmm3
  400766:	ff 
  400767:	48 89 95 48 ff ff ff 	mov    %rdx,-0xb8(%rbp)
  40076e:	66 0f 12 85 48 ff ff 	movlpd -0xb8(%rbp),%xmm0
  400775:	ff 
  400776:	48 89 85 48 ff ff ff 	mov    %rax,-0xb8(%rbp)
  40077d:	66 0f 12 8d 48 ff ff 	movlpd -0xb8(%rbp),%xmm1
  400784:	ff 
  400785:	e8 bc 34 00 00       	callq  403c46 <_D3std8typeinfo10ti_cdouble10TypeInfo_r7_equalsFrrZi>
  40078a:	89 45 fc             	mov    %eax,-0x4(%rbp)
	    if (c == 0)
  40078d:	83 7d fc 00          	cmpl   $0x0,-0x4(%rbp)
  400791:	75 0c                	jne    40079f <_D3std8typeinfo11ti_Acdouble11TypeInfo_Ar6equalsMFPvPvZi+0x1a7>
		return 0;
  400793:	c7 85 54 ff ff ff 00 	movl   $0x0,-0xac(%rbp)
  40079a:	00 00 00 
  40079d:	eb 13                	jmp    4007b2 <_D3std8typeinfo11ti_Acdouble11TypeInfo_Ar6equalsMFPvPvZi+0x1ba>
	if (len != s2.length)
	    return 0;
	for (size_t u = 0; u < len; u++)
	{
	    int c = TypeInfo_r._equals(s1[u], s2[u]);
	    if (c == 0)
  40079f:	48 ff 45 f0          	incq   -0x10(%rbp)
  4007a3:	e9 bf fe ff ff       	jmpq   400667 <_D3std8typeinfo11ti_Acdouble11TypeInfo_Ar6equalsMFPvPvZi+0x6f>
		return 0;
	}
	return 1;
  4007a8:	c7 85 54 ff ff ff 01 	movl   $0x1,-0xac(%rbp)
  4007af:	00 00 00 
  4007b2:	8b 85 54 ff ff ff    	mov    -0xac(%rbp),%eax
    }
  4007b8:	c9                   	leaveq 
  4007b9:	c3                   	retq   

00000000004007ba <_D3std8typeinfo11ti_Acdouble11TypeInfo_Ar7compareMFPvPvZi>:

    int compare(void *p1, void *p2)
  4007ba:	55                   	push   %rbp
  4007bb:	48 89 e5             	mov    %rsp,%rbp
  4007be:	48 81 ec c0 00 00 00 	sub    $0xc0,%rsp
  4007c5:	48 89 7d 98          	mov    %rdi,-0x68(%rbp)
  4007c9:	48 89 75 90          	mov    %rsi,-0x70(%rbp)
  4007cd:	48 89 55 88          	mov    %rdx,-0x78(%rbp)
  4007d1:	48 8b 7d 98          	mov    -0x68(%rbp),%rdi
  4007d5:	e8 e2 86 00 00       	callq  408ebc <_D9invariant12_d_invariantFC6ObjectZv>
    {
	cdouble[] s1 = *cast(cdouble[]*)p1;
  4007da:	48 8b 55 90          	mov    -0x70(%rbp),%rdx
  4007de:	48 8b 02             	mov    (%rdx),%rax
  4007e1:	48 89 45 a0          	mov    %rax,-0x60(%rbp)
  4007e5:	48 8b 42 08          	mov    0x8(%rdx),%rax
  4007e9:	48 89 45 a8          	mov    %rax,-0x58(%rbp)
	cdouble[] s2 = *cast(cdouble[]*)p2;
  4007ed:	48 8b 55 88          	mov    -0x78(%rbp),%rdx
  4007f1:	48 8b 02             	mov    (%rdx),%rax
  4007f4:	48 89 45 b0          	mov    %rax,-0x50(%rbp)
  4007f8:	48 8b 42 08          	mov    0x8(%rdx),%rax
  4007fc:	48 89 45 b8          	mov    %rax,-0x48(%rbp)
	size_t len = s1.length;
  400800:	48 8b 45 a0          	mov    -0x60(%rbp),%rax
  400804:	48 89 45 e8          	mov    %rax,-0x18(%rbp)

	if (s2.length < len)
  400808:	48 8b 45 b0          	mov    -0x50(%rbp),%rax
  40080c:	48 3b 45 e8          	cmp    -0x18(%rbp),%rax
  400810:	73 08                	jae    40081a <_D3std8typeinfo11ti_Acdouble11TypeInfo_Ar7compareMFPvPvZi+0x60>
	    len = s2.length;
  400812:	48 8b 45 b0          	mov    -0x50(%rbp),%rax
  400816:	48 89 45 e8          	mov    %rax,-0x18(%rbp)
	for (size_t u = 0; u < len; u++)
  40081a:	48 c7 45 f0 00 00 00 	movq   $0x0,-0x10(%rbp)
  400821:	00 
  400822:	48 8b 45 f0          	mov    -0x10(%rbp),%rax
  400826:	48 3b 45 e8          	cmp    -0x18(%rbp),%rax
  40082a:	0f 92 c0             	setb   %al
  40082d:	83 f0 01             	xor    $0x1,%eax
  400830:	84 c0                	test   %al,%al
  400832:	0f 85 2d 01 00 00    	jne    400965 <_D3std8typeinfo11ti_Acdouble11TypeInfo_Ar7compareMFPvPvZi+0x1ab>
	{
	    int c = TypeInfo_r._compare(s1[u], s2[u]);
  400838:	48 8b 45 b8          	mov    -0x48(%rbp),%rax
  40083c:	48 89 85 50 ff ff ff 	mov    %rax,-0xb0(%rbp)
  400843:	48 8b 45 b0          	mov    -0x50(%rbp),%rax
  400847:	48 39 45 f0          	cmp    %rax,-0x10(%rbp)
  40084b:	73 0d                	jae    40085a <_D3std8typeinfo11ti_Acdouble11TypeInfo_Ar7compareMFPvPvZi+0xa0>
  40084d:	48 8b 45 f0          	mov    -0x10(%rbp),%rax
  400851:	48 89 85 58 ff ff ff 	mov    %rax,-0xa8(%rbp)
  400858:	eb 22                	jmp    40087c <_D3std8typeinfo11ti_Acdouble11TypeInfo_Ar7compareMFPvPvZi+0xc2>
  40085a:	48 c7 45 c0 1a 00 00 	movq   $0x1a,-0x40(%rbp)
  400861:	00 
  400862:	48 c7 45 c8 ca f0 40 	movq   $0x40f0ca,-0x38(%rbp)
  400869:	00 
  40086a:	48 8b 7d c0          	mov    -0x40(%rbp),%rdi
  40086e:	48 8b 75 c8          	mov    -0x38(%rbp),%rsi
  400872:	ba 51 00 00 00       	mov    $0x51,%edx
  400877:	e8 09 a1 00 00       	callq  40a985 <_d_array_bounds>
  40087c:	48 8b 85 58 ff ff ff 	mov    -0xa8(%rbp),%rax
  400883:	48 c1 e0 04          	shl    $0x4,%rax
  400887:	48 03 85 50 ff ff ff 	add    -0xb0(%rbp),%rax
  40088e:	dd 00                	fldl   (%rax)
  400890:	dd 9d 68 ff ff ff    	fstpl  -0x98(%rbp)
  400896:	dd 40 08             	fldl   0x8(%rax)
  400899:	dd 9d 60 ff ff ff    	fstpl  -0xa0(%rbp)
  40089f:	48 8b 45 a8          	mov    -0x58(%rbp),%rax
  4008a3:	48 89 85 70 ff ff ff 	mov    %rax,-0x90(%rbp)
  4008aa:	48 8b 45 a0          	mov    -0x60(%rbp),%rax
  4008ae:	48 39 45 f0          	cmp    %rax,-0x10(%rbp)
  4008b2:	73 0d                	jae    4008c1 <_D3std8typeinfo11ti_Acdouble11TypeInfo_Ar7compareMFPvPvZi+0x107>
  4008b4:	48 8b 45 f0          	mov    -0x10(%rbp),%rax
  4008b8:	48 89 85 78 ff ff ff 	mov    %rax,-0x88(%rbp)
  4008bf:	eb 22                	jmp    4008e3 <_D3std8typeinfo11ti_Acdouble11TypeInfo_Ar7compareMFPvPvZi+0x129>
  4008c1:	48 c7 45 d0 1a 00 00 	movq   $0x1a,-0x30(%rbp)
  4008c8:	00 
  4008c9:	48 c7 45 d8 ca f0 40 	movq   $0x40f0ca,-0x28(%rbp)
  4008d0:	00 
  4008d1:	48 8b 7d d0          	mov    -0x30(%rbp),%rdi
  4008d5:	48 8b 75 d8          	mov    -0x28(%rbp),%rsi
  4008d9:	ba 51 00 00 00       	mov    $0x51,%edx
  4008de:	e8 a2 a0 00 00       	callq  40a985 <_d_array_bounds>
  4008e3:	48 8b 85 78 ff ff ff 	mov    -0x88(%rbp),%rax
  4008ea:	48 c1 e0 04          	shl    $0x4,%rax
  4008ee:	48 03 85 70 ff ff ff 	add    -0x90(%rbp),%rax
  4008f5:	48 8b 10             	mov    (%rax),%rdx
  4008f8:	48 8b 40 08          	mov    0x8(%rax),%rax
  4008fc:	48 8b 8d 68 ff ff ff 	mov    -0x98(%rbp),%rcx
  400903:	48 8b b5 60 ff ff ff 	mov    -0xa0(%rbp),%rsi
  40090a:	48 89 8d 48 ff ff ff 	mov    %rcx,-0xb8(%rbp)
  400911:	66 0f 12 95 48 ff ff 	movlpd -0xb8(%rbp),%xmm2
  400918:	ff 
  400919:	48 89 b5 48 ff ff ff 	mov    %rsi,-0xb8(%rbp)
  400920:	66 0f 12 9d 48 ff ff 	movlpd -0xb8(%rbp),%xmm3
  400927:	ff 
  400928:	48 89 95 48 ff ff ff 	mov    %rdx,-0xb8(%rbp)
  40092f:	66 0f 12 85 48 ff ff 	movlpd -0xb8(%rbp),%xmm0
  400936:	ff 
  400937:	48 89 85 48 ff ff ff 	mov    %rax,-0xb8(%rbp)
  40093e:	66 0f 12 8d 48 ff ff 	movlpd -0xb8(%rbp),%xmm1
  400945:	ff 
  400946:	e8 6c 33 00 00       	callq  403cb7 <_D3std8typeinfo10ti_cdouble10TypeInfo_r8_compareFrrZi>
  40094b:	89 45 fc             	mov    %eax,-0x4(%rbp)
	    if (c)
  40094e:	83 7d fc 00          	cmpl   $0x0,-0x4(%rbp)
  400952:	74 08                	je     40095c <_D3std8typeinfo11ti_Acdouble11TypeInfo_Ar7compareMFPvPvZi+0x1a2>
		return c;
  400954:	8b 45 fc             	mov    -0x4(%rbp),%eax
  400957:	89 45 84             	mov    %eax,-0x7c(%rbp)
  40095a:	eb 3c                	jmp    400998 <_D3std8typeinfo11ti_Acdouble11TypeInfo_Ar7compareMFPvPvZi+0x1de>
	if (s2.length < len)
	    len = s2.length;
	for (size_t u = 0; u < len; u++)
	{
	    int c = TypeInfo_r._compare(s1[u], s2[u]);
	    if (c)
  40095c:	48 ff 45 f0          	incq   -0x10(%rbp)
  400960:	e9 bd fe ff ff       	jmpq   400822 <_D3std8typeinfo11ti_Acdouble11TypeInfo_Ar7compareMFPvPvZi+0x68>
		return c;
	}
	if (s1.length < s2.length)
  400965:	48 8b 55 a0          	mov    -0x60(%rbp),%rdx
  400969:	48 8b 45 b0          	mov    -0x50(%rbp),%rax
  40096d:	48 39 c2             	cmp    %rax,%rdx
  400970:	73 09                	jae    40097b <_D3std8typeinfo11ti_Acdouble11TypeInfo_Ar7compareMFPvPvZi+0x1c1>
	    return -1;
  400972:	c7 45 84 ff ff ff ff 	movl   $0xffffffff,-0x7c(%rbp)
  400979:	eb 1d                	jmp    400998 <_D3std8typeinfo11ti_Acdouble11TypeInfo_Ar7compareMFPvPvZi+0x1de>
	else if (s1.length > s2.length)
  40097b:	48 8b 55 a0          	mov    -0x60(%rbp),%rdx
  40097f:	48 8b 45 b0          	mov    -0x50(%rbp),%rax
  400983:	48 39 c2             	cmp    %rax,%rdx
  400986:	76 09                	jbe    400991 <_D3std8typeinfo11ti_Acdouble11TypeInfo_Ar7compareMFPvPvZi+0x1d7>
	    return 1;
  400988:	c7 45 84 01 00 00 00 	movl   $0x1,-0x7c(%rbp)
  40098f:	eb 07                	jmp    400998 <_D3std8typeinfo11ti_Acdouble11TypeInfo_Ar7compareMFPvPvZi+0x1de>
	return 0;
  400991:	c7 45 84 00 00 00 00 	movl   $0x0,-0x7c(%rbp)
  400998:	8b 45 84             	mov    -0x7c(%rbp),%eax
    }
  40099b:	c9                   	leaveq 
  40099c:	c3                   	retq   

000000000040099d <_D3std8typeinfo11ti_Acdouble11TypeInfo_Ar5tsizeMFZm>:

    size_t tsize()
  40099d:	55                   	push   %rbp
  40099e:	48 89 e5             	mov    %rsp,%rbp
  4009a1:	48 83 ec 10          	sub    $0x10,%rsp
  4009a5:	48 89 7d f8          	mov    %rdi,-0x8(%rbp)
  4009a9:	48 8b 7d f8          	mov    -0x8(%rbp),%rdi
  4009ad:	e8 0a 85 00 00       	callq  408ebc <_D9invariant12_d_invariantFC6ObjectZv>
    {
	return (cdouble[]).sizeof;
  4009b2:	b8 10 00 00 00       	mov    $0x10,%eax
    }
  4009b7:	c9                   	leaveq 
  4009b8:	c3                   	retq   

00000000004009b9 <_D3std8typeinfo11ti_Acdouble11TypeInfo_Ar5flagsMFZk>:

    uint flags()
  4009b9:	55                   	push   %rbp
  4009ba:	48 89 e5             	mov    %rsp,%rbp
  4009bd:	48 83 ec 10          	sub    $0x10,%rsp
  4009c1:	48 89 7d f8          	mov    %rdi,-0x8(%rbp)
  4009c5:	48 8b 7d f8          	mov    -0x8(%rbp),%rdi
  4009c9:	e8 ee 84 00 00       	callq  408ebc <_D9invariant12_d_invariantFC6ObjectZv>
    {
	return 1;
  4009ce:	b8 01 00 00 00       	mov    $0x1,%eax
    }
  4009d3:	c9                   	leaveq 
  4009d4:	c3                   	retq   

00000000004009d5 <_D3std8typeinfo11ti_Acdouble11TypeInfo_Ar4nextMFZC8TypeInfo>:

    TypeInfo next()
  4009d5:	55                   	push   %rbp
  4009d6:	48 89 e5             	mov    %rsp,%rbp
  4009d9:	48 83 ec 10          	sub    $0x10,%rsp
  4009dd:	48 89 7d f8          	mov    %rdi,-0x8(%rbp)
  4009e1:	48 8b 7d f8          	mov    -0x8(%rbp),%rdi
  4009e5:	e8 d2 84 00 00       	callq  408ebc <_D9invariant12_d_invariantFC6ObjectZv>
    {
	return typeid(cdouble);
  4009ea:	48 c7 c0 f0 01 41 00 	mov    $0x4101f0,%rax
    }
  4009f1:	c9                   	leaveq 
  4009f2:	c3                   	retq   
  4009f3:	90                   	nop    

00000000004009f4 <_D3std8typeinfo10ti_Acfloat11TypeInfo_Aq8toStringMFZAa>:

// cfloat[]

class TypeInfo_Aq : TypeInfo
{
    char[] toString() { return "cfloat[]"; }
  4009f4:	55                   	push   %rbp
  4009f5:	48 89 e5             	mov    %rsp,%rbp
  4009f8:	53                   	push   %rbx
  4009f9:	48 83 ec 08          	sub    $0x8,%rsp
  4009fd:	48 89 fb             	mov    %rdi,%rbx
  400a00:	48 89 75 f0          	mov    %rsi,-0x10(%rbp)
  400a04:	48 8b 7d f0          	mov    -0x10(%rbp),%rdi
  400a08:	e8 af 84 00 00       	callq  408ebc <_D9invariant12_d_invariantFC6ObjectZv>
  400a0d:	48 c7 03 08 00 00 00 	movq   $0x8,(%rbx)
  400a14:	48 c7 43 08 a0 f1 40 	movq   $0x40f1a0,0x8(%rbx)
  400a1b:	00 
  400a1c:	48 89 d8             	mov    %rbx,%rax
  400a1f:	48 83 c4 08          	add    $0x8,%rsp
  400a23:	5b                   	pop    %rbx
  400a24:	c9                   	leaveq 
  400a25:	c3                   	retq   

0000000000400a26 <_D3std8typeinfo10ti_Acfloat11TypeInfo_Aq7getHashMFPvZm>:

    hash_t getHash(void *p)
  400a26:	55                   	push   %rbp
  400a27:	48 89 e5             	mov    %rsp,%rbp
  400a2a:	48 83 ec 40          	sub    $0x40,%rsp
  400a2e:	48 89 7d c8          	mov    %rdi,-0x38(%rbp)
  400a32:	48 89 75 c0          	mov    %rsi,-0x40(%rbp)
  400a36:	48 8b 7d c8          	mov    -0x38(%rbp),%rdi
  400a3a:	e8 7d 84 00 00       	callq  408ebc <_D9invariant12_d_invariantFC6ObjectZv>
    {	cfloat[] s = *cast(cfloat[]*)p;
  400a3f:	48 8b 55 c0          	mov    -0x40(%rbp),%rdx
  400a43:	48 8b 02             	mov    (%rdx),%rax
  400a46:	48 89 45 d0          	mov    %rax,-0x30(%rbp)
  400a4a:	48 8b 42 08          	mov    0x8(%rdx),%rax
  400a4e:	48 89 45 d8          	mov    %rax,-0x28(%rbp)
	size_t len = s.length;
  400a52:	48 8b 45 d0          	mov    -0x30(%rbp),%rax
  400a56:	48 89 45 f8          	mov    %rax,-0x8(%rbp)
	cfloat *str = s.ptr;
  400a5a:	48 8b 45 d8          	mov    -0x28(%rbp),%rax
  400a5e:	48 89 45 f0          	mov    %rax,-0x10(%rbp)
	hash_t hash = 0;
  400a62:	48 c7 45 e8 00 00 00 	movq   $0x0,-0x18(%rbp)
  400a69:	00 

	while (len)
  400a6a:	48 83 7d f8 00       	cmpq   $0x0,-0x8(%rbp)
  400a6f:	0f 95 c0             	setne  %al
  400a72:	83 f0 01             	xor    $0x1,%eax
  400a75:	84 c0                	test   %al,%al
  400a77:	75 47                	jne    400ac0 <_D3std8typeinfo10ti_Acfloat11TypeInfo_Aq7getHashMFPvZm+0x9a>
	{
	    hash *= 9;
  400a79:	48 8b 55 e8          	mov    -0x18(%rbp),%rdx
  400a7d:	48 89 d0             	mov    %rdx,%rax
  400a80:	48 c1 e0 03          	shl    $0x3,%rax
  400a84:	48 01 d0             	add    %rdx,%rax
  400a87:	48 89 45 e8          	mov    %rax,-0x18(%rbp)
	    hash += (cast(uint *)str)[0];
  400a8b:	48 8b 55 f0          	mov    -0x10(%rbp),%rdx
  400a8f:	b8 00 00 00 00       	mov    $0x0,%eax
  400a94:	48 8d 04 02          	lea    (%rdx,%rax,1),%rax
  400a98:	8b 00                	mov    (%rax),%eax
  400a9a:	89 c0                	mov    %eax,%eax
  400a9c:	48 01 45 e8          	add    %rax,-0x18(%rbp)
	    hash += (cast(uint *)str)[1];
  400aa0:	48 8b 55 f0          	mov    -0x10(%rbp),%rdx
  400aa4:	b8 04 00 00 00       	mov    $0x4,%eax
  400aa9:	48 8d 04 02          	lea    (%rdx,%rax,1),%rax
  400aad:	8b 00                	mov    (%rax),%eax
  400aaf:	89 c0                	mov    %eax,%eax
  400ab1:	48 01 45 e8          	add    %rax,-0x18(%rbp)
	    str++;
  400ab5:	48 83 45 f0 08       	addq   $0x8,-0x10(%rbp)
	    len--;
  400aba:	48 ff 4d f8          	decq   -0x8(%rbp)
  400abe:	eb aa                	jmp    400a6a <_D3std8typeinfo10ti_Acfloat11TypeInfo_Aq7getHashMFPvZm+0x44>
	}

	return hash;
  400ac0:	48 8b 45 e8          	mov    -0x18(%rbp),%rax
    }
  400ac4:	c9                   	leaveq 
  400ac5:	c3                   	retq   

0000000000400ac6 <_D3std8typeinfo10ti_Acfloat11TypeInfo_Aq6equalsMFPvPvZi>:

    int equals(void *p1, void *p2)
  400ac6:	55                   	push   %rbp
  400ac7:	48 89 e5             	mov    %rsp,%rbp
  400aca:	48 81 ec c0 00 00 00 	sub    $0xc0,%rsp
  400ad1:	48 89 7d 98          	mov    %rdi,-0x68(%rbp)
  400ad5:	48 89 75 90          	mov    %rsi,-0x70(%rbp)
  400ad9:	48 89 55 88          	mov    %rdx,-0x78(%rbp)
  400add:	48 8b 7d 98          	mov    -0x68(%rbp),%rdi
  400ae1:	e8 d6 83 00 00       	callq  408ebc <_D9invariant12_d_invariantFC6ObjectZv>
    {
	cfloat[] s1 = *cast(cfloat[]*)p1;
  400ae6:	48 8b 55 90          	mov    -0x70(%rbp),%rdx
  400aea:	48 8b 02             	mov    (%rdx),%rax
  400aed:	48 89 45 a0          	mov    %rax,-0x60(%rbp)
  400af1:	48 8b 42 08          	mov    0x8(%rdx),%rax
  400af5:	48 89 45 a8          	mov    %rax,-0x58(%rbp)
	cfloat[] s2 = *cast(cfloat[]*)p2;
  400af9:	48 8b 55 88          	mov    -0x78(%rbp),%rdx
  400afd:	48 8b 02             	mov    (%rdx),%rax
  400b00:	48 89 45 b0          	mov    %rax,-0x50(%rbp)
  400b04:	48 8b 42 08          	mov    0x8(%rdx),%rax
  400b08:	48 89 45 b8          	mov    %rax,-0x48(%rbp)
	size_t len = s1.length;
  400b0c:	48 8b 45 a0          	mov    -0x60(%rbp),%rax
  400b10:	48 89 45 e8          	mov    %rax,-0x18(%rbp)

	if (len != s2.length)
  400b14:	48 8b 45 b0          	mov    -0x50(%rbp),%rax
  400b18:	48 39 45 e8          	cmp    %rax,-0x18(%rbp)
  400b1c:	74 0f                	je     400b2d <_D3std8typeinfo10ti_Acfloat11TypeInfo_Aq6equalsMFPvPvZi+0x67>
	    return 0;
  400b1e:	c7 85 4c ff ff ff 00 	movl   $0x0,-0xb4(%rbp)
  400b25:	00 00 00 
  400b28:	e9 44 01 00 00       	jmpq   400c71 <_D3std8typeinfo10ti_Acfloat11TypeInfo_Aq6equalsMFPvPvZi+0x1ab>
	for (size_t u = 0; u < len; u++)
  400b2d:	48 c7 45 f0 00 00 00 	movq   $0x0,-0x10(%rbp)
  400b34:	00 
  400b35:	48 8b 45 f0          	mov    -0x10(%rbp),%rax
  400b39:	48 3b 45 e8          	cmp    -0x18(%rbp),%rax
  400b3d:	0f 92 c0             	setb   %al
  400b40:	83 f0 01             	xor    $0x1,%eax
  400b43:	84 c0                	test   %al,%al
  400b45:	0f 85 1c 01 00 00    	jne    400c67 <_D3std8typeinfo10ti_Acfloat11TypeInfo_Aq6equalsMFPvPvZi+0x1a1>
	{
	    int c = TypeInfo_q._equals(s1[u], s2[u]);
  400b4b:	48 8b 45 b8          	mov    -0x48(%rbp),%rax
  400b4f:	48 89 85 50 ff ff ff 	mov    %rax,-0xb0(%rbp)
  400b56:	48 8b 45 b0          	mov    -0x50(%rbp),%rax
  400b5a:	48 39 45 f0          	cmp    %rax,-0x10(%rbp)
  400b5e:	73 0d                	jae    400b6d <_D3std8typeinfo10ti_Acfloat11TypeInfo_Aq6equalsMFPvPvZi+0xa7>
  400b60:	48 8b 45 f0          	mov    -0x10(%rbp),%rax
  400b64:	48 89 85 58 ff ff ff 	mov    %rax,-0xa8(%rbp)
  400b6b:	eb 22                	jmp    400b8f <_D3std8typeinfo10ti_Acfloat11TypeInfo_Aq6equalsMFPvPvZi+0xc9>
  400b6d:	48 c7 45 c0 19 00 00 	movq   $0x19,-0x40(%rbp)
  400b74:	00 
  400b75:	48 c7 45 c8 a9 f1 40 	movq   $0x40f1a9,-0x38(%rbp)
  400b7c:	00 
  400b7d:	48 8b 7d c0          	mov    -0x40(%rbp),%rdi
  400b81:	48 8b 75 c8          	mov    -0x38(%rbp),%rsi
  400b85:	ba 3e 00 00 00       	mov    $0x3e,%edx
  400b8a:	e8 f6 9d 00 00       	callq  40a985 <_d_array_bounds>
  400b8f:	48 8b 85 58 ff ff ff 	mov    -0xa8(%rbp),%rax
  400b96:	48 c1 e0 03          	shl    $0x3,%rax
  400b9a:	48 03 85 50 ff ff ff 	add    -0xb0(%rbp),%rax
  400ba1:	d9 00                	flds   (%rax)
  400ba3:	d9 9d 64 ff ff ff    	fstps  -0x9c(%rbp)
  400ba9:	d9 40 04             	flds   0x4(%rax)
  400bac:	d9 9d 60 ff ff ff    	fstps  -0xa0(%rbp)
  400bb2:	48 8b 45 a8          	mov    -0x58(%rbp),%rax
  400bb6:	48 89 85 68 ff ff ff 	mov    %rax,-0x98(%rbp)
  400bbd:	48 8b 45 a0          	mov    -0x60(%rbp),%rax
  400bc1:	48 39 45 f0          	cmp    %rax,-0x10(%rbp)
  400bc5:	73 0d                	jae    400bd4 <_D3std8typeinfo10ti_Acfloat11TypeInfo_Aq6equalsMFPvPvZi+0x10e>
  400bc7:	48 8b 45 f0          	mov    -0x10(%rbp),%rax
  400bcb:	48 89 85 70 ff ff ff 	mov    %rax,-0x90(%rbp)
  400bd2:	eb 22                	jmp    400bf6 <_D3std8typeinfo10ti_Acfloat11TypeInfo_Aq6equalsMFPvPvZi+0x130>
  400bd4:	48 c7 45 d0 19 00 00 	movq   $0x19,-0x30(%rbp)
  400bdb:	00 
  400bdc:	48 c7 45 d8 a9 f1 40 	movq   $0x40f1a9,-0x28(%rbp)
  400be3:	00 
  400be4:	48 8b 7d d0          	mov    -0x30(%rbp),%rdi
  400be8:	48 8b 75 d8          	mov    -0x28(%rbp),%rsi
  400bec:	ba 3e 00 00 00       	mov    $0x3e,%edx
  400bf1:	e8 8f 9d 00 00       	callq  40a985 <_d_array_bounds>
  400bf6:	48 8b 85 70 ff ff ff 	mov    -0x90(%rbp),%rax
  400bfd:	48 c1 e0 03          	shl    $0x3,%rax
  400c01:	48 03 85 68 ff ff ff 	add    -0x98(%rbp),%rax
  400c08:	8b 08                	mov    (%rax),%ecx
  400c0a:	8b 70 04             	mov    0x4(%rax),%esi
  400c0d:	8b 85 64 ff ff ff    	mov    -0x9c(%rbp),%eax
  400c13:	8b 95 60 ff ff ff    	mov    -0xa0(%rbp),%edx
  400c19:	89 45 80             	mov    %eax,-0x80(%rbp)
  400c1c:	89 55 84             	mov    %edx,-0x7c(%rbp)
  400c1f:	48 8b 7d 80          	mov    -0x80(%rbp),%rdi
  400c23:	89 c8                	mov    %ecx,%eax
  400c25:	89 f2                	mov    %esi,%edx
  400c27:	89 85 78 ff ff ff    	mov    %eax,-0x88(%rbp)
  400c2d:	89 95 7c ff ff ff    	mov    %edx,-0x84(%rbp)
  400c33:	48 8b 85 78 ff ff ff 	mov    -0x88(%rbp),%rax
  400c3a:	66 48 0f 6e cf       	movq   %rdi,%xmm1
  400c3f:	66 48 0f 6e c0       	movq   %rax,%xmm0
  400c44:	e8 3b 33 00 00       	callq  403f84 <_D3std8typeinfo9ti_cfloat10TypeInfo_q7_equalsFqqZi>
  400c49:	89 45 fc             	mov    %eax,-0x4(%rbp)
	    if (c == 0)
  400c4c:	83 7d fc 00          	cmpl   $0x0,-0x4(%rbp)
  400c50:	75 0c                	jne    400c5e <_D3std8typeinfo10ti_Acfloat11TypeInfo_Aq6equalsMFPvPvZi+0x198>
		return 0;
  400c52:	c7 85 4c ff ff ff 00 	movl   $0x0,-0xb4(%rbp)
  400c59:	00 00 00 
  400c5c:	eb 13                	jmp    400c71 <_D3std8typeinfo10ti_Acfloat11TypeInfo_Aq6equalsMFPvPvZi+0x1ab>
	if (len != s2.length)
	    return 0;
	for (size_t u = 0; u < len; u++)
	{
	    int c = TypeInfo_q._equals(s1[u], s2[u]);
	    if (c == 0)
  400c5e:	48 ff 45 f0          	incq   -0x10(%rbp)
  400c62:	e9 ce fe ff ff       	jmpq   400b35 <_D3std8typeinfo10ti_Acfloat11TypeInfo_Aq6equalsMFPvPvZi+0x6f>
		return 0;
	}
	return 1;
  400c67:	c7 85 4c ff ff ff 01 	movl   $0x1,-0xb4(%rbp)
  400c6e:	00 00 00 
  400c71:	8b 85 4c ff ff ff    	mov    -0xb4(%rbp),%eax
    }
  400c77:	c9                   	leaveq 
  400c78:	c3                   	retq   

0000000000400c79 <_D3std8typeinfo10ti_Acfloat11TypeInfo_Aq7compareMFPvPvZi>:

    int compare(void *p1, void *p2)
  400c79:	55                   	push   %rbp
  400c7a:	48 89 e5             	mov    %rsp,%rbp
  400c7d:	48 81 ec c0 00 00 00 	sub    $0xc0,%rsp
  400c84:	48 89 7d 98          	mov    %rdi,-0x68(%rbp)
  400c88:	48 89 75 90          	mov    %rsi,-0x70(%rbp)
  400c8c:	48 89 55 88          	mov    %rdx,-0x78(%rbp)
  400c90:	48 8b 7d 98          	mov    -0x68(%rbp),%rdi
  400c94:	e8 23 82 00 00       	callq  408ebc <_D9invariant12_d_invariantFC6ObjectZv>
    {
	cfloat[] s1 = *cast(cfloat[]*)p1;
  400c99:	48 8b 55 90          	mov    -0x70(%rbp),%rdx
  400c9d:	48 8b 02             	mov    (%rdx),%rax
  400ca0:	48 89 45 a0          	mov    %rax,-0x60(%rbp)
  400ca4:	48 8b 42 08          	mov    0x8(%rdx),%rax
  400ca8:	48 89 45 a8          	mov    %rax,-0x58(%rbp)
	cfloat[] s2 = *cast(cfloat[]*)p2;
  400cac:	48 8b 55 88          	mov    -0x78(%rbp),%rdx
  400cb0:	48 8b 02             	mov    (%rdx),%rax
  400cb3:	48 89 45 b0          	mov    %rax,-0x50(%rbp)
  400cb7:	48 8b 42 08          	mov    0x8(%rdx),%rax
  400cbb:	48 89 45 b8          	mov    %rax,-0x48(%rbp)
	size_t len = s1.length;
  400cbf:	48 8b 45 a0          	mov    -0x60(%rbp),%rax
  400cc3:	48 89 45 e8          	mov    %rax,-0x18(%rbp)

	if (s2.length < len)
  400cc7:	48 8b 45 b0          	mov    -0x50(%rbp),%rax
  400ccb:	48 3b 45 e8          	cmp    -0x18(%rbp),%rax
  400ccf:	73 08                	jae    400cd9 <_D3std8typeinfo10ti_Acfloat11TypeInfo_Aq7compareMFPvPvZi+0x60>
	    len = s2.length;
  400cd1:	48 8b 45 b0          	mov    -0x50(%rbp),%rax
  400cd5:	48 89 45 e8          	mov    %rax,-0x18(%rbp)
	for (size_t u = 0; u < len; u++)
  400cd9:	48 c7 45 f0 00 00 00 	movq   $0x0,-0x10(%rbp)
  400ce0:	00 
  400ce1:	48 8b 45 f0          	mov    -0x10(%rbp),%rax
  400ce5:	48 3b 45 e8          	cmp    -0x18(%rbp),%rax
  400ce9:	0f 92 c0             	setb   %al
  400cec:	83 f0 01             	xor    $0x1,%eax
  400cef:	84 c0                	test   %al,%al
  400cf1:	0f 85 1b 01 00 00    	jne    400e12 <_D3std8typeinfo10ti_Acfloat11TypeInfo_Aq7compareMFPvPvZi+0x199>
	{
	    int c = TypeInfo_q._compare(s1[u], s2[u]);
  400cf7:	48 8b 45 b8          	mov    -0x48(%rbp),%rax
  400cfb:	48 89 85 48 ff ff ff 	mov    %rax,-0xb8(%rbp)
  400d02:	48 8b 45 b0          	mov    -0x50(%rbp),%rax
  400d06:	48 39 45 f0          	cmp    %rax,-0x10(%rbp)
  400d0a:	73 0d                	jae    400d19 <_D3std8typeinfo10ti_Acfloat11TypeInfo_Aq7compareMFPvPvZi+0xa0>
  400d0c:	48 8b 45 f0          	mov    -0x10(%rbp),%rax
  400d10:	48 89 85 50 ff ff ff 	mov    %rax,-0xb0(%rbp)
  400d17:	eb 22                	jmp    400d3b <_D3std8typeinfo10ti_Acfloat11TypeInfo_Aq7compareMFPvPvZi+0xc2>
  400d19:	48 c7 45 c0 19 00 00 	movq   $0x19,-0x40(%rbp)
  400d20:	00 
  400d21:	48 c7 45 c8 a9 f1 40 	movq   $0x40f1a9,-0x38(%rbp)
  400d28:	00 
  400d29:	48 8b 7d c0          	mov    -0x40(%rbp),%rdi
  400d2d:	48 8b 75 c8          	mov    -0x38(%rbp),%rsi
  400d31:	ba 4f 00 00 00       	mov    $0x4f,%edx
  400d36:	e8 4a 9c 00 00       	callq  40a985 <_d_array_bounds>
  400d3b:	48 8b 85 50 ff ff ff 	mov    -0xb0(%rbp),%rax
  400d42:	48 c1 e0 03          	shl    $0x3,%rax
  400d46:	48 03 85 48 ff ff ff 	add    -0xb8(%rbp),%rax
  400d4d:	d9 00                	flds   (%rax)
  400d4f:	d9 9d 5c ff ff ff    	fstps  -0xa4(%rbp)
  400d55:	d9 40 04             	flds   0x4(%rax)
  400d58:	d9 9d 58 ff ff ff    	fstps  -0xa8(%rbp)
  400d5e:	48 8b 45 a8          	mov    -0x58(%rbp),%rax
  400d62:	48 89 85 60 ff ff ff 	mov    %rax,-0xa0(%rbp)
  400d69:	48 8b 45 a0          	mov    -0x60(%rbp),%rax
  400d6d:	48 39 45 f0          	cmp    %rax,-0x10(%rbp)
  400d71:	73 0d                	jae    400d80 <_D3std8typeinfo10ti_Acfloat11TypeInfo_Aq7compareMFPvPvZi+0x107>
  400d73:	48 8b 45 f0          	mov    -0x10(%rbp),%rax
  400d77:	48 89 85 68 ff ff ff 	mov    %rax,-0x98(%rbp)
  400d7e:	eb 22                	jmp    400da2 <_D3std8typeinfo10ti_Acfloat11TypeInfo_Aq7compareMFPvPvZi+0x129>
  400d80:	48 c7 45 d0 19 00 00 	movq   $0x19,-0x30(%rbp)
  400d87:	00 
  400d88:	48 c7 45 d8 a9 f1 40 	movq   $0x40f1a9,-0x28(%rbp)
  400d8f:	00 
  400d90:	48 8b 7d d0          	mov    -0x30(%rbp),%rdi
  400d94:	48 8b 75 d8          	mov    -0x28(%rbp),%rsi
  400d98:	ba 4f 00 00 00       	mov    $0x4f,%edx
  400d9d:	e8 e3 9b 00 00       	callq  40a985 <_d_array_bounds>
  400da2:	48 8b 85 68 ff ff ff 	mov    -0x98(%rbp),%rax
  400da9:	48 c1 e0 03          	shl    $0x3,%rax
  400dad:	48 03 85 60 ff ff ff 	add    -0xa0(%rbp),%rax
  400db4:	8b 08                	mov    (%rax),%ecx
  400db6:	8b 70 04             	mov    0x4(%rax),%esi
  400db9:	8b 85 5c ff ff ff    	mov    -0xa4(%rbp),%eax
  400dbf:	8b 95 58 ff ff ff    	mov    -0xa8(%rbp),%edx
  400dc5:	89 45 80             	mov    %eax,-0x80(%rbp)
  400dc8:	89 55 84             	mov    %edx,-0x7c(%rbp)
  400dcb:	48 8b 7d 80          	mov    -0x80(%rbp),%rdi
  400dcf:	89 c8                	mov    %ecx,%eax
  400dd1:	89 f2                	mov    %esi,%edx
  400dd3:	89 85 78 ff ff ff    	mov    %eax,-0x88(%rbp)
  400dd9:	89 95 7c ff ff ff    	mov    %edx,-0x84(%rbp)
  400ddf:	48 8b 85 78 ff ff ff 	mov    -0x88(%rbp),%rax
  400de6:	66 48 0f 6e cf       	movq   %rdi,%xmm1
  400deb:	66 48 0f 6e c0       	movq   %rax,%xmm0
  400df0:	e8 d9 31 00 00       	callq  403fce <_D3std8typeinfo9ti_cfloat10TypeInfo_q8_compareFqqZi>
  400df5:	89 45 fc             	mov    %eax,-0x4(%rbp)
	    if (c)
  400df8:	83 7d fc 00          	cmpl   $0x0,-0x4(%rbp)
  400dfc:	74 0b                	je     400e09 <_D3std8typeinfo10ti_Acfloat11TypeInfo_Aq7compareMFPvPvZi+0x190>
		return c;
  400dfe:	8b 45 fc             	mov    -0x4(%rbp),%eax
  400e01:	89 85 74 ff ff ff    	mov    %eax,-0x8c(%rbp)
  400e07:	eb 45                	jmp    400e4e <_D3std8typeinfo10ti_Acfloat11TypeInfo_Aq7compareMFPvPvZi+0x1d5>
	if (s2.length < len)
	    len = s2.length;
	for (size_t u = 0; u < len; u++)
	{
	    int c = TypeInfo_q._compare(s1[u], s2[u]);
	    if (c)
  400e09:	48 ff 45 f0          	incq   -0x10(%rbp)
  400e0d:	e9 cf fe ff ff       	jmpq   400ce1 <_D3std8typeinfo10ti_Acfloat11TypeInfo_Aq7compareMFPvPvZi+0x68>
		return c;
	}
	if (s1.length < s2.length)
  400e12:	48 8b 55 a0          	mov    -0x60(%rbp),%rdx
  400e16:	48 8b 45 b0          	mov    -0x50(%rbp),%rax
  400e1a:	48 39 c2             	cmp    %rax,%rdx
  400e1d:	73 0c                	jae    400e2b <_D3std8typeinfo10ti_Acfloat11TypeInfo_Aq7compareMFPvPvZi+0x1b2>
	    return -1;
  400e1f:	c7 85 74 ff ff ff ff 	movl   $0xffffffff,-0x8c(%rbp)
  400e26:	ff ff ff 
  400e29:	eb 23                	jmp    400e4e <_D3std8typeinfo10ti_Acfloat11TypeInfo_Aq7compareMFPvPvZi+0x1d5>
	else if (s1.length > s2.length)
  400e2b:	48 8b 55 a0          	mov    -0x60(%rbp),%rdx
  400e2f:	48 8b 45 b0          	mov    -0x50(%rbp),%rax
  400e33:	48 39 c2             	cmp    %rax,%rdx
  400e36:	76 0c                	jbe    400e44 <_D3std8typeinfo10ti_Acfloat11TypeInfo_Aq7compareMFPvPvZi+0x1cb>
	    return 1;
  400e38:	c7 85 74 ff ff ff 01 	movl   $0x1,-0x8c(%rbp)
  400e3f:	00 00 00 
  400e42:	eb 0a                	jmp    400e4e <_D3std8typeinfo10ti_Acfloat11TypeInfo_Aq7compareMFPvPvZi+0x1d5>
	return 0;
  400e44:	c7 85 74 ff ff ff 00 	movl   $0x0,-0x8c(%rbp)
  400e4b:	00 00 00 
  400e4e:	8b 85 74 ff ff ff    	mov    -0x8c(%rbp),%eax
    }
  400e54:	c9                   	leaveq 
  400e55:	c3                   	retq   

0000000000400e56 <_D3std8typeinfo10ti_Acfloat11TypeInfo_Aq5tsizeMFZm>:

    size_t tsize()
  400e56:	55                   	push   %rbp
  400e57:	48 89 e5             	mov    %rsp,%rbp
  400e5a:	48 83 ec 10          	sub    $0x10,%rsp
  400e5e:	48 89 7d f8          	mov    %rdi,-0x8(%rbp)
  400e62:	48 8b 7d f8          	mov    -0x8(%rbp),%rdi
  400e66:	e8 51 80 00 00       	callq  408ebc <_D9invariant12_d_invariantFC6ObjectZv>
    {
	return (cfloat[]).sizeof;
  400e6b:	b8 10 00 00 00       	mov    $0x10,%eax
    }
  400e70:	c9                   	leaveq 
  400e71:	c3                   	retq   

0000000000400e72 <_D3std8typeinfo10ti_Acfloat11TypeInfo_Aq5flagsMFZk>:

    uint flags()
  400e72:	55                   	push   %rbp
  400e73:	48 89 e5             	mov    %rsp,%rbp
  400e76:	48 83 ec 10          	sub    $0x10,%rsp
  400e7a:	48 89 7d f8          	mov    %rdi,-0x8(%rbp)
  400e7e:	48 8b 7d f8          	mov    -0x8(%rbp),%rdi
  400e82:	e8 35 80 00 00       	callq  408ebc <_D9invariant12_d_invariantFC6ObjectZv>
    {
	return 1;
  400e87:	b8 01 00 00 00       	mov    $0x1,%eax
    }
  400e8c:	c9                   	leaveq 
  400e8d:	c3                   	retq   

0000000000400e8e <_D3std8typeinfo10ti_Acfloat11TypeInfo_Aq4nextMFZC8TypeInfo>:

    TypeInfo next()
  400e8e:	55                   	push   %rbp
  400e8f:	48 89 e5             	mov    %rsp,%rbp
  400e92:	48 83 ec 10          	sub    $0x10,%rsp
  400e96:	48 89 7d f8          	mov    %rdi,-0x8(%rbp)
  400e9a:	48 8b 7d f8          	mov    -0x8(%rbp),%rdi
  400e9e:	e8 19 80 00 00       	callq  408ebc <_D9invariant12_d_invariantFC6ObjectZv>
    {
	return typeid(cfloat);
  400ea3:	48 c7 c0 b0 02 41 00 	mov    $0x4102b0,%rax
    }
  400eaa:	c9                   	leaveq 
  400eab:	c3                   	retq   

0000000000400eac <_D3std8typeinfo9ti_Acreal11TypeInfo_Ac8toStringMFZAa>:

// creal[]

class TypeInfo_Ac : TypeInfo
{
    char[] toString() { return "creal[]"; }
  400eac:	55                   	push   %rbp
  400ead:	48 89 e5             	mov    %rsp,%rbp
  400eb0:	53                   	push   %rbx
  400eb1:	48 83 ec 08          	sub    $0x8,%rsp
  400eb5:	48 89 fb             	mov    %rdi,%rbx
  400eb8:	48 89 75 f0          	mov    %rsi,-0x10(%rbp)
  400ebc:	48 8b 7d f0          	mov    -0x10(%rbp),%rdi
  400ec0:	e8 f7 7f 00 00       	callq  408ebc <_D9invariant12_d_invariantFC6ObjectZv>
  400ec5:	48 c7 03 07 00 00 00 	movq   $0x7,(%rbx)
  400ecc:	48 c7 43 08 80 f2 40 	movq   $0x40f280,0x8(%rbx)
  400ed3:	00 
  400ed4:	48 89 d8             	mov    %rbx,%rax
  400ed7:	48 83 c4 08          	add    $0x8,%rsp
  400edb:	5b                   	pop    %rbx
  400edc:	c9                   	leaveq 
  400edd:	c3                   	retq   

0000000000400ede <_D3std8typeinfo9ti_Acreal11TypeInfo_Ac7getHashMFPvZm>:

    hash_t getHash(void *p)
  400ede:	55                   	push   %rbp
  400edf:	48 89 e5             	mov    %rsp,%rbp
  400ee2:	48 83 ec 40          	sub    $0x40,%rsp
  400ee6:	48 89 7d c8          	mov    %rdi,-0x38(%rbp)
  400eea:	48 89 75 c0          	mov    %rsi,-0x40(%rbp)
  400eee:	48 8b 7d c8          	mov    -0x38(%rbp),%rdi
  400ef2:	e8 c5 7f 00 00       	callq  408ebc <_D9invariant12_d_invariantFC6ObjectZv>
    {	creal[] s = *cast(creal[]*)p;
  400ef7:	48 8b 55 c0          	mov    -0x40(%rbp),%rdx
  400efb:	48 8b 02             	mov    (%rdx),%rax
  400efe:	48 89 45 d0          	mov    %rax,-0x30(%rbp)
  400f02:	48 8b 42 08          	mov    0x8(%rdx),%rax
  400f06:	48 89 45 d8          	mov    %rax,-0x28(%rbp)
	size_t len = s.length;
  400f0a:	48 8b 45 d0          	mov    -0x30(%rbp),%rax
  400f0e:	48 89 45 f8          	mov    %rax,-0x8(%rbp)
	creal *str = s.ptr;
  400f12:	48 8b 45 d8          	mov    -0x28(%rbp),%rax
  400f16:	48 89 45 f0          	mov    %rax,-0x10(%rbp)
	hash_t hash = 0;
  400f1a:	48 c7 45 e8 00 00 00 	movq   $0x0,-0x18(%rbp)
  400f21:	00 

	while (len)
  400f22:	48 83 7d f8 00       	cmpq   $0x0,-0x8(%rbp)
  400f27:	0f 95 c0             	setne  %al
  400f2a:	83 f0 01             	xor    $0x1,%eax
  400f2d:	84 c0                	test   %al,%al
  400f2f:	0f 85 89 00 00 00    	jne    400fbe <_D3std8typeinfo9ti_Acreal11TypeInfo_Ac7getHashMFPvZm+0xe0>
	{
	    hash *= 9;
  400f35:	48 8b 55 e8          	mov    -0x18(%rbp),%rdx
  400f39:	48 89 d0             	mov    %rdx,%rax
  400f3c:	48 c1 e0 03          	shl    $0x3,%rax
  400f40:	48 01 d0             	add    %rdx,%rax
  400f43:	48 89 45 e8          	mov    %rax,-0x18(%rbp)
	    hash += (cast(uint *)str)[0];
  400f47:	48 8b 55 f0          	mov    -0x10(%rbp),%rdx
  400f4b:	b8 00 00 00 00       	mov    $0x0,%eax
  400f50:	48 8d 04 02          	lea    (%rdx,%rax,1),%rax
  400f54:	8b 00                	mov    (%rax),%eax
  400f56:	89 c0                	mov    %eax,%eax
  400f58:	48 01 45 e8          	add    %rax,-0x18(%rbp)
	    hash += (cast(uint *)str)[1];
  400f5c:	48 8b 55 f0          	mov    -0x10(%rbp),%rdx
  400f60:	b8 04 00 00 00       	mov    $0x4,%eax
  400f65:	48 8d 04 02          	lea    (%rdx,%rax,1),%rax
  400f69:	8b 00                	mov    (%rax),%eax
  400f6b:	89 c0                	mov    %eax,%eax
  400f6d:	48 01 45 e8          	add    %rax,-0x18(%rbp)
	    hash += (cast(uint *)str)[2];
  400f71:	48 8b 55 f0          	mov    -0x10(%rbp),%rdx
  400f75:	b8 08 00 00 00       	mov    $0x8,%eax
  400f7a:	48 8d 04 02          	lea    (%rdx,%rax,1),%rax
  400f7e:	8b 00                	mov    (%rax),%eax
  400f80:	89 c0                	mov    %eax,%eax
  400f82:	48 01 45 e8          	add    %rax,-0x18(%rbp)
	    hash += (cast(uint *)str)[3];
  400f86:	48 8b 55 f0          	mov    -0x10(%rbp),%rdx
  400f8a:	b8 0c 00 00 00       	mov    $0xc,%eax
  400f8f:	48 8d 04 02          	lea    (%rdx,%rax,1),%rax
  400f93:	8b 00                	mov    (%rax),%eax
  400f95:	89 c0                	mov    %eax,%eax
  400f97:	48 01 45 e8          	add    %rax,-0x18(%rbp)
	    hash += (cast(uint *)str)[4];
  400f9b:	48 8b 55 f0          	mov    -0x10(%rbp),%rdx
  400f9f:	b8 10 00 00 00       	mov    $0x10,%eax
  400fa4:	48 8d 04 02          	lea    (%rdx,%rax,1),%rax
  400fa8:	8b 00                	mov    (%rax),%eax
  400faa:	89 c0                	mov    %eax,%eax
  400fac:	48 01 45 e8          	add    %rax,-0x18(%rbp)
	    str++;
  400fb0:	48 83 45 f0 20       	addq   $0x20,-0x10(%rbp)
	    len--;
  400fb5:	48 ff 4d f8          	decq   -0x8(%rbp)
  400fb9:	e9 64 ff ff ff       	jmpq   400f22 <_D3std8typeinfo9ti_Acreal11TypeInfo_Ac7getHashMFPvZm+0x44>
	}

	return hash;
  400fbe:	48 8b 45 e8          	mov    -0x18(%rbp),%rax
    }
  400fc2:	c9                   	leaveq 
  400fc3:	c3                   	retq   

0000000000400fc4 <_D3std8typeinfo9ti_Acreal11TypeInfo_Ac6equalsMFPvPvZi>:

    int equals(void *p1, void *p2)
  400fc4:	55                   	push   %rbp
  400fc5:	48 89 e5             	mov    %rsp,%rbp
  400fc8:	48 81 ec 10 01 00 00 	sub    $0x110,%rsp
  400fcf:	48 89 7d 98          	mov    %rdi,-0x68(%rbp)
  400fd3:	48 89 75 90          	mov    %rsi,-0x70(%rbp)
  400fd7:	48 89 55 88          	mov    %rdx,-0x78(%rbp)
  400fdb:	48 8b 7d 98          	mov    -0x68(%rbp),%rdi
  400fdf:	e8 d8 7e 00 00       	callq  408ebc <_D9invariant12_d_invariantFC6ObjectZv>
    {
	creal[] s1 = *cast(creal[]*)p1;
  400fe4:	48 8b 55 90          	mov    -0x70(%rbp),%rdx
  400fe8:	48 8b 02             	mov    (%rdx),%rax
  400feb:	48 89 45 a0          	mov    %rax,-0x60(%rbp)
  400fef:	48 8b 42 08          	mov    0x8(%rdx),%rax
  400ff3:	48 89 45 a8          	mov    %rax,-0x58(%rbp)
	creal[] s2 = *cast(creal[]*)p2;
  400ff7:	48 8b 55 88          	mov    -0x78(%rbp),%rdx
  400ffb:	48 8b 02             	mov    (%rdx),%rax
  400ffe:	48 89 45 b0          	mov    %rax,-0x50(%rbp)
  401002:	48 8b 42 08          	mov    0x8(%rdx),%rax
  401006:	48 89 45 b8          	mov    %rax,-0x48(%rbp)
	size_t len = s1.length;
  40100a:	48 8b 45 a0          	mov    -0x60(%rbp),%rax
  40100e:	48 89 45 e8          	mov    %rax,-0x18(%rbp)

	if (len != s2.length)
  401012:	48 8b 45 b0          	mov    -0x50(%rbp),%rax
  401016:	48 39 45 e8          	cmp    %rax,-0x18(%rbp)
  40101a:	74 0f                	je     40102b <_D3std8typeinfo9ti_Acreal11TypeInfo_Ac6equalsMFPvPvZi+0x67>
	    return 0;
  40101c:	c7 85 3c ff ff ff 00 	movl   $0x0,-0xc4(%rbp)
  401023:	00 00 00 
  401026:	e9 34 01 00 00       	jmpq   40115f <_D3std8typeinfo9ti_Acreal11TypeInfo_Ac6equalsMFPvPvZi+0x19b>
	for (size_t u = 0; u < len; u++)
  40102b:	48 c7 45 f0 00 00 00 	movq   $0x0,-0x10(%rbp)
  401032:	00 
  401033:	48 8b 45 f0          	mov    -0x10(%rbp),%rax
  401037:	48 3b 45 e8          	cmp    -0x18(%rbp),%rax
  40103b:	0f 92 c0             	setb   %al
  40103e:	83 f0 01             	xor    $0x1,%eax
  401041:	84 c0                	test   %al,%al
  401043:	0f 85 0c 01 00 00    	jne    401155 <_D3std8typeinfo9ti_Acreal11TypeInfo_Ac6equalsMFPvPvZi+0x191>
	{
	    int c = TypeInfo_c._equals(s1[u], s2[u]);
  401049:	48 8b 45 b8          	mov    -0x48(%rbp),%rax
  40104d:	48 89 85 40 ff ff ff 	mov    %rax,-0xc0(%rbp)
  401054:	48 8b 45 b0          	mov    -0x50(%rbp),%rax
  401058:	48 39 45 f0          	cmp    %rax,-0x10(%rbp)
  40105c:	73 0d                	jae    40106b <_D3std8typeinfo9ti_Acreal11TypeInfo_Ac6equalsMFPvPvZi+0xa7>
  40105e:	48 8b 45 f0          	mov    -0x10(%rbp),%rax
  401062:	48 89 85 48 ff ff ff 	mov    %rax,-0xb8(%rbp)
  401069:	eb 22                	jmp    40108d <_D3std8typeinfo9ti_Acreal11TypeInfo_Ac6equalsMFPvPvZi+0xc9>
  40106b:	48 c7 45 c0 18 00 00 	movq   $0x18,-0x40(%rbp)
  401072:	00 
  401073:	48 c7 45 c8 88 f2 40 	movq   $0x40f288,-0x38(%rbp)
  40107a:	00 
  40107b:	48 8b 7d c0          	mov    -0x40(%rbp),%rdi
  40107f:	48 8b 75 c8          	mov    -0x38(%rbp),%rsi
  401083:	ba 41 00 00 00       	mov    $0x41,%edx
  401088:	e8 f8 98 00 00       	callq  40a985 <_d_array_bounds>
  40108d:	48 8b 85 48 ff ff ff 	mov    -0xb8(%rbp),%rax
  401094:	48 c1 e0 05          	shl    $0x5,%rax
  401098:	48 03 85 40 ff ff ff 	add    -0xc0(%rbp),%rax
  40109f:	db 28                	fldt   (%rax)
  4010a1:	db bd 60 ff ff ff    	fstpt  -0xa0(%rbp)
  4010a7:	db 68 10             	fldt   0x10(%rax)
  4010aa:	db bd 50 ff ff ff    	fstpt  -0xb0(%rbp)
  4010b0:	48 8b 45 a8          	mov    -0x58(%rbp),%rax
  4010b4:	48 89 85 78 ff ff ff 	mov    %rax,-0x88(%rbp)
  4010bb:	48 8b 45 a0          	mov    -0x60(%rbp),%rax
  4010bf:	48 39 45 f0          	cmp    %rax,-0x10(%rbp)
  4010c3:	73 0a                	jae    4010cf <_D3std8typeinfo9ti_Acreal11TypeInfo_Ac6equalsMFPvPvZi+0x10b>
  4010c5:	48 8b 45 f0          	mov    -0x10(%rbp),%rax
  4010c9:	48 89 45 80          	mov    %rax,-0x80(%rbp)
  4010cd:	eb 22                	jmp    4010f1 <_D3std8typeinfo9ti_Acreal11TypeInfo_Ac6equalsMFPvPvZi+0x12d>
  4010cf:	48 c7 45 d0 18 00 00 	movq   $0x18,-0x30(%rbp)
  4010d6:	00 
  4010d7:	48 c7 45 d8 88 f2 40 	movq   $0x40f288,-0x28(%rbp)
  4010de:	00 
  4010df:	48 8b 7d d0          	mov    -0x30(%rbp),%rdi
  4010e3:	48 8b 75 d8          	mov    -0x28(%rbp),%rsi
  4010e7:	ba 41 00 00 00       	mov    $0x41,%edx
  4010ec:	e8 94 98 00 00       	callq  40a985 <_d_array_bounds>
  4010f1:	48 8b 45 80          	mov    -0x80(%rbp),%rax
  4010f5:	48 c1 e0 05          	shl    $0x5,%rax
  4010f9:	48 03 85 78 ff ff ff 	add    -0x88(%rbp),%rax
  401100:	48 8b 10             	mov    (%rax),%rdx
  401103:	8b 48 08             	mov    0x8(%rax),%ecx
  401106:	48 8b 70 10          	mov    0x10(%rax),%rsi
  40110a:	8b 78 18             	mov    0x18(%rax),%edi
  40110d:	db ad 60 ff ff ff    	fldt   -0xa0(%rbp)
  401113:	db 7c 24 20          	fstpt  0x20(%rsp)
  401117:	db ad 50 ff ff ff    	fldt   -0xb0(%rbp)
  40111d:	db 7c 24 30          	fstpt  0x30(%rsp)
  401121:	48 89 14 24          	mov    %rdx,(%rsp)
  401125:	89 4c 24 08          	mov    %ecx,0x8(%rsp)
  401129:	48 89 74 24 10       	mov    %rsi,0x10(%rsp)
  40112e:	89 7c 24 18          	mov    %edi,0x18(%rsp)
  401132:	e8 bc 32 00 00       	callq  4043f3 <_D3std8typeinfo8ti_creal10TypeInfo_c7_equalsFccZi>
  401137:	89 45 fc             	mov    %eax,-0x4(%rbp)
	    if (c == 0)
  40113a:	83 7d fc 00          	cmpl   $0x0,-0x4(%rbp)
  40113e:	75 0c                	jne    40114c <_D3std8typeinfo9ti_Acreal11TypeInfo_Ac6equalsMFPvPvZi+0x188>
		return 0;
  401140:	c7 85 3c ff ff ff 00 	movl   $0x0,-0xc4(%rbp)
  401147:	00 00 00 
  40114a:	eb 13                	jmp    40115f <_D3std8typeinfo9ti_Acreal11TypeInfo_Ac6equalsMFPvPvZi+0x19b>
	if (len != s2.length)
	    return 0;
	for (size_t u = 0; u < len; u++)
	{
	    int c = TypeInfo_c._equals(s1[u], s2[u]);
	    if (c == 0)
  40114c:	48 ff 45 f0          	incq   -0x10(%rbp)
  401150:	e9 de fe ff ff       	jmpq   401033 <_D3std8typeinfo9ti_Acreal11TypeInfo_Ac6equalsMFPvPvZi+0x6f>
		return 0;
	}
	return 1;
  401155:	c7 85 3c ff ff ff 01 	movl   $0x1,-0xc4(%rbp)
  40115c:	00 00 00 
  40115f:	8b 85 3c ff ff ff    	mov    -0xc4(%rbp),%eax
    }
  401165:	c9                   	leaveq 
  401166:	c3                   	retq   

0000000000401167 <_D3std8typeinfo9ti_Acreal11TypeInfo_Ac7compareMFPvPvZi>:

    int compare(void *p1, void *p2)
  401167:	55                   	push   %rbp
  401168:	48 89 e5             	mov    %rsp,%rbp
  40116b:	48 81 ec 00 01 00 00 	sub    $0x100,%rsp
  401172:	48 89 7d 98          	mov    %rdi,-0x68(%rbp)
  401176:	48 89 75 90          	mov    %rsi,-0x70(%rbp)
  40117a:	48 89 55 88          	mov    %rdx,-0x78(%rbp)
  40117e:	48 8b 7d 98          	mov    -0x68(%rbp),%rdi
  401182:	e8 35 7d 00 00       	callq  408ebc <_D9invariant12_d_invariantFC6ObjectZv>
    {
	creal[] s1 = *cast(creal[]*)p1;
  401187:	48 8b 55 90          	mov    -0x70(%rbp),%rdx
  40118b:	48 8b 02             	mov    (%rdx),%rax
  40118e:	48 89 45 a0          	mov    %rax,-0x60(%rbp)
  401192:	48 8b 42 08          	mov    0x8(%rdx),%rax
  401196:	48 89 45 a8          	mov    %rax,-0x58(%rbp)
	creal[] s2 = *cast(creal[]*)p2;
  40119a:	48 8b 55 88          	mov    -0x78(%rbp),%rdx
  40119e:	48 8b 02             	mov    (%rdx),%rax
  4011a1:	48 89 45 b0          	mov    %rax,-0x50(%rbp)
  4011a5:	48 8b 42 08          	mov    0x8(%rdx),%rax
  4011a9:	48 89 45 b8          	mov    %rax,-0x48(%rbp)
	size_t len = s1.length;
  4011ad:	48 8b 45 a0          	mov    -0x60(%rbp),%rax
  4011b1:	48 89 45 e8          	mov    %rax,-0x18(%rbp)

	if (s2.length < len)
  4011b5:	48 8b 45 b0          	mov    -0x50(%rbp),%rax
  4011b9:	48 3b 45 e8          	cmp    -0x18(%rbp),%rax
  4011bd:	73 08                	jae    4011c7 <_D3std8typeinfo9ti_Acreal11TypeInfo_Ac7compareMFPvPvZi+0x60>
	    len = s2.length;
  4011bf:	48 8b 45 b0          	mov    -0x50(%rbp),%rax
  4011c3:	48 89 45 e8          	mov    %rax,-0x18(%rbp)
	for (size_t u = 0; u < len; u++)
  4011c7:	48 c7 45 f0 00 00 00 	movq   $0x0,-0x10(%rbp)
  4011ce:	00 
  4011cf:	48 8b 45 f0          	mov    -0x10(%rbp),%rax
  4011d3:	48 3b 45 e8          	cmp    -0x18(%rbp),%rax
  4011d7:	0f 92 c0             	setb   %al
  4011da:	83 f0 01             	xor    $0x1,%eax
  4011dd:	84 c0                	test   %al,%al
  4011df:	0f 85 0e 01 00 00    	jne    4012f3 <_D3std8typeinfo9ti_Acreal11TypeInfo_Ac7compareMFPvPvZi+0x18c>
	{
	    int c = TypeInfo_c._compare(s1[u], s2[u]);
  4011e5:	48 8b 45 b8          	mov    -0x48(%rbp),%rax
  4011e9:	48 89 85 40 ff ff ff 	mov    %rax,-0xc0(%rbp)
  4011f0:	48 8b 45 b0          	mov    -0x50(%rbp),%rax
  4011f4:	48 39 45 f0          	cmp    %rax,-0x10(%rbp)
  4011f8:	73 0d                	jae    401207 <_D3std8typeinfo9ti_Acreal11TypeInfo_Ac7compareMFPvPvZi+0xa0>
  4011fa:	48 8b 45 f0          	mov    -0x10(%rbp),%rax
  4011fe:	48 89 85 48 ff ff ff 	mov    %rax,-0xb8(%rbp)
  401205:	eb 22                	jmp    401229 <_D3std8typeinfo9ti_Acreal11TypeInfo_Ac7compareMFPvPvZi+0xc2>
  401207:	48 c7 45 c0 18 00 00 	movq   $0x18,-0x40(%rbp)
  40120e:	00 
  40120f:	48 c7 45 c8 88 f2 40 	movq   $0x40f288,-0x38(%rbp)
  401216:	00 
  401217:	48 8b 7d c0          	mov    -0x40(%rbp),%rdi
  40121b:	48 8b 75 c8          	mov    -0x38(%rbp),%rsi
  40121f:	ba 52 00 00 00       	mov    $0x52,%edx
  401224:	e8 5c 97 00 00       	callq  40a985 <_d_array_bounds>
  401229:	48 8b 85 48 ff ff ff 	mov    -0xb8(%rbp),%rax
  401230:	48 c1 e0 05          	shl    $0x5,%rax
  401234:	48 03 85 40 ff ff ff 	add    -0xc0(%rbp),%rax
  40123b:	db 28                	fldt   (%rax)
  40123d:	db bd 60 ff ff ff    	fstpt  -0xa0(%rbp)
  401243:	db 68 10             	fldt   0x10(%rax)
  401246:	db bd 50 ff ff ff    	fstpt  -0xb0(%rbp)
  40124c:	48 8b 45 a8          	mov    -0x58(%rbp),%rax
  401250:	48 89 85 70 ff ff ff 	mov    %rax,-0x90(%rbp)
  401257:	48 8b 45 a0          	mov    -0x60(%rbp),%rax
  40125b:	48 39 45 f0          	cmp    %rax,-0x10(%rbp)
  40125f:	73 0d                	jae    40126e <_D3std8typeinfo9ti_Acreal11TypeInfo_Ac7compareMFPvPvZi+0x107>
  401261:	48 8b 45 f0          	mov    -0x10(%rbp),%rax
  401265:	48 89 85 78 ff ff ff 	mov    %rax,-0x88(%rbp)
  40126c:	eb 22                	jmp    401290 <_D3std8typeinfo9ti_Acreal11TypeInfo_Ac7compareMFPvPvZi+0x129>
  40126e:	48 c7 45 d0 18 00 00 	movq   $0x18,-0x30(%rbp)
  401275:	00 
  401276:	48 c7 45 d8 88 f2 40 	movq   $0x40f288,-0x28(%rbp)
  40127d:	00 
  40127e:	48 8b 7d d0          	mov    -0x30(%rbp),%rdi
  401282:	48 8b 75 d8          	mov    -0x28(%rbp),%rsi
  401286:	ba 52 00 00 00       	mov    $0x52,%edx
  40128b:	e8 f5 96 00 00       	callq  40a985 <_d_array_bounds>
  401290:	48 8b 85 78 ff ff ff 	mov    -0x88(%rbp),%rax
  401297:	48 c1 e0 05          	shl    $0x5,%rax
  40129b:	48 03 85 70 ff ff ff 	add    -0x90(%rbp),%rax
  4012a2:	48 8b 10             	mov    (%rax),%rdx
  4012a5:	8b 48 08             	mov    0x8(%rax),%ecx
  4012a8:	48 8b 70 10          	mov    0x10(%rax),%rsi
  4012ac:	8b 78 18             	mov    0x18(%rax),%edi
  4012af:	db ad 60 ff ff ff    	fldt   -0xa0(%rbp)
  4012b5:	db 7c 24 20          	fstpt  0x20(%rsp)
  4012b9:	db ad 50 ff ff ff    	fldt   -0xb0(%rbp)
  4012bf:	db 7c 24 30          	fstpt  0x30(%rsp)
  4012c3:	48 89 14 24          	mov    %rdx,(%rsp)
  4012c7:	89 4c 24 08          	mov    %ecx,0x8(%rsp)
  4012cb:	48 89 74 24 10       	mov    %rsi,0x10(%rsp)
  4012d0:	89 7c 24 18          	mov    %edi,0x18(%rsp)
  4012d4:	e8 4b 31 00 00       	callq  404424 <_D3std8typeinfo8ti_creal10TypeInfo_c8_compareFccZi>
  4012d9:	89 45 fc             	mov    %eax,-0x4(%rbp)
	    if (c)
  4012dc:	83 7d fc 00          	cmpl   $0x0,-0x4(%rbp)
  4012e0:	74 08                	je     4012ea <_D3std8typeinfo9ti_Acreal11TypeInfo_Ac7compareMFPvPvZi+0x183>
		return c;
  4012e2:	8b 45 fc             	mov    -0x4(%rbp),%eax
  4012e5:	89 45 84             	mov    %eax,-0x7c(%rbp)
  4012e8:	eb 3c                	jmp    401326 <_D3std8typeinfo9ti_Acreal11TypeInfo_Ac7compareMFPvPvZi+0x1bf>
	if (s2.length < len)
	    len = s2.length;
	for (size_t u = 0; u < len; u++)
	{
	    int c = TypeInfo_c._compare(s1[u], s2[u]);
	    if (c)
  4012ea:	48 ff 45 f0          	incq   -0x10(%rbp)
  4012ee:	e9 dc fe ff ff       	jmpq   4011cf <_D3std8typeinfo9ti_Acreal11TypeInfo_Ac7compareMFPvPvZi+0x68>
		return c;
	}
	if (s1.length < s2.length)
  4012f3:	48 8b 55 a0          	mov    -0x60(%rbp),%rdx
  4012f7:	48 8b 45 b0          	mov    -0x50(%rbp),%rax
  4012fb:	48 39 c2             	cmp    %rax,%rdx
  4012fe:	73 09                	jae    401309 <_D3std8typeinfo9ti_Acreal11TypeInfo_Ac7compareMFPvPvZi+0x1a2>
	    return -1;
  401300:	c7 45 84 ff ff ff ff 	movl   $0xffffffff,-0x7c(%rbp)
  401307:	eb 1d                	jmp    401326 <_D3std8typeinfo9ti_Acreal11TypeInfo_Ac7compareMFPvPvZi+0x1bf>
	else if (s1.length > s2.length)
  401309:	48 8b 55 a0          	mov    -0x60(%rbp),%rdx
  40130d:	48 8b 45 b0          	mov    -0x50(%rbp),%rax
  401311:	48 39 c2             	cmp    %rax,%rdx
  401314:	76 09                	jbe    40131f <_D3std8typeinfo9ti_Acreal11TypeInfo_Ac7compareMFPvPvZi+0x1b8>
	    return 1;
  401316:	c7 45 84 01 00 00 00 	movl   $0x1,-0x7c(%rbp)
  40131d:	eb 07                	jmp    401326 <_D3std8typeinfo9ti_Acreal11TypeInfo_Ac7compareMFPvPvZi+0x1bf>
	return 0;
  40131f:	c7 45 84 00 00 00 00 	movl   $0x0,-0x7c(%rbp)
  401326:	8b 45 84             	mov    -0x7c(%rbp),%eax
    }
  401329:	c9                   	leaveq 
  40132a:	c3                   	retq   

000000000040132b <_D3std8typeinfo9ti_Acreal11TypeInfo_Ac5tsizeMFZm>:

    size_t tsize()
  40132b:	55                   	push   %rbp
  40132c:	48 89 e5             	mov    %rsp,%rbp
  40132f:	48 83 ec 10          	sub    $0x10,%rsp
  401333:	48 89 7d f8          	mov    %rdi,-0x8(%rbp)
  401337:	48 8b 7d f8          	mov    -0x8(%rbp),%rdi
  40133b:	e8 7c 7b 00 00       	callq  408ebc <_D9invariant12_d_invariantFC6ObjectZv>
    {
	return (creal[]).sizeof;
  401340:	b8 10 00 00 00       	mov    $0x10,%eax
    }
  401345:	c9                   	leaveq 
  401346:	c3                   	retq   

0000000000401347 <_D3std8typeinfo9ti_Acreal11TypeInfo_Ac5flagsMFZk>:

    uint flags()
  401347:	55                   	push   %rbp
  401348:	48 89 e5             	mov    %rsp,%rbp
  40134b:	48 83 ec 10          	sub    $0x10,%rsp
  40134f:	48 89 7d f8          	mov    %rdi,-0x8(%rbp)
  401353:	48 8b 7d f8          	mov    -0x8(%rbp),%rdi
  401357:	e8 60 7b 00 00       	callq  408ebc <_D9invariant12_d_invariantFC6ObjectZv>
    {
	return 1;
  40135c:	b8 01 00 00 00       	mov    $0x1,%eax
    }
  401361:	c9                   	leaveq 
  401362:	c3                   	retq   

0000000000401363 <_D3std8typeinfo9ti_Acreal11TypeInfo_Ac4nextMFZC8TypeInfo>:

    TypeInfo next()
  401363:	55                   	push   %rbp
  401364:	48 89 e5             	mov    %rsp,%rbp
  401367:	48 83 ec 10          	sub    $0x10,%rsp
  40136b:	48 89 7d f8          	mov    %rdi,-0x8(%rbp)
  40136f:	48 8b 7d f8          	mov    -0x8(%rbp),%rdi
  401373:	e8 44 7b 00 00       	callq  408ebc <_D9invariant12_d_invariantFC6ObjectZv>
    {
	return typeid(creal);
  401378:	48 c7 c0 30 04 41 00 	mov    $0x410430,%rax
    }
  40137f:	c9                   	leaveq 
  401380:	c3                   	retq   
  401381:	90                   	nop    
  401382:	90                   	nop    
  401383:	90                   	nop    

0000000000401384 <_D3std8typeinfo10ti_Adouble11TypeInfo_Ad8toStringMFZAa>:

// double[]

class TypeInfo_Ad : TypeInfo
{
    char[] toString() { return "double[]"; }
  401384:	55                   	push   %rbp
  401385:	48 89 e5             	mov    %rsp,%rbp
  401388:	53                   	push   %rbx
  401389:	48 83 ec 08          	sub    $0x8,%rsp
  40138d:	48 89 fb             	mov    %rdi,%rbx
  401390:	48 89 75 f0          	mov    %rsi,-0x10(%rbp)
  401394:	48 8b 7d f0          	mov    -0x10(%rbp),%rdi
  401398:	e8 1f 7b 00 00       	callq  408ebc <_D9invariant12_d_invariantFC6ObjectZv>
  40139d:	48 c7 03 08 00 00 00 	movq   $0x8,(%rbx)
  4013a4:	48 c7 43 08 60 f3 40 	movq   $0x40f360,0x8(%rbx)
  4013ab:	00 
  4013ac:	48 89 d8             	mov    %rbx,%rax
  4013af:	48 83 c4 08          	add    $0x8,%rsp
  4013b3:	5b                   	pop    %rbx
  4013b4:	c9                   	leaveq 
  4013b5:	c3                   	retq   

00000000004013b6 <_D3std8typeinfo10ti_Adouble11TypeInfo_Ad7getHashMFPvZm>:

    hash_t getHash(void *p)
  4013b6:	55                   	push   %rbp
  4013b7:	48 89 e5             	mov    %rsp,%rbp
  4013ba:	48 83 ec 40          	sub    $0x40,%rsp
  4013be:	48 89 7d c8          	mov    %rdi,-0x38(%rbp)
  4013c2:	48 89 75 c0          	mov    %rsi,-0x40(%rbp)
  4013c6:	48 8b 7d c8          	mov    -0x38(%rbp),%rdi
  4013ca:	e8 ed 7a 00 00       	callq  408ebc <_D9invariant12_d_invariantFC6ObjectZv>
    {	double[] s = *cast(double[]*)p;
  4013cf:	48 8b 55 c0          	mov    -0x40(%rbp),%rdx
  4013d3:	48 8b 02             	mov    (%rdx),%rax
  4013d6:	48 89 45 d0          	mov    %rax,-0x30(%rbp)
  4013da:	48 8b 42 08          	mov    0x8(%rdx),%rax
  4013de:	48 89 45 d8          	mov    %rax,-0x28(%rbp)
	size_t len = s.length;
  4013e2:	48 8b 45 d0          	mov    -0x30(%rbp),%rax
  4013e6:	48 89 45 f8          	mov    %rax,-0x8(%rbp)
	auto str = s.ptr;
  4013ea:	48 8b 45 d8          	mov    -0x28(%rbp),%rax
  4013ee:	48 89 45 f0          	mov    %rax,-0x10(%rbp)
	hash_t hash = 0;
  4013f2:	48 c7 45 e8 00 00 00 	movq   $0x0,-0x18(%rbp)
  4013f9:	00 

	while (len)
  4013fa:	48 83 7d f8 00       	cmpq   $0x0,-0x8(%rbp)
  4013ff:	0f 95 c0             	setne  %al
  401402:	83 f0 01             	xor    $0x1,%eax
  401405:	84 c0                	test   %al,%al
  401407:	75 47                	jne    401450 <_D3std8typeinfo10ti_Adouble11TypeInfo_Ad7getHashMFPvZm+0x9a>
	{
	    hash *= 9;
  401409:	48 8b 55 e8          	mov    -0x18(%rbp),%rdx
  40140d:	48 89 d0             	mov    %rdx,%rax
  401410:	48 c1 e0 03          	shl    $0x3,%rax
  401414:	48 01 d0             	add    %rdx,%rax
  401417:	48 89 45 e8          	mov    %rax,-0x18(%rbp)
	    hash += (cast(uint *)str)[0];
  40141b:	48 8b 55 f0          	mov    -0x10(%rbp),%rdx
  40141f:	b8 00 00 00 00       	mov    $0x0,%eax
  401424:	48 8d 04 02          	lea    (%rdx,%rax,1),%rax
  401428:	8b 00                	mov    (%rax),%eax
  40142a:	89 c0                	mov    %eax,%eax
  40142c:	48 01 45 e8          	add    %rax,-0x18(%rbp)
	    hash += (cast(uint *)str)[1];
  401430:	48 8b 55 f0          	mov    -0x10(%rbp),%rdx
  401434:	b8 04 00 00 00       	mov    $0x4,%eax
  401439:	48 8d 04 02          	lea    (%rdx,%rax,1),%rax
  40143d:	8b 00                	mov    (%rax),%eax
  40143f:	89 c0                	mov    %eax,%eax
  401441:	48 01 45 e8          	add    %rax,-0x18(%rbp)
	    str++;
  401445:	48 83 45 f0 08       	addq   $0x8,-0x10(%rbp)
	    len--;
  40144a:	48 ff 4d f8          	decq   -0x8(%rbp)
  40144e:	eb aa                	jmp    4013fa <_D3std8typeinfo10ti_Adouble11TypeInfo_Ad7getHashMFPvZm+0x44>
	}

	return hash;
  401450:	48 8b 45 e8          	mov    -0x18(%rbp),%rax
    }
  401454:	c9                   	leaveq 
  401455:	c3                   	retq   

0000000000401456 <_D3std8typeinfo10ti_Adouble11TypeInfo_Ad6equalsMFPvPvZi>:

    int equals(void *p1, void *p2)
  401456:	55                   	push   %rbp
  401457:	48 89 e5             	mov    %rsp,%rbp
  40145a:	48 81 ec c0 00 00 00 	sub    $0xc0,%rsp
  401461:	48 89 7d 98          	mov    %rdi,-0x68(%rbp)
  401465:	48 89 75 90          	mov    %rsi,-0x70(%rbp)
  401469:	48 89 55 88          	mov    %rdx,-0x78(%rbp)
  40146d:	48 8b 7d 98          	mov    -0x68(%rbp),%rdi
  401471:	e8 46 7a 00 00       	callq  408ebc <_D9invariant12_d_invariantFC6ObjectZv>
    {
	double[] s1 = *cast(double[]*)p1;
  401476:	48 8b 55 90          	mov    -0x70(%rbp),%rdx
  40147a:	48 8b 02             	mov    (%rdx),%rax
  40147d:	48 89 45 a0          	mov    %rax,-0x60(%rbp)
  401481:	48 8b 42 08          	mov    0x8(%rdx),%rax
  401485:	48 89 45 a8          	mov    %rax,-0x58(%rbp)
	double[] s2 = *cast(double[]*)p2;
  401489:	48 8b 55 88          	mov    -0x78(%rbp),%rdx
  40148d:	48 8b 02             	mov    (%rdx),%rax
  401490:	48 89 45 b0          	mov    %rax,-0x50(%rbp)
  401494:	48 8b 42 08          	mov    0x8(%rdx),%rax
  401498:	48 89 45 b8          	mov    %rax,-0x48(%rbp)
	size_t len = s1.length;
  40149c:	48 8b 45 a0          	mov    -0x60(%rbp),%rax
  4014a0:	48 89 45 e8          	mov    %rax,-0x18(%rbp)

	if (len != s2.length)
  4014a4:	48 8b 45 b0          	mov    -0x50(%rbp),%rax
  4014a8:	48 39 45 e8          	cmp    %rax,-0x18(%rbp)
  4014ac:	74 0f                	je     4014bd <_D3std8typeinfo10ti_Adouble11TypeInfo_Ad6equalsMFPvPvZi+0x67>
	    return 0;
  4014ae:	c7 85 5c ff ff ff 00 	movl   $0x0,-0xa4(%rbp)
  4014b5:	00 00 00 
  4014b8:	e9 13 01 00 00       	jmpq   4015d0 <_D3std8typeinfo10ti_Adouble11TypeInfo_Ad6equalsMFPvPvZi+0x17a>
	for (size_t u = 0; u < len; u++)
  4014bd:	48 c7 45 f0 00 00 00 	movq   $0x0,-0x10(%rbp)
  4014c4:	00 
  4014c5:	48 8b 45 f0          	mov    -0x10(%rbp),%rax
  4014c9:	48 3b 45 e8          	cmp    -0x18(%rbp),%rax
  4014cd:	0f 92 c0             	setb   %al
  4014d0:	83 f0 01             	xor    $0x1,%eax
  4014d3:	84 c0                	test   %al,%al
  4014d5:	0f 85 eb 00 00 00    	jne    4015c6 <_D3std8typeinfo10ti_Adouble11TypeInfo_Ad6equalsMFPvPvZi+0x170>
	{
	    int c = TypeInfo_d._equals(s1[u], s2[u]);
  4014db:	48 8b 45 b8          	mov    -0x48(%rbp),%rax
  4014df:	48 89 85 60 ff ff ff 	mov    %rax,-0xa0(%rbp)
  4014e6:	48 8b 45 b0          	mov    -0x50(%rbp),%rax
  4014ea:	48 39 45 f0          	cmp    %rax,-0x10(%rbp)
  4014ee:	73 0d                	jae    4014fd <_D3std8typeinfo10ti_Adouble11TypeInfo_Ad6equalsMFPvPvZi+0xa7>
  4014f0:	48 8b 45 f0          	mov    -0x10(%rbp),%rax
  4014f4:	48 89 85 68 ff ff ff 	mov    %rax,-0x98(%rbp)
  4014fb:	eb 22                	jmp    40151f <_D3std8typeinfo10ti_Adouble11TypeInfo_Ad6equalsMFPvPvZi+0xc9>
  4014fd:	48 c7 45 c0 19 00 00 	movq   $0x19,-0x40(%rbp)
  401504:	00 
  401505:	48 c7 45 c8 69 f3 40 	movq   $0x40f369,-0x38(%rbp)
  40150c:	00 
  40150d:	48 8b 7d c0          	mov    -0x40(%rbp),%rdi
  401511:	48 8b 75 c8          	mov    -0x38(%rbp),%rsi
  401515:	ba 3e 00 00 00       	mov    $0x3e,%edx
  40151a:	e8 66 94 00 00       	callq  40a985 <_d_array_bounds>
  40151f:	48 8b 85 68 ff ff ff 	mov    -0x98(%rbp),%rax
  401526:	48 c1 e0 03          	shl    $0x3,%rax
  40152a:	48 03 85 60 ff ff ff 	add    -0xa0(%rbp),%rax
  401531:	dd 00                	fldl   (%rax)
  401533:	dd 9d 70 ff ff ff    	fstpl  -0x90(%rbp)
  401539:	48 8b 45 a8          	mov    -0x58(%rbp),%rax
  40153d:	48 89 85 78 ff ff ff 	mov    %rax,-0x88(%rbp)
  401544:	48 8b 45 a0          	mov    -0x60(%rbp),%rax
  401548:	48 39 45 f0          	cmp    %rax,-0x10(%rbp)
  40154c:	73 0a                	jae    401558 <_D3std8typeinfo10ti_Adouble11TypeInfo_Ad6equalsMFPvPvZi+0x102>
  40154e:	48 8b 45 f0          	mov    -0x10(%rbp),%rax
  401552:	48 89 45 80          	mov    %rax,-0x80(%rbp)
  401556:	eb 22                	jmp    40157a <_D3std8typeinfo10ti_Adouble11TypeInfo_Ad6equalsMFPvPvZi+0x124>
  401558:	48 c7 45 d0 19 00 00 	movq   $0x19,-0x30(%rbp)
  40155f:	00 
  401560:	48 c7 45 d8 69 f3 40 	movq   $0x40f369,-0x28(%rbp)
  401567:	00 
  401568:	48 8b 7d d0          	mov    -0x30(%rbp),%rdi
  40156c:	48 8b 75 d8          	mov    -0x28(%rbp),%rsi
  401570:	ba 3e 00 00 00       	mov    $0x3e,%edx
  401575:	e8 0b 94 00 00       	callq  40a985 <_d_array_bounds>
  40157a:	48 8b 45 80          	mov    -0x80(%rbp),%rax
  40157e:	48 c1 e0 03          	shl    $0x3,%rax
  401582:	48 03 85 78 ff ff ff 	add    -0x88(%rbp),%rax
  401589:	48 8b 00             	mov    (%rax),%rax
  40158c:	66 0f 12 8d 70 ff ff 	movlpd -0x90(%rbp),%xmm1
  401593:	ff 
  401594:	48 89 85 48 ff ff ff 	mov    %rax,-0xb8(%rbp)
  40159b:	66 0f 12 85 48 ff ff 	movlpd -0xb8(%rbp),%xmm0
  4015a2:	ff 
  4015a3:	e8 04 34 00 00       	callq  4049ac <_D3std8typeinfo9ti_double10TypeInfo_d7_equalsFddZi>
  4015a8:	89 45 fc             	mov    %eax,-0x4(%rbp)
	    if (c == 0)
  4015ab:	83 7d fc 00          	cmpl   $0x0,-0x4(%rbp)
  4015af:	75 0c                	jne    4015bd <_D3std8typeinfo10ti_Adouble11TypeInfo_Ad6equalsMFPvPvZi+0x167>
		return 0;
  4015b1:	c7 85 5c ff ff ff 00 	movl   $0x0,-0xa4(%rbp)
  4015b8:	00 00 00 
  4015bb:	eb 13                	jmp    4015d0 <_D3std8typeinfo10ti_Adouble11TypeInfo_Ad6equalsMFPvPvZi+0x17a>
	if (len != s2.length)
	    return 0;
	for (size_t u = 0; u < len; u++)
	{
	    int c = TypeInfo_d._equals(s1[u], s2[u]);
	    if (c == 0)
  4015bd:	48 ff 45 f0          	incq   -0x10(%rbp)
  4015c1:	e9 ff fe ff ff       	jmpq   4014c5 <_D3std8typeinfo10ti_Adouble11TypeInfo_Ad6equalsMFPvPvZi+0x6f>
		return 0;
	}
	return 1;
  4015c6:	c7 85 5c ff ff ff 01 	movl   $0x1,-0xa4(%rbp)
  4015cd:	00 00 00 
  4015d0:	8b 85 5c ff ff ff    	mov    -0xa4(%rbp),%eax
    }
  4015d6:	c9                   	leaveq 
  4015d7:	c3                   	retq   

00000000004015d8 <_D3std8typeinfo10ti_Adouble11TypeInfo_Ad7compareMFPvPvZi>:

    int compare(void *p1, void *p2)
  4015d8:	55                   	push   %rbp
  4015d9:	48 89 e5             	mov    %rsp,%rbp
  4015dc:	48 81 ec c0 00 00 00 	sub    $0xc0,%rsp
  4015e3:	48 89 7d 98          	mov    %rdi,-0x68(%rbp)
  4015e7:	48 89 75 90          	mov    %rsi,-0x70(%rbp)
  4015eb:	48 89 55 88          	mov    %rdx,-0x78(%rbp)
  4015ef:	48 8b 7d 98          	mov    -0x68(%rbp),%rdi
  4015f3:	e8 c4 78 00 00       	callq  408ebc <_D9invariant12_d_invariantFC6ObjectZv>
    {
	double[] s1 = *cast(double[]*)p1;
  4015f8:	48 8b 55 90          	mov    -0x70(%rbp),%rdx
  4015fc:	48 8b 02             	mov    (%rdx),%rax
  4015ff:	48 89 45 a0          	mov    %rax,-0x60(%rbp)
  401603:	48 8b 42 08          	mov    0x8(%rdx),%rax
  401607:	48 89 45 a8          	mov    %rax,-0x58(%rbp)
	double[] s2 = *cast(double[]*)p2;
  40160b:	48 8b 55 88          	mov    -0x78(%rbp),%rdx
  40160f:	48 8b 02             	mov    (%rdx),%rax
  401612:	48 89 45 b0          	mov    %rax,-0x50(%rbp)
  401616:	48 8b 42 08          	mov    0x8(%rdx),%rax
  40161a:	48 89 45 b8          	mov    %rax,-0x48(%rbp)
	size_t len = s1.length;
  40161e:	48 8b 45 a0          	mov    -0x60(%rbp),%rax
  401622:	48 89 45 e8          	mov    %rax,-0x18(%rbp)

	if (s2.length < len)
  401626:	48 8b 45 b0          	mov    -0x50(%rbp),%rax
  40162a:	48 3b 45 e8          	cmp    -0x18(%rbp),%rax
  40162e:	73 08                	jae    401638 <_D3std8typeinfo10ti_Adouble11TypeInfo_Ad7compareMFPvPvZi+0x60>
	    len = s2.length;
  401630:	48 8b 45 b0          	mov    -0x50(%rbp),%rax
  401634:	48 89 45 e8          	mov    %rax,-0x18(%rbp)
	for (size_t u = 0; u < len; u++)
  401638:	48 c7 45 f0 00 00 00 	movq   $0x0,-0x10(%rbp)
  40163f:	00 
  401640:	48 8b 45 f0          	mov    -0x10(%rbp),%rax
  401644:	48 3b 45 e8          	cmp    -0x18(%rbp),%rax
  401648:	0f 92 c0             	setb   %al
  40164b:	83 f0 01             	xor    $0x1,%eax
  40164e:	84 c0                	test   %al,%al
  401650:	0f 85 ed 00 00 00    	jne    401743 <_D3std8typeinfo10ti_Adouble11TypeInfo_Ad7compareMFPvPvZi+0x16b>
	{
	    int c = TypeInfo_d._compare(s1[u], s2[u]);
  401656:	48 8b 45 b8          	mov    -0x48(%rbp),%rax
  40165a:	48 89 85 58 ff ff ff 	mov    %rax,-0xa8(%rbp)
  401661:	48 8b 45 b0          	mov    -0x50(%rbp),%rax
  401665:	48 39 45 f0          	cmp    %rax,-0x10(%rbp)
  401669:	73 0d                	jae    401678 <_D3std8typeinfo10ti_Adouble11TypeInfo_Ad7compareMFPvPvZi+0xa0>
  40166b:	48 8b 45 f0          	mov    -0x10(%rbp),%rax
  40166f:	48 89 85 60 ff ff ff 	mov    %rax,-0xa0(%rbp)
  401676:	eb 22                	jmp    40169a <_D3std8typeinfo10ti_Adouble11TypeInfo_Ad7compareMFPvPvZi+0xc2>
  401678:	48 c7 45 c0 19 00 00 	movq   $0x19,-0x40(%rbp)
  40167f:	00 
  401680:	48 c7 45 c8 69 f3 40 	movq   $0x40f369,-0x38(%rbp)
  401687:	00 
  401688:	48 8b 7d c0          	mov    -0x40(%rbp),%rdi
  40168c:	48 8b 75 c8          	mov    -0x38(%rbp),%rsi
  401690:	ba 4f 00 00 00       	mov    $0x4f,%edx
  401695:	e8 eb 92 00 00       	callq  40a985 <_d_array_bounds>
  40169a:	48 8b 85 60 ff ff ff 	mov    -0xa0(%rbp),%rax
  4016a1:	48 c1 e0 03          	shl    $0x3,%rax
  4016a5:	48 03 85 58 ff ff ff 	add    -0xa8(%rbp),%rax
  4016ac:	dd 00                	fldl   (%rax)
  4016ae:	dd 9d 68 ff ff ff    	fstpl  -0x98(%rbp)
  4016b4:	48 8b 45 a8          	mov    -0x58(%rbp),%rax
  4016b8:	48 89 85 70 ff ff ff 	mov    %rax,-0x90(%rbp)
  4016bf:	48 8b 45 a0          	mov    -0x60(%rbp),%rax
  4016c3:	48 39 45 f0          	cmp    %rax,-0x10(%rbp)
  4016c7:	73 0d                	jae    4016d6 <_D3std8typeinfo10ti_Adouble11TypeInfo_Ad7compareMFPvPvZi+0xfe>
  4016c9:	48 8b 45 f0          	mov    -0x10(%rbp),%rax
  4016cd:	48 89 85 78 ff ff ff 	mov    %rax,-0x88(%rbp)
  4016d4:	eb 22                	jmp    4016f8 <_D3std8typeinfo10ti_Adouble11TypeInfo_Ad7compareMFPvPvZi+0x120>
  4016d6:	48 c7 45 d0 19 00 00 	movq   $0x19,-0x30(%rbp)
  4016dd:	00 
  4016de:	48 c7 45 d8 69 f3 40 	movq   $0x40f369,-0x28(%rbp)
  4016e5:	00 
  4016e6:	48 8b 7d d0          	mov    -0x30(%rbp),%rdi
  4016ea:	48 8b 75 d8          	mov    -0x28(%rbp),%rsi
  4016ee:	ba 4f 00 00 00       	mov    $0x4f,%edx
  4016f3:	e8 8d 92 00 00       	callq  40a985 <_d_array_bounds>
  4016f8:	48 8b 85 78 ff ff ff 	mov    -0x88(%rbp),%rax
  4016ff:	48 c1 e0 03          	shl    $0x3,%rax
  401703:	48 03 85 70 ff ff ff 	add    -0x90(%rbp),%rax
  40170a:	48 8b 00             	mov    (%rax),%rax
  40170d:	66 0f 12 8d 68 ff ff 	movlpd -0x98(%rbp),%xmm1
  401714:	ff 
  401715:	48 89 85 48 ff ff ff 	mov    %rax,-0xb8(%rbp)
  40171c:	66 0f 12 85 48 ff ff 	movlpd -0xb8(%rbp),%xmm0
  401723:	ff 
  401724:	e8 d1 32 00 00       	callq  4049fa <_D3std8typeinfo9ti_double10TypeInfo_d8_compareFddZi>
  401729:	89 45 fc             	mov    %eax,-0x4(%rbp)
	    if (c)
  40172c:	83 7d fc 00          	cmpl   $0x0,-0x4(%rbp)
  401730:	74 08                	je     40173a <_D3std8typeinfo10ti_Adouble11TypeInfo_Ad7compareMFPvPvZi+0x162>
		return c;
  401732:	8b 45 fc             	mov    -0x4(%rbp),%eax
  401735:	89 45 84             	mov    %eax,-0x7c(%rbp)
  401738:	eb 3c                	jmp    401776 <_D3std8typeinfo10ti_Adouble11TypeInfo_Ad7compareMFPvPvZi+0x19e>
	if (s2.length < len)
	    len = s2.length;
	for (size_t u = 0; u < len; u++)
	{
	    int c = TypeInfo_d._compare(s1[u], s2[u]);
	    if (c)
  40173a:	48 ff 45 f0          	incq   -0x10(%rbp)
  40173e:	e9 fd fe ff ff       	jmpq   401640 <_D3std8typeinfo10ti_Adouble11TypeInfo_Ad7compareMFPvPvZi+0x68>
		return c;
	}
	if (s1.length < s2.length)
  401743:	48 8b 55 a0          	mov    -0x60(%rbp),%rdx
  401747:	48 8b 45 b0          	mov    -0x50(%rbp),%rax
  40174b:	48 39 c2             	cmp    %rax,%rdx
  40174e:	73 09                	jae    401759 <_D3std8typeinfo10ti_Adouble11TypeInfo_Ad7compareMFPvPvZi+0x181>
	    return -1;
  401750:	c7 45 84 ff ff ff ff 	movl   $0xffffffff,-0x7c(%rbp)
  401757:	eb 1d                	jmp    401776 <_D3std8typeinfo10ti_Adouble11TypeInfo_Ad7compareMFPvPvZi+0x19e>
	else if (s1.length > s2.length)
  401759:	48 8b 55 a0          	mov    -0x60(%rbp),%rdx
  40175d:	48 8b 45 b0          	mov    -0x50(%rbp),%rax
  401761:	48 39 c2             	cmp    %rax,%rdx
  401764:	76 09                	jbe    40176f <_D3std8typeinfo10ti_Adouble11TypeInfo_Ad7compareMFPvPvZi+0x197>
	    return 1;
  401766:	c7 45 84 01 00 00 00 	movl   $0x1,-0x7c(%rbp)
  40176d:	eb 07                	jmp    401776 <_D3std8typeinfo10ti_Adouble11TypeInfo_Ad7compareMFPvPvZi+0x19e>
	return 0;
  40176f:	c7 45 84 00 00 00 00 	movl   $0x0,-0x7c(%rbp)
  401776:	8b 45 84             	mov    -0x7c(%rbp),%eax
    }
  401779:	c9                   	leaveq 
  40177a:	c3                   	retq   

000000000040177b <_D3std8typeinfo10ti_Adouble11TypeInfo_Ad5tsizeMFZm>:

    size_t tsize()
  40177b:	55                   	push   %rbp
  40177c:	48 89 e5             	mov    %rsp,%rbp
  40177f:	48 83 ec 10          	sub    $0x10,%rsp
  401783:	48 89 7d f8          	mov    %rdi,-0x8(%rbp)
  401787:	48 8b 7d f8          	mov    -0x8(%rbp),%rdi
  40178b:	e8 2c 77 00 00       	callq  408ebc <_D9invariant12_d_invariantFC6ObjectZv>
    {
	return (double[]).sizeof;
  401790:	b8 10 00 00 00       	mov    $0x10,%eax
    }
  401795:	c9                   	leaveq 
  401796:	c3                   	retq   

0000000000401797 <_D3std8typeinfo10ti_Adouble11TypeInfo_Ad5flagsMFZk>:

    uint flags()
  401797:	55                   	push   %rbp
  401798:	48 89 e5             	mov    %rsp,%rbp
  40179b:	48 83 ec 10          	sub    $0x10,%rsp
  40179f:	48 89 7d f8          	mov    %rdi,-0x8(%rbp)
  4017a3:	48 8b 7d f8          	mov    -0x8(%rbp),%rdi
  4017a7:	e8 10 77 00 00       	callq  408ebc <_D9invariant12_d_invariantFC6ObjectZv>
    {
	return 1;
  4017ac:	b8 01 00 00 00       	mov    $0x1,%eax
    }
  4017b1:	c9                   	leaveq 
  4017b2:	c3                   	retq   

00000000004017b3 <_D3std8typeinfo10ti_Adouble11TypeInfo_Ad4nextMFZC8TypeInfo>:

    TypeInfo next()
  4017b3:	55                   	push   %rbp
  4017b4:	48 89 e5             	mov    %rsp,%rbp
  4017b7:	48 83 ec 10          	sub    $0x10,%rsp
  4017bb:	48 89 7d f8          	mov    %rdi,-0x8(%rbp)
  4017bf:	48 8b 7d f8          	mov    -0x8(%rbp),%rdi
  4017c3:	e8 f4 76 00 00       	callq  408ebc <_D9invariant12_d_invariantFC6ObjectZv>
    {
	return typeid(double);
  4017c8:	48 c7 c0 50 06 41 00 	mov    $0x410650,%rax
    }
  4017cf:	c9                   	leaveq 
  4017d0:	c3                   	retq   

00000000004017d1 <_D3std8typeinfo10ti_Adouble11TypeInfo_Ap8toStringMFZAa>:

// idouble[]

class TypeInfo_Ap : TypeInfo_Ad
{
    char[] toString() { return "idouble[]"; }
  4017d1:	55                   	push   %rbp
  4017d2:	48 89 e5             	mov    %rsp,%rbp
  4017d5:	53                   	push   %rbx
  4017d6:	48 83 ec 08          	sub    $0x8,%rsp
  4017da:	48 89 fb             	mov    %rdi,%rbx
  4017dd:	48 89 75 f0          	mov    %rsi,-0x10(%rbp)
  4017e1:	48 8b 7d f0          	mov    -0x10(%rbp),%rdi
  4017e5:	e8 d2 76 00 00       	callq  408ebc <_D9invariant12_d_invariantFC6ObjectZv>
  4017ea:	48 c7 03 09 00 00 00 	movq   $0x9,(%rbx)
  4017f1:	48 c7 43 08 30 f4 40 	movq   $0x40f430,0x8(%rbx)
  4017f8:	00 
  4017f9:	48 89 d8             	mov    %rbx,%rax
  4017fc:	48 83 c4 08          	add    $0x8,%rsp
  401800:	5b                   	pop    %rbx
  401801:	c9                   	leaveq 
  401802:	c3                   	retq   

0000000000401803 <_D3std8typeinfo10ti_Adouble11TypeInfo_Ap4nextMFZC8TypeInfo>:

    TypeInfo next()
  401803:	55                   	push   %rbp
  401804:	48 89 e5             	mov    %rsp,%rbp
  401807:	48 83 ec 10          	sub    $0x10,%rsp
  40180b:	48 89 7d f8          	mov    %rdi,-0x8(%rbp)
  40180f:	48 8b 7d f8          	mov    -0x8(%rbp),%rdi
  401813:	e8 a4 76 00 00       	callq  408ebc <_D9invariant12_d_invariantFC6ObjectZv>
    {
	return typeid(idouble);
  401818:	48 c7 c0 d0 07 41 00 	mov    $0x4107d0,%rax
    }
  40181f:	c9                   	leaveq 
  401820:	c3                   	retq   
  401821:	90                   	nop    
  401822:	90                   	nop    
  401823:	90                   	nop    

0000000000401824 <_D3std8typeinfo9ti_Afloat11TypeInfo_Af8toStringMFZAa>:

// float[]

class TypeInfo_Af : TypeInfo
{
    char[] toString() { return "float[]"; }
  401824:	55                   	push   %rbp
  401825:	48 89 e5             	mov    %rsp,%rbp
  401828:	53                   	push   %rbx
  401829:	48 83 ec 08          	sub    $0x8,%rsp
  40182d:	48 89 fb             	mov    %rdi,%rbx
  401830:	48 89 75 f0          	mov    %rsi,-0x10(%rbp)
  401834:	48 8b 7d f0          	mov    -0x10(%rbp),%rdi
  401838:	e8 7f 76 00 00       	callq  408ebc <_D9invariant12_d_invariantFC6ObjectZv>
  40183d:	48 c7 03 07 00 00 00 	movq   $0x7,(%rbx)
  401844:	48 c7 43 08 e0 f4 40 	movq   $0x40f4e0,0x8(%rbx)
  40184b:	00 
  40184c:	48 89 d8             	mov    %rbx,%rax
  40184f:	48 83 c4 08          	add    $0x8,%rsp
  401853:	5b                   	pop    %rbx
  401854:	c9                   	leaveq 
  401855:	c3                   	retq   

0000000000401856 <_D3std8typeinfo9ti_Afloat11TypeInfo_Af7getHashMFPvZm>:

    hash_t getHash(void *p)
  401856:	55                   	push   %rbp
  401857:	48 89 e5             	mov    %rsp,%rbp
  40185a:	48 83 ec 40          	sub    $0x40,%rsp
  40185e:	48 89 7d c8          	mov    %rdi,-0x38(%rbp)
  401862:	48 89 75 c0          	mov    %rsi,-0x40(%rbp)
  401866:	48 8b 7d c8          	mov    -0x38(%rbp),%rdi
  40186a:	e8 4d 76 00 00       	callq  408ebc <_D9invariant12_d_invariantFC6ObjectZv>
    {	float[] s = *cast(float[]*)p;
  40186f:	48 8b 55 c0          	mov    -0x40(%rbp),%rdx
  401873:	48 8b 02             	mov    (%rdx),%rax
  401876:	48 89 45 d0          	mov    %rax,-0x30(%rbp)
  40187a:	48 8b 42 08          	mov    0x8(%rdx),%rax
  40187e:	48 89 45 d8          	mov    %rax,-0x28(%rbp)
	size_t len = s.length;
  401882:	48 8b 45 d0          	mov    -0x30(%rbp),%rax
  401886:	48 89 45 f8          	mov    %rax,-0x8(%rbp)
	auto str = s.ptr;
  40188a:	48 8b 45 d8          	mov    -0x28(%rbp),%rax
  40188e:	48 89 45 f0          	mov    %rax,-0x10(%rbp)
	hash_t hash = 0;
  401892:	48 c7 45 e8 00 00 00 	movq   $0x0,-0x18(%rbp)
  401899:	00 

	while (len)
  40189a:	48 83 7d f8 00       	cmpq   $0x0,-0x8(%rbp)
  40189f:	0f 95 c0             	setne  %al
  4018a2:	83 f0 01             	xor    $0x1,%eax
  4018a5:	84 c0                	test   %al,%al
  4018a7:	75 29                	jne    4018d2 <_D3std8typeinfo9ti_Afloat11TypeInfo_Af7getHashMFPvZm+0x7c>
	{
	    hash *= 9;
  4018a9:	48 8b 55 e8          	mov    -0x18(%rbp),%rdx
  4018ad:	48 89 d0             	mov    %rdx,%rax
  4018b0:	48 c1 e0 03          	shl    $0x3,%rax
  4018b4:	48 01 d0             	add    %rdx,%rax
  4018b7:	48 89 45 e8          	mov    %rax,-0x18(%rbp)
	    hash += *cast(uint *)str;
  4018bb:	48 8b 45 f0          	mov    -0x10(%rbp),%rax
  4018bf:	8b 00                	mov    (%rax),%eax
  4018c1:	89 c0                	mov    %eax,%eax
  4018c3:	48 01 45 e8          	add    %rax,-0x18(%rbp)
	    str++;
  4018c7:	48 83 45 f0 04       	addq   $0x4,-0x10(%rbp)
	    len--;
  4018cc:	48 ff 4d f8          	decq   -0x8(%rbp)
  4018d0:	eb c8                	jmp    40189a <_D3std8typeinfo9ti_Afloat11TypeInfo_Af7getHashMFPvZm+0x44>
	}

	return hash;
  4018d2:	48 8b 45 e8          	mov    -0x18(%rbp),%rax
    }
  4018d6:	c9                   	leaveq 
  4018d7:	c3                   	retq   

00000000004018d8 <_D3std8typeinfo9ti_Afloat11TypeInfo_Af6equalsMFPvPvZi>:

    int equals(void *p1, void *p2)
  4018d8:	55                   	push   %rbp
  4018d9:	48 89 e5             	mov    %rsp,%rbp
  4018dc:	48 81 ec c0 00 00 00 	sub    $0xc0,%rsp
  4018e3:	48 89 7d 98          	mov    %rdi,-0x68(%rbp)
  4018e7:	48 89 75 90          	mov    %rsi,-0x70(%rbp)
  4018eb:	48 89 55 88          	mov    %rdx,-0x78(%rbp)
  4018ef:	48 8b 7d 98          	mov    -0x68(%rbp),%rdi
  4018f3:	e8 c4 75 00 00       	callq  408ebc <_D9invariant12_d_invariantFC6ObjectZv>
    {
	float[] s1 = *cast(float[]*)p1;
  4018f8:	48 8b 55 90          	mov    -0x70(%rbp),%rdx
  4018fc:	48 8b 02             	mov    (%rdx),%rax
  4018ff:	48 89 45 a0          	mov    %rax,-0x60(%rbp)
  401903:	48 8b 42 08          	mov    0x8(%rdx),%rax
  401907:	48 89 45 a8          	mov    %rax,-0x58(%rbp)
	float[] s2 = *cast(float[]*)p2;
  40190b:	48 8b 55 88          	mov    -0x78(%rbp),%rdx
  40190f:	48 8b 02             	mov    (%rdx),%rax
  401912:	48 89 45 b0          	mov    %rax,-0x50(%rbp)
  401916:	48 8b 42 08          	mov    0x8(%rdx),%rax
  40191a:	48 89 45 b8          	mov    %rax,-0x48(%rbp)
	size_t len = s1.length;
  40191e:	48 8b 45 a0          	mov    -0x60(%rbp),%rax
  401922:	48 89 45 e8          	mov    %rax,-0x18(%rbp)

	if (len != s2.length)
  401926:	48 8b 45 b0          	mov    -0x50(%rbp),%rax
  40192a:	48 39 45 e8          	cmp    %rax,-0x18(%rbp)
  40192e:	74 0f                	je     40193f <_D3std8typeinfo9ti_Afloat11TypeInfo_Af6equalsMFPvPvZi+0x67>
	    return 0;
  401930:	c7 85 5c ff ff ff 00 	movl   $0x0,-0xa4(%rbp)
  401937:	00 00 00 
  40193a:	e9 11 01 00 00       	jmpq   401a50 <_D3std8typeinfo9ti_Afloat11TypeInfo_Af6equalsMFPvPvZi+0x178>
	for (size_t u = 0; u < len; u++)
  40193f:	48 c7 45 f0 00 00 00 	movq   $0x0,-0x10(%rbp)
  401946:	00 
  401947:	48 8b 45 f0          	mov    -0x10(%rbp),%rax
  40194b:	48 3b 45 e8          	cmp    -0x18(%rbp),%rax
  40194f:	0f 92 c0             	setb   %al
  401952:	83 f0 01             	xor    $0x1,%eax
  401955:	84 c0                	test   %al,%al
  401957:	0f 85 e9 00 00 00    	jne    401a46 <_D3std8typeinfo9ti_Afloat11TypeInfo_Af6equalsMFPvPvZi+0x16e>
	{
	    int c = TypeInfo_f._equals(s1[u], s2[u]);
  40195d:	48 8b 45 b8          	mov    -0x48(%rbp),%rax
  401961:	48 89 85 60 ff ff ff 	mov    %rax,-0xa0(%rbp)
  401968:	48 8b 45 b0          	mov    -0x50(%rbp),%rax
  40196c:	48 39 45 f0          	cmp    %rax,-0x10(%rbp)
  401970:	73 0d                	jae    40197f <_D3std8typeinfo9ti_Afloat11TypeInfo_Af6equalsMFPvPvZi+0xa7>
  401972:	48 8b 45 f0          	mov    -0x10(%rbp),%rax
  401976:	48 89 85 68 ff ff ff 	mov    %rax,-0x98(%rbp)
  40197d:	eb 22                	jmp    4019a1 <_D3std8typeinfo9ti_Afloat11TypeInfo_Af6equalsMFPvPvZi+0xc9>
  40197f:	48 c7 45 c0 18 00 00 	movq   $0x18,-0x40(%rbp)
  401986:	00 
  401987:	48 c7 45 c8 e8 f4 40 	movq   $0x40f4e8,-0x38(%rbp)
  40198e:	00 
  40198f:	48 8b 7d c0          	mov    -0x40(%rbp),%rdi
  401993:	48 8b 75 c8          	mov    -0x38(%rbp),%rsi
  401997:	ba 3d 00 00 00       	mov    $0x3d,%edx
  40199c:	e8 e4 8f 00 00       	callq  40a985 <_d_array_bounds>
  4019a1:	48 8b 85 68 ff ff ff 	mov    -0x98(%rbp),%rax
  4019a8:	48 c1 e0 02          	shl    $0x2,%rax
  4019ac:	48 03 85 60 ff ff ff 	add    -0xa0(%rbp),%rax
  4019b3:	d9 00                	flds   (%rax)
  4019b5:	d9 9d 74 ff ff ff    	fstps  -0x8c(%rbp)
  4019bb:	48 8b 45 a8          	mov    -0x58(%rbp),%rax
  4019bf:	48 89 85 78 ff ff ff 	mov    %rax,-0x88(%rbp)
  4019c6:	48 8b 45 a0          	mov    -0x60(%rbp),%rax
  4019ca:	48 39 45 f0          	cmp    %rax,-0x10(%rbp)
  4019ce:	73 0a                	jae    4019da <_D3std8typeinfo9ti_Afloat11TypeInfo_Af6equalsMFPvPvZi+0x102>
  4019d0:	48 8b 45 f0          	mov    -0x10(%rbp),%rax
  4019d4:	48 89 45 80          	mov    %rax,-0x80(%rbp)
  4019d8:	eb 22                	jmp    4019fc <_D3std8typeinfo9ti_Afloat11TypeInfo_Af6equalsMFPvPvZi+0x124>
  4019da:	48 c7 45 d0 18 00 00 	movq   $0x18,-0x30(%rbp)
  4019e1:	00 
  4019e2:	48 c7 45 d8 e8 f4 40 	movq   $0x40f4e8,-0x28(%rbp)
  4019e9:	00 
  4019ea:	48 8b 7d d0          	mov    -0x30(%rbp),%rdi
  4019ee:	48 8b 75 d8          	mov    -0x28(%rbp),%rsi
  4019f2:	ba 3d 00 00 00       	mov    $0x3d,%edx
  4019f7:	e8 89 8f 00 00       	callq  40a985 <_d_array_bounds>
  4019fc:	48 8b 45 80          	mov    -0x80(%rbp),%rax
  401a00:	48 c1 e0 02          	shl    $0x2,%rax
  401a04:	48 03 85 78 ff ff ff 	add    -0x88(%rbp),%rax
  401a0b:	8b 00                	mov    (%rax),%eax
  401a0d:	f3 0f 10 8d 74 ff ff 	movss  -0x8c(%rbp),%xmm1
  401a14:	ff 
  401a15:	89 85 4c ff ff ff    	mov    %eax,-0xb4(%rbp)
  401a1b:	f3 0f 10 85 4c ff ff 	movss  -0xb4(%rbp),%xmm0
  401a22:	ff 
  401a23:	e8 15 32 00 00       	callq  404c3d <_D3std8typeinfo8ti_float10TypeInfo_f7_equalsFffZi>
  401a28:	89 45 fc             	mov    %eax,-0x4(%rbp)
	    if (c == 0)
  401a2b:	83 7d fc 00          	cmpl   $0x0,-0x4(%rbp)
  401a2f:	75 0c                	jne    401a3d <_D3std8typeinfo9ti_Afloat11TypeInfo_Af6equalsMFPvPvZi+0x165>
		return 0;
  401a31:	c7 85 5c ff ff ff 00 	movl   $0x0,-0xa4(%rbp)
  401a38:	00 00 00 
  401a3b:	eb 13                	jmp    401a50 <_D3std8typeinfo9ti_Afloat11TypeInfo_Af6equalsMFPvPvZi+0x178>
	if (len != s2.length)
	    return 0;
	for (size_t u = 0; u < len; u++)
	{
	    int c = TypeInfo_f._equals(s1[u], s2[u]);
	    if (c == 0)
  401a3d:	48 ff 45 f0          	incq   -0x10(%rbp)
  401a41:	e9 01 ff ff ff       	jmpq   401947 <_D3std8typeinfo9ti_Afloat11TypeInfo_Af6equalsMFPvPvZi+0x6f>
		return 0;
	}
	return 1;
  401a46:	c7 85 5c ff ff ff 01 	movl   $0x1,-0xa4(%rbp)
  401a4d:	00 00 00 
  401a50:	8b 85 5c ff ff ff    	mov    -0xa4(%rbp),%eax
    }
  401a56:	c9                   	leaveq 
  401a57:	c3                   	retq   

0000000000401a58 <_D3std8typeinfo9ti_Afloat11TypeInfo_Af7compareMFPvPvZi>:

    int compare(void *p1, void *p2)
  401a58:	55                   	push   %rbp
  401a59:	48 89 e5             	mov    %rsp,%rbp
  401a5c:	48 81 ec c0 00 00 00 	sub    $0xc0,%rsp
  401a63:	48 89 7d 98          	mov    %rdi,-0x68(%rbp)
  401a67:	48 89 75 90          	mov    %rsi,-0x70(%rbp)
  401a6b:	48 89 55 88          	mov    %rdx,-0x78(%rbp)
  401a6f:	48 8b 7d 98          	mov    -0x68(%rbp),%rdi
  401a73:	e8 44 74 00 00       	callq  408ebc <_D9invariant12_d_invariantFC6ObjectZv>
    {
	float[] s1 = *cast(float[]*)p1;
  401a78:	48 8b 55 90          	mov    -0x70(%rbp),%rdx
  401a7c:	48 8b 02             	mov    (%rdx),%rax
  401a7f:	48 89 45 a0          	mov    %rax,-0x60(%rbp)
  401a83:	48 8b 42 08          	mov    0x8(%rdx),%rax
  401a87:	48 89 45 a8          	mov    %rax,-0x58(%rbp)
	float[] s2 = *cast(float[]*)p2;
  401a8b:	48 8b 55 88          	mov    -0x78(%rbp),%rdx
  401a8f:	48 8b 02             	mov    (%rdx),%rax
  401a92:	48 89 45 b0          	mov    %rax,-0x50(%rbp)
  401a96:	48 8b 42 08          	mov    0x8(%rdx),%rax
  401a9a:	48 89 45 b8          	mov    %rax,-0x48(%rbp)
	size_t len = s1.length;
  401a9e:	48 8b 45 a0          	mov    -0x60(%rbp),%rax
  401aa2:	48 89 45 e8          	mov    %rax,-0x18(%rbp)

	if (s2.length < len)
  401aa6:	48 8b 45 b0          	mov    -0x50(%rbp),%rax
  401aaa:	48 3b 45 e8          	cmp    -0x18(%rbp),%rax
  401aae:	73 08                	jae    401ab8 <_D3std8typeinfo9ti_Afloat11TypeInfo_Af7compareMFPvPvZi+0x60>
	    len = s2.length;
  401ab0:	48 8b 45 b0          	mov    -0x50(%rbp),%rax
  401ab4:	48 89 45 e8          	mov    %rax,-0x18(%rbp)
	for (size_t u = 0; u < len; u++)
  401ab8:	48 c7 45 f0 00 00 00 	movq   $0x0,-0x10(%rbp)
  401abf:	00 
  401ac0:	48 8b 45 f0          	mov    -0x10(%rbp),%rax
  401ac4:	48 3b 45 e8          	cmp    -0x18(%rbp),%rax
  401ac8:	0f 92 c0             	setb   %al
  401acb:	83 f0 01             	xor    $0x1,%eax
  401ace:	84 c0                	test   %al,%al
  401ad0:	0f 85 eb 00 00 00    	jne    401bc1 <_D3std8typeinfo9ti_Afloat11TypeInfo_Af7compareMFPvPvZi+0x169>
	{
	    int c = TypeInfo_f._compare(s1[u], s2[u]);
  401ad6:	48 8b 45 b8          	mov    -0x48(%rbp),%rax
  401ada:	48 89 85 58 ff ff ff 	mov    %rax,-0xa8(%rbp)
  401ae1:	48 8b 45 b0          	mov    -0x50(%rbp),%rax
  401ae5:	48 39 45 f0          	cmp    %rax,-0x10(%rbp)
  401ae9:	73 0d                	jae    401af8 <_D3std8typeinfo9ti_Afloat11TypeInfo_Af7compareMFPvPvZi+0xa0>
  401aeb:	48 8b 45 f0          	mov    -0x10(%rbp),%rax
  401aef:	48 89 85 60 ff ff ff 	mov    %rax,-0xa0(%rbp)
  401af6:	eb 22                	jmp    401b1a <_D3std8typeinfo9ti_Afloat11TypeInfo_Af7compareMFPvPvZi+0xc2>
  401af8:	48 c7 45 c0 18 00 00 	movq   $0x18,-0x40(%rbp)
  401aff:	00 
  401b00:	48 c7 45 c8 e8 f4 40 	movq   $0x40f4e8,-0x38(%rbp)
  401b07:	00 
  401b08:	48 8b 7d c0          	mov    -0x40(%rbp),%rdi
  401b0c:	48 8b 75 c8          	mov    -0x38(%rbp),%rsi
  401b10:	ba 4e 00 00 00       	mov    $0x4e,%edx
  401b15:	e8 6b 8e 00 00       	callq  40a985 <_d_array_bounds>
  401b1a:	48 8b 85 60 ff ff ff 	mov    -0xa0(%rbp),%rax
  401b21:	48 c1 e0 02          	shl    $0x2,%rax
  401b25:	48 03 85 58 ff ff ff 	add    -0xa8(%rbp),%rax
  401b2c:	d9 00                	flds   (%rax)
  401b2e:	d9 9d 6c ff ff ff    	fstps  -0x94(%rbp)
  401b34:	48 8b 45 a8          	mov    -0x58(%rbp),%rax
  401b38:	48 89 85 70 ff ff ff 	mov    %rax,-0x90(%rbp)
  401b3f:	48 8b 45 a0          	mov    -0x60(%rbp),%rax
  401b43:	48 39 45 f0          	cmp    %rax,-0x10(%rbp)
  401b47:	73 0d                	jae    401b56 <_D3std8typeinfo9ti_Afloat11TypeInfo_Af7compareMFPvPvZi+0xfe>
  401b49:	48 8b 45 f0          	mov    -0x10(%rbp),%rax
  401b4d:	48 89 85 78 ff ff ff 	mov    %rax,-0x88(%rbp)
  401b54:	eb 22                	jmp    401b78 <_D3std8typeinfo9ti_Afloat11TypeInfo_Af7compareMFPvPvZi+0x120>
  401b56:	48 c7 45 d0 18 00 00 	movq   $0x18,-0x30(%rbp)
  401b5d:	00 
  401b5e:	48 c7 45 d8 e8 f4 40 	movq   $0x40f4e8,-0x28(%rbp)
  401b65:	00 
  401b66:	48 8b 7d d0          	mov    -0x30(%rbp),%rdi
  401b6a:	48 8b 75 d8          	mov    -0x28(%rbp),%rsi
  401b6e:	ba 4e 00 00 00       	mov    $0x4e,%edx
  401b73:	e8 0d 8e 00 00       	callq  40a985 <_d_array_bounds>
  401b78:	48 8b 85 78 ff ff ff 	mov    -0x88(%rbp),%rax
  401b7f:	48 c1 e0 02          	shl    $0x2,%rax
  401b83:	48 03 85 70 ff ff ff 	add    -0x90(%rbp),%rax
  401b8a:	8b 00                	mov    (%rax),%eax
  401b8c:	f3 0f 10 8d 6c ff ff 	movss  -0x94(%rbp),%xmm1
  401b93:	ff 
  401b94:	89 85 4c ff ff ff    	mov    %eax,-0xb4(%rbp)
  401b9a:	f3 0f 10 85 4c ff ff 	movss  -0xb4(%rbp),%xmm0
  401ba1:	ff 
  401ba2:	e8 e3 30 00 00       	callq  404c8a <_D3std8typeinfo8ti_float10TypeInfo_f8_compareFffZi>
  401ba7:	89 45 fc             	mov    %eax,-0x4(%rbp)
	    if (c)
  401baa:	83 7d fc 00          	cmpl   $0x0,-0x4(%rbp)
  401bae:	74 08                	je     401bb8 <_D3std8typeinfo9ti_Afloat11TypeInfo_Af7compareMFPvPvZi+0x160>
		return c;
  401bb0:	8b 45 fc             	mov    -0x4(%rbp),%eax
  401bb3:	89 45 84             	mov    %eax,-0x7c(%rbp)
  401bb6:	eb 3c                	jmp    401bf4 <_D3std8typeinfo9ti_Afloat11TypeInfo_Af7compareMFPvPvZi+0x19c>
	if (s2.length < len)
	    len = s2.length;
	for (size_t u = 0; u < len; u++)
	{
	    int c = TypeInfo_f._compare(s1[u], s2[u]);
	    if (c)
  401bb8:	48 ff 45 f0          	incq   -0x10(%rbp)
  401bbc:	e9 ff fe ff ff       	jmpq   401ac0 <_D3std8typeinfo9ti_Afloat11TypeInfo_Af7compareMFPvPvZi+0x68>
		return c;
	}
	if (s1.length < s2.length)
  401bc1:	48 8b 55 a0          	mov    -0x60(%rbp),%rdx
  401bc5:	48 8b 45 b0          	mov    -0x50(%rbp),%rax
  401bc9:	48 39 c2             	cmp    %rax,%rdx
  401bcc:	73 09                	jae    401bd7 <_D3std8typeinfo9ti_Afloat11TypeInfo_Af7compareMFPvPvZi+0x17f>
	    return -1;
  401bce:	c7 45 84 ff ff ff ff 	movl   $0xffffffff,-0x7c(%rbp)
  401bd5:	eb 1d                	jmp    401bf4 <_D3std8typeinfo9ti_Afloat11TypeInfo_Af7compareMFPvPvZi+0x19c>
	else if (s1.length > s2.length)
  401bd7:	48 8b 55 a0          	mov    -0x60(%rbp),%rdx
  401bdb:	48 8b 45 b0          	mov    -0x50(%rbp),%rax
  401bdf:	48 39 c2             	cmp    %rax,%rdx
  401be2:	76 09                	jbe    401bed <_D3std8typeinfo9ti_Afloat11TypeInfo_Af7compareMFPvPvZi+0x195>
	    return 1;
  401be4:	c7 45 84 01 00 00 00 	movl   $0x1,-0x7c(%rbp)
  401beb:	eb 07                	jmp    401bf4 <_D3std8typeinfo9ti_Afloat11TypeInfo_Af7compareMFPvPvZi+0x19c>
	return 0;
  401bed:	c7 45 84 00 00 00 00 	movl   $0x0,-0x7c(%rbp)
  401bf4:	8b 45 84             	mov    -0x7c(%rbp),%eax
    }
  401bf7:	c9                   	leaveq 
  401bf8:	c3                   	retq   

0000000000401bf9 <_D3std8typeinfo9ti_Afloat11TypeInfo_Af5tsizeMFZm>:

    size_t tsize()
  401bf9:	55                   	push   %rbp
  401bfa:	48 89 e5             	mov    %rsp,%rbp
  401bfd:	48 83 ec 10          	sub    $0x10,%rsp
  401c01:	48 89 7d f8          	mov    %rdi,-0x8(%rbp)
  401c05:	48 8b 7d f8          	mov    -0x8(%rbp),%rdi
  401c09:	e8 ae 72 00 00       	callq  408ebc <_D9invariant12_d_invariantFC6ObjectZv>
    {
	return (float[]).sizeof;
  401c0e:	b8 10 00 00 00       	mov    $0x10,%eax
    }
  401c13:	c9                   	leaveq 
  401c14:	c3                   	retq   

0000000000401c15 <_D3std8typeinfo9ti_Afloat11TypeInfo_Af5flagsMFZk>:

    uint flags()
  401c15:	55                   	push   %rbp
  401c16:	48 89 e5             	mov    %rsp,%rbp
  401c19:	48 83 ec 10          	sub    $0x10,%rsp
  401c1d:	48 89 7d f8          	mov    %rdi,-0x8(%rbp)
  401c21:	48 8b 7d f8          	mov    -0x8(%rbp),%rdi
  401c25:	e8 92 72 00 00       	callq  408ebc <_D9invariant12_d_invariantFC6ObjectZv>
    {
	return 1;
  401c2a:	b8 01 00 00 00       	mov    $0x1,%eax
    }
  401c2f:	c9                   	leaveq 
  401c30:	c3                   	retq   

0000000000401c31 <_D3std8typeinfo9ti_Afloat11TypeInfo_Af4nextMFZC8TypeInfo>:

    TypeInfo next()
  401c31:	55                   	push   %rbp
  401c32:	48 89 e5             	mov    %rsp,%rbp
  401c35:	48 83 ec 10          	sub    $0x10,%rsp
  401c39:	48 89 7d f8          	mov    %rdi,-0x8(%rbp)
  401c3d:	48 8b 7d f8          	mov    -0x8(%rbp),%rdi
  401c41:	e8 76 72 00 00       	callq  408ebc <_D9invariant12_d_invariantFC6ObjectZv>
    {
	return typeid(float);
  401c46:	48 c7 c0 10 07 41 00 	mov    $0x410710,%rax
    }
  401c4d:	c9                   	leaveq 
  401c4e:	c3                   	retq   

0000000000401c4f <_D3std8typeinfo9ti_Afloat11TypeInfo_Ao8toStringMFZAa>:

// ifloat[]

class TypeInfo_Ao : TypeInfo_Af
{
    char[] toString() { return "ifloat[]"; }
  401c4f:	55                   	push   %rbp
  401c50:	48 89 e5             	mov    %rsp,%rbp
  401c53:	53                   	push   %rbx
  401c54:	48 83 ec 08          	sub    $0x8,%rsp
  401c58:	48 89 fb             	mov    %rdi,%rbx
  401c5b:	48 89 75 f0          	mov    %rsi,-0x10(%rbp)
  401c5f:	48 8b 7d f0          	mov    -0x10(%rbp),%rdi
  401c63:	e8 54 72 00 00       	callq  408ebc <_D9invariant12_d_invariantFC6ObjectZv>
  401c68:	48 c7 03 08 00 00 00 	movq   $0x8,(%rbx)
  401c6f:	48 c7 43 08 b0 f5 40 	movq   $0x40f5b0,0x8(%rbx)
  401c76:	00 
  401c77:	48 89 d8             	mov    %rbx,%rax
  401c7a:	48 83 c4 08          	add    $0x8,%rsp
  401c7e:	5b                   	pop    %rbx
  401c7f:	c9                   	leaveq 
  401c80:	c3                   	retq   

0000000000401c81 <_D3std8typeinfo9ti_Afloat11TypeInfo_Ao4nextMFZC8TypeInfo>:

    TypeInfo next()
  401c81:	55                   	push   %rbp
  401c82:	48 89 e5             	mov    %rsp,%rbp
  401c85:	48 83 ec 10          	sub    $0x10,%rsp
  401c89:	48 89 7d f8          	mov    %rdi,-0x8(%rbp)
  401c8d:	48 8b 7d f8          	mov    -0x8(%rbp),%rdi
  401c91:	e8 26 72 00 00       	callq  408ebc <_D9invariant12_d_invariantFC6ObjectZv>
    {
	return typeid(ifloat);
  401c96:	48 c7 c0 90 08 41 00 	mov    $0x410890,%rax
    }
  401c9d:	c9                   	leaveq 
  401c9e:	c3                   	retq   
  401c9f:	90                   	nop    

0000000000401ca0 <_D3std8typeinfo5ti_Ag11TypeInfo_Ag8toStringMFZAa>:
import kernel.core.system;
// byte[]

class TypeInfo_Ag : TypeInfo
{
    char[] toString() { return "byte[]"; }
  401ca0:	55                   	push   %rbp
  401ca1:	48 89 e5             	mov    %rsp,%rbp
  401ca4:	53                   	push   %rbx
  401ca5:	48 83 ec 08          	sub    $0x8,%rsp
  401ca9:	48 89 fb             	mov    %rdi,%rbx
  401cac:	48 89 75 f0          	mov    %rsi,-0x10(%rbp)
  401cb0:	48 8b 7d f0          	mov    -0x10(%rbp),%rdi
  401cb4:	e8 03 72 00 00       	callq  408ebc <_D9invariant12_d_invariantFC6ObjectZv>
  401cb9:	48 c7 03 06 00 00 00 	movq   $0x6,(%rbx)
  401cc0:	48 c7 43 08 60 f6 40 	movq   $0x40f660,0x8(%rbx)
  401cc7:	00 
  401cc8:	48 89 d8             	mov    %rbx,%rax
  401ccb:	48 83 c4 08          	add    $0x8,%rsp
  401ccf:	5b                   	pop    %rbx
  401cd0:	c9                   	leaveq 
  401cd1:	c3                   	retq   

0000000000401cd2 <_D3std8typeinfo5ti_Ag11TypeInfo_Ag7getHashMFPvZm>:

    hash_t getHash(void *p)
  401cd2:	55                   	push   %rbp
  401cd3:	48 89 e5             	mov    %rsp,%rbp
  401cd6:	48 83 ec 50          	sub    $0x50,%rsp
  401cda:	48 89 7d c8          	mov    %rdi,-0x38(%rbp)
  401cde:	48 89 75 c0          	mov    %rsi,-0x40(%rbp)
  401ce2:	48 8b 7d c8          	mov    -0x38(%rbp),%rdi
  401ce6:	e8 d1 71 00 00       	callq  408ebc <_D9invariant12_d_invariantFC6ObjectZv>
    {	byte[] s = *cast(byte[]*)p;
  401ceb:	48 8b 55 c0          	mov    -0x40(%rbp),%rdx
  401cef:	48 8b 02             	mov    (%rdx),%rax
  401cf2:	48 89 45 d0          	mov    %rax,-0x30(%rbp)
  401cf6:	48 8b 42 08          	mov    0x8(%rdx),%rax
  401cfa:	48 89 45 d8          	mov    %rax,-0x28(%rbp)
	size_t len = s.length;
  401cfe:	48 8b 45 d0          	mov    -0x30(%rbp),%rax
  401d02:	48 89 45 f8          	mov    %rax,-0x8(%rbp)
	byte *str = s.ptr;
  401d06:	48 8b 45 d8          	mov    -0x28(%rbp),%rax
  401d0a:	48 89 45 f0          	mov    %rax,-0x10(%rbp)
	hash_t hash = 0;
  401d0e:	48 c7 45 e8 00 00 00 	movq   $0x0,-0x18(%rbp)
  401d15:	00 

	while (1)
  401d16:	b8 00 00 00 00       	mov    $0x0,%eax
  401d1b:	84 c0                	test   %al,%al
  401d1d:	0f 85 01 01 00 00    	jne    401e24 <_D3std8typeinfo5ti_Ag11TypeInfo_Ag7getHashMFPvZm+0x152>
		default:
		    hash *= 9;
		    hash += *cast(uint *)str;
		    str += 4;
		    len -= 4;
		    break;
  401d23:	48 8b 45 f8          	mov    -0x8(%rbp),%rax
  401d27:	48 89 45 b0          	mov    %rax,-0x50(%rbp)
  401d2b:	48 83 7d b0 01       	cmpq   $0x1,-0x50(%rbp)
  401d30:	74 27                	je     401d59 <_D3std8typeinfo5ti_Ag11TypeInfo_Ag7getHashMFPvZm+0x87>
  401d32:	48 83 7d b0 01       	cmpq   $0x1,-0x50(%rbp)
  401d37:	72 13                	jb     401d4c <_D3std8typeinfo5ti_Ag11TypeInfo_Ag7getHashMFPvZm+0x7a>
  401d39:	48 83 7d b0 02       	cmpq   $0x2,-0x50(%rbp)
  401d3e:	74 46                	je     401d86 <_D3std8typeinfo5ti_Ag11TypeInfo_Ag7getHashMFPvZm+0xb4>
  401d40:	48 83 7d b0 03       	cmpq   $0x3,-0x50(%rbp)
  401d45:	74 69                	je     401db0 <_D3std8typeinfo5ti_Ag11TypeInfo_Ag7getHashMFPvZm+0xde>
  401d47:	e9 ab 00 00 00       	jmpq   401df7 <_D3std8typeinfo5ti_Ag11TypeInfo_Ag7getHashMFPvZm+0x125>
	while (1)
	{
	    switch (len)
	    {
		case 0:
		    return hash;
  401d4c:	48 8b 45 e8          	mov    -0x18(%rbp),%rax
  401d50:	48 89 45 b8          	mov    %rax,-0x48(%rbp)
  401d54:	e9 d3 00 00 00       	jmpq   401e2c <_D3std8typeinfo5ti_Ag11TypeInfo_Ag7getHashMFPvZm+0x15a>

		case 1:
		    hash *= 9;
  401d59:	48 8b 55 e8          	mov    -0x18(%rbp),%rdx
  401d5d:	48 89 d0             	mov    %rdx,%rax
  401d60:	48 c1 e0 03          	shl    $0x3,%rax
  401d64:	48 01 d0             	add    %rdx,%rax
  401d67:	48 89 45 e8          	mov    %rax,-0x18(%rbp)
		    hash += *cast(ubyte *)str;
  401d6b:	48 8b 45 f0          	mov    -0x10(%rbp),%rax
  401d6f:	0f b6 00             	movzbl (%rax),%eax
  401d72:	0f b6 c0             	movzbl %al,%eax
  401d75:	48 01 45 e8          	add    %rax,-0x18(%rbp)
		    return hash;
  401d79:	48 8b 45 e8          	mov    -0x18(%rbp),%rax
  401d7d:	48 89 45 b8          	mov    %rax,-0x48(%rbp)
  401d81:	e9 a6 00 00 00       	jmpq   401e2c <_D3std8typeinfo5ti_Ag11TypeInfo_Ag7getHashMFPvZm+0x15a>

		case 2:
		    hash *= 9;
  401d86:	48 8b 55 e8          	mov    -0x18(%rbp),%rdx
  401d8a:	48 89 d0             	mov    %rdx,%rax
  401d8d:	48 c1 e0 03          	shl    $0x3,%rax
  401d91:	48 01 d0             	add    %rdx,%rax
  401d94:	48 89 45 e8          	mov    %rax,-0x18(%rbp)
		    hash += *cast(ushort *)str;
  401d98:	48 8b 45 f0          	mov    -0x10(%rbp),%rax
  401d9c:	0f b7 00             	movzwl (%rax),%eax
  401d9f:	0f b7 c0             	movzwl %ax,%eax
  401da2:	48 01 45 e8          	add    %rax,-0x18(%rbp)
		    return hash;
  401da6:	48 8b 45 e8          	mov    -0x18(%rbp),%rax
  401daa:	48 89 45 b8          	mov    %rax,-0x48(%rbp)
  401dae:	eb 7c                	jmp    401e2c <_D3std8typeinfo5ti_Ag11TypeInfo_Ag7getHashMFPvZm+0x15a>

		case 3:
		    hash *= 9;
  401db0:	48 8b 55 e8          	mov    -0x18(%rbp),%rdx
  401db4:	48 89 d0             	mov    %rdx,%rax
  401db7:	48 c1 e0 03          	shl    $0x3,%rax
  401dbb:	48 01 d0             	add    %rdx,%rax
  401dbe:	48 89 45 e8          	mov    %rax,-0x18(%rbp)
		    hash += (*cast(ushort *)str << 8) +
  401dc2:	48 8b 45 f0          	mov    -0x10(%rbp),%rax
  401dc6:	0f b7 00             	movzwl (%rax),%eax
  401dc9:	0f b7 c0             	movzwl %ax,%eax
  401dcc:	89 c1                	mov    %eax,%ecx
  401dce:	c1 e1 08             	shl    $0x8,%ecx
  401dd1:	48 8b 55 f0          	mov    -0x10(%rbp),%rdx
  401dd5:	b8 02 00 00 00       	mov    $0x2,%eax
  401dda:	48 8d 04 02          	lea    (%rdx,%rax,1),%rax
  401dde:	0f b6 00             	movzbl (%rax),%eax
  401de1:	0f b6 c0             	movzbl %al,%eax
  401de4:	8d 04 01             	lea    (%rcx,%rax,1),%eax
  401de7:	48 98                	cltq   
  401de9:	48 01 45 e8          	add    %rax,-0x18(%rbp)
			    (cast(ubyte *)str)[2];
		    return hash;
  401ded:	48 8b 45 e8          	mov    -0x18(%rbp),%rax
  401df1:	48 89 45 b8          	mov    %rax,-0x48(%rbp)
  401df5:	eb 35                	jmp    401e2c <_D3std8typeinfo5ti_Ag11TypeInfo_Ag7getHashMFPvZm+0x15a>

		default:
		    hash *= 9;
  401df7:	48 8b 55 e8          	mov    -0x18(%rbp),%rdx
  401dfb:	48 89 d0             	mov    %rdx,%rax
  401dfe:	48 c1 e0 03          	shl    $0x3,%rax
  401e02:	48 01 d0             	add    %rdx,%rax
  401e05:	48 89 45 e8          	mov    %rax,-0x18(%rbp)
		    hash += *cast(uint *)str;
  401e09:	48 8b 45 f0          	mov    -0x10(%rbp),%rax
  401e0d:	8b 00                	mov    (%rax),%eax
  401e0f:	89 c0                	mov    %eax,%eax
  401e11:	48 01 45 e8          	add    %rax,-0x18(%rbp)
		    str += 4;
  401e15:	48 83 45 f0 04       	addq   $0x4,-0x10(%rbp)
		    len -= 4;
  401e1a:	48 83 6d f8 04       	subq   $0x4,-0x8(%rbp)
		    break;
  401e1f:	e9 f2 fe ff ff       	jmpq   401d16 <_D3std8typeinfo5ti_Ag11TypeInfo_Ag7getHashMFPvZm+0x44>
	    }
	}

	return hash;
  401e24:	48 8b 45 e8          	mov    -0x18(%rbp),%rax
  401e28:	48 89 45 b8          	mov    %rax,-0x48(%rbp)
  401e2c:	48 8b 45 b8          	mov    -0x48(%rbp),%rax
    }
  401e30:	c9                   	leaveq 
  401e31:	c3                   	retq   

0000000000401e32 <_D3std8typeinfo5ti_Ag11TypeInfo_Ag6equalsMFPvPvZi>:

    int equals(void *p1, void *p2)
  401e32:	55                   	push   %rbp
  401e33:	48 89 e5             	mov    %rsp,%rbp
  401e36:	48 83 ec 40          	sub    $0x40,%rsp
  401e3a:	48 89 7d d8          	mov    %rdi,-0x28(%rbp)
  401e3e:	48 89 75 d0          	mov    %rsi,-0x30(%rbp)
  401e42:	48 89 55 c8          	mov    %rdx,-0x38(%rbp)
  401e46:	48 8b 7d d8          	mov    -0x28(%rbp),%rdi
  401e4a:	e8 6d 70 00 00       	callq  408ebc <_D9invariant12_d_invariantFC6ObjectZv>
    {
	ubyte[] s1 = *cast(ubyte[]*)p1;
  401e4f:	48 8b 55 d0          	mov    -0x30(%rbp),%rdx
  401e53:	48 8b 02             	mov    (%rdx),%rax
  401e56:	48 89 45 e0          	mov    %rax,-0x20(%rbp)
  401e5a:	48 8b 42 08          	mov    0x8(%rdx),%rax
  401e5e:	48 89 45 e8          	mov    %rax,-0x18(%rbp)
	ubyte[] s2 = *cast(ubyte[]*)p2;
  401e62:	48 8b 55 c8          	mov    -0x38(%rbp),%rdx
  401e66:	48 8b 02             	mov    (%rdx),%rax
  401e69:	48 89 45 f0          	mov    %rax,-0x10(%rbp)
  401e6d:	48 8b 42 08          	mov    0x8(%rdx),%rax
  401e71:	48 89 45 f8          	mov    %rax,-0x8(%rbp)

	return s1.length == s2.length &&
  401e75:	48 8b 55 e0          	mov    -0x20(%rbp),%rdx
  401e79:	48 8b 45 f0          	mov    -0x10(%rbp),%rax
  401e7d:	48 39 c2             	cmp    %rax,%rdx
  401e80:	75 1c                	jne    401e9e <_D3std8typeinfo5ti_Ag11TypeInfo_Ag6equalsMFPvPvZi+0x6c>
  401e82:	48 8b 55 e0          	mov    -0x20(%rbp),%rdx
  401e86:	48 8b 75 f8          	mov    -0x8(%rbp),%rsi
  401e8a:	48 8b 7d e8          	mov    -0x18(%rbp),%rdi
  401e8e:	e8 61 b5 00 00       	callq  40d3f4 <_D6kernel4core6system6memcmpFPvPvmZl>
  401e93:	48 85 c0             	test   %rax,%rax
  401e96:	75 06                	jne    401e9e <_D3std8typeinfo5ti_Ag11TypeInfo_Ag6equalsMFPvPvZi+0x6c>
  401e98:	c6 45 c7 01          	movb   $0x1,-0x39(%rbp)
  401e9c:	eb 04                	jmp    401ea2 <_D3std8typeinfo5ti_Ag11TypeInfo_Ag6equalsMFPvPvZi+0x70>
  401e9e:	c6 45 c7 00          	movb   $0x0,-0x39(%rbp)
  401ea2:	0f b6 45 c7          	movzbl -0x39(%rbp),%eax
	       memcmp(s1.ptr, s2.ptr, s1.length) == 0;
    }
  401ea6:	c9                   	leaveq 
  401ea7:	c3                   	retq   

0000000000401ea8 <_D3std8typeinfo5ti_Ag11TypeInfo_Ag7compareMFPvPvZi>:

    int compare(void *p1, void *p2)
  401ea8:	55                   	push   %rbp
  401ea9:	48 89 e5             	mov    %rsp,%rbp
  401eac:	48 81 ec b0 00 00 00 	sub    $0xb0,%rsp
  401eb3:	48 89 7d 98          	mov    %rdi,-0x68(%rbp)
  401eb7:	48 89 75 90          	mov    %rsi,-0x70(%rbp)
  401ebb:	48 89 55 88          	mov    %rdx,-0x78(%rbp)
  401ebf:	48 8b 7d 98          	mov    -0x68(%rbp),%rdi
  401ec3:	e8 f4 6f 00 00       	callq  408ebc <_D9invariant12_d_invariantFC6ObjectZv>
    {
	byte[] s1 = *cast(byte[]*)p1;
  401ec8:	48 8b 55 90          	mov    -0x70(%rbp),%rdx
  401ecc:	48 8b 02             	mov    (%rdx),%rax
  401ecf:	48 89 45 a0          	mov    %rax,-0x60(%rbp)
  401ed3:	48 8b 42 08          	mov    0x8(%rdx),%rax
  401ed7:	48 89 45 a8          	mov    %rax,-0x58(%rbp)
	byte[] s2 = *cast(byte[]*)p2;
  401edb:	48 8b 55 88          	mov    -0x78(%rbp),%rdx
  401edf:	48 8b 02             	mov    (%rdx),%rax
  401ee2:	48 89 45 b0          	mov    %rax,-0x50(%rbp)
  401ee6:	48 8b 42 08          	mov    0x8(%rdx),%rax
  401eea:	48 89 45 b8          	mov    %rax,-0x48(%rbp)
	size_t len = s1.length;
  401eee:	48 8b 45 a0          	mov    -0x60(%rbp),%rax
  401ef2:	48 89 45 e8          	mov    %rax,-0x18(%rbp)

	if (s2.length < len)
  401ef6:	48 8b 45 b0          	mov    -0x50(%rbp),%rax
  401efa:	48 3b 45 e8          	cmp    -0x18(%rbp),%rax
  401efe:	73 08                	jae    401f08 <_D3std8typeinfo5ti_Ag11TypeInfo_Ag7compareMFPvPvZi+0x60>
	    len = s2.length;
  401f00:	48 8b 45 b0          	mov    -0x50(%rbp),%rax
  401f04:	48 89 45 e8          	mov    %rax,-0x18(%rbp)
	for (size_t u = 0; u < len; u++)
  401f08:	48 c7 45 f0 00 00 00 	movq   $0x0,-0x10(%rbp)
  401f0f:	00 
  401f10:	48 8b 45 f0          	mov    -0x10(%rbp),%rax
  401f14:	48 3b 45 e8          	cmp    -0x18(%rbp),%rax
  401f18:	0f 92 c0             	setb   %al
  401f1b:	83 f0 01             	xor    $0x1,%eax
  401f1e:	84 c0                	test   %al,%al
  401f20:	0f 85 da 00 00 00    	jne    402000 <_D3std8typeinfo5ti_Ag11TypeInfo_Ag7compareMFPvPvZi+0x158>
	{
	    int result = s1[u] - s2[u];
  401f26:	48 8b 45 a8          	mov    -0x58(%rbp),%rax
  401f2a:	48 89 85 58 ff ff ff 	mov    %rax,-0xa8(%rbp)
  401f31:	48 8b 45 a0          	mov    -0x60(%rbp),%rax
  401f35:	48 39 45 f0          	cmp    %rax,-0x10(%rbp)
  401f39:	73 0d                	jae    401f48 <_D3std8typeinfo5ti_Ag11TypeInfo_Ag7compareMFPvPvZi+0xa0>
  401f3b:	48 8b 55 f0          	mov    -0x10(%rbp),%rdx
  401f3f:	48 89 95 60 ff ff ff 	mov    %rdx,-0xa0(%rbp)
  401f46:	eb 22                	jmp    401f6a <_D3std8typeinfo5ti_Ag11TypeInfo_Ag7compareMFPvPvZi+0xc2>
  401f48:	48 c7 45 c0 14 00 00 	movq   $0x14,-0x40(%rbp)
  401f4f:	00 
  401f50:	48 c7 45 c8 67 f6 40 	movq   $0x40f667,-0x38(%rbp)
  401f57:	00 
  401f58:	48 8b 7d c0          	mov    -0x40(%rbp),%rdi
  401f5c:	48 8b 75 c8          	mov    -0x38(%rbp),%rsi
  401f60:	ba 46 00 00 00       	mov    $0x46,%edx
  401f65:	e8 1b 8a 00 00       	callq  40a985 <_d_array_bounds>
  401f6a:	48 8b 85 60 ff ff ff 	mov    -0xa0(%rbp),%rax
  401f71:	48 03 85 58 ff ff ff 	add    -0xa8(%rbp),%rax
  401f78:	0f b6 00             	movzbl (%rax),%eax
  401f7b:	0f be c0             	movsbl %al,%eax
  401f7e:	89 85 6c ff ff ff    	mov    %eax,-0x94(%rbp)
  401f84:	48 8b 45 b8          	mov    -0x48(%rbp),%rax
  401f88:	48 89 85 70 ff ff ff 	mov    %rax,-0x90(%rbp)
  401f8f:	48 8b 45 b0          	mov    -0x50(%rbp),%rax
  401f93:	48 39 45 f0          	cmp    %rax,-0x10(%rbp)
  401f97:	73 0d                	jae    401fa6 <_D3std8typeinfo5ti_Ag11TypeInfo_Ag7compareMFPvPvZi+0xfe>
  401f99:	48 8b 55 f0          	mov    -0x10(%rbp),%rdx
  401f9d:	48 89 95 78 ff ff ff 	mov    %rdx,-0x88(%rbp)
  401fa4:	eb 22                	jmp    401fc8 <_D3std8typeinfo5ti_Ag11TypeInfo_Ag7compareMFPvPvZi+0x120>
  401fa6:	48 c7 45 d0 14 00 00 	movq   $0x14,-0x30(%rbp)
  401fad:	00 
  401fae:	48 c7 45 d8 67 f6 40 	movq   $0x40f667,-0x28(%rbp)
  401fb5:	00 
  401fb6:	48 8b 7d d0          	mov    -0x30(%rbp),%rdi
  401fba:	48 8b 75 d8          	mov    -0x28(%rbp),%rsi
  401fbe:	ba 46 00 00 00       	mov    $0x46,%edx
  401fc3:	e8 bd 89 00 00       	callq  40a985 <_d_array_bounds>
  401fc8:	48 8b 85 78 ff ff ff 	mov    -0x88(%rbp),%rax
  401fcf:	48 03 85 70 ff ff ff 	add    -0x90(%rbp),%rax
  401fd6:	0f b6 00             	movzbl (%rax),%eax
  401fd9:	0f be c0             	movsbl %al,%eax
  401fdc:	8b 95 6c ff ff ff    	mov    -0x94(%rbp),%edx
  401fe2:	29 c2                	sub    %eax,%edx
  401fe4:	89 d0                	mov    %edx,%eax
  401fe6:	89 45 fc             	mov    %eax,-0x4(%rbp)
	    if (result)
  401fe9:	83 7d fc 00          	cmpl   $0x0,-0x4(%rbp)
  401fed:	74 08                	je     401ff7 <_D3std8typeinfo5ti_Ag11TypeInfo_Ag7compareMFPvPvZi+0x14f>
		return result;
  401fef:	8b 45 fc             	mov    -0x4(%rbp),%eax
  401ff2:	89 45 84             	mov    %eax,-0x7c(%rbp)
  401ff5:	eb 3c                	jmp    402033 <_D3std8typeinfo5ti_Ag11TypeInfo_Ag7compareMFPvPvZi+0x18b>
	if (s2.length < len)
	    len = s2.length;
	for (size_t u = 0; u < len; u++)
	{
	    int result = s1[u] - s2[u];
	    if (result)
  401ff7:	48 ff 45 f0          	incq   -0x10(%rbp)
  401ffb:	e9 10 ff ff ff       	jmpq   401f10 <_D3std8typeinfo5ti_Ag11TypeInfo_Ag7compareMFPvPvZi+0x68>
		return result;
	}
	if (s1.length < s2.length)
  402000:	48 8b 55 a0          	mov    -0x60(%rbp),%rdx
  402004:	48 8b 45 b0          	mov    -0x50(%rbp),%rax
  402008:	48 39 c2             	cmp    %rax,%rdx
  40200b:	73 09                	jae    402016 <_D3std8typeinfo5ti_Ag11TypeInfo_Ag7compareMFPvPvZi+0x16e>
	    return -1;
  40200d:	c7 45 84 ff ff ff ff 	movl   $0xffffffff,-0x7c(%rbp)
  402014:	eb 1d                	jmp    402033 <_D3std8typeinfo5ti_Ag11TypeInfo_Ag7compareMFPvPvZi+0x18b>
	else if (s1.length > s2.length)
  402016:	48 8b 55 a0          	mov    -0x60(%rbp),%rdx
  40201a:	48 8b 45 b0          	mov    -0x50(%rbp),%rax
  40201e:	48 39 c2             	cmp    %rax,%rdx
  402021:	76 09                	jbe    40202c <_D3std8typeinfo5ti_Ag11TypeInfo_Ag7compareMFPvPvZi+0x184>
	    return 1;
  402023:	c7 45 84 01 00 00 00 	movl   $0x1,-0x7c(%rbp)
  40202a:	eb 07                	jmp    402033 <_D3std8typeinfo5ti_Ag11TypeInfo_Ag7compareMFPvPvZi+0x18b>
	return 0;
  40202c:	c7 45 84 00 00 00 00 	movl   $0x0,-0x7c(%rbp)
  402033:	8b 45 84             	mov    -0x7c(%rbp),%eax
    }
  402036:	c9                   	leaveq 
  402037:	c3                   	retq   

0000000000402038 <_D3std8typeinfo5ti_Ag11TypeInfo_Ag5tsizeMFZm>:

    size_t tsize()
  402038:	55                   	push   %rbp
  402039:	48 89 e5             	mov    %rsp,%rbp
  40203c:	48 83 ec 10          	sub    $0x10,%rsp
  402040:	48 89 7d f8          	mov    %rdi,-0x8(%rbp)
  402044:	48 8b 7d f8          	mov    -0x8(%rbp),%rdi
  402048:	e8 6f 6e 00 00       	callq  408ebc <_D9invariant12_d_invariantFC6ObjectZv>
    {
	return (byte[]).sizeof;
  40204d:	b8 10 00 00 00       	mov    $0x10,%eax
    }
  402052:	c9                   	leaveq 
  402053:	c3                   	retq   

0000000000402054 <_D3std8typeinfo5ti_Ag11TypeInfo_Ag5flagsMFZk>:

    uint flags()
  402054:	55                   	push   %rbp
  402055:	48 89 e5             	mov    %rsp,%rbp
  402058:	48 83 ec 10          	sub    $0x10,%rsp
  40205c:	48 89 7d f8          	mov    %rdi,-0x8(%rbp)
  402060:	48 8b 7d f8          	mov    -0x8(%rbp),%rdi
  402064:	e8 53 6e 00 00       	callq  408ebc <_D9invariant12_d_invariantFC6ObjectZv>
    {
	return 1;
  402069:	b8 01 00 00 00       	mov    $0x1,%eax
    }
  40206e:	c9                   	leaveq 
  40206f:	c3                   	retq   

0000000000402070 <_D3std8typeinfo5ti_Ag11TypeInfo_Ag4nextMFZC8TypeInfo>:

    TypeInfo next()
  402070:	55                   	push   %rbp
  402071:	48 89 e5             	mov    %rsp,%rbp
  402074:	48 83 ec 10          	sub    $0x10,%rsp
  402078:	48 89 7d f8          	mov    %rdi,-0x8(%rbp)
  40207c:	48 8b 7d f8          	mov    -0x8(%rbp),%rdi
  402080:	e8 37 6e 00 00       	callq  408ebc <_D9invariant12_d_invariantFC6ObjectZv>
    {
	return typeid(byte);
  402085:	48 c7 c0 90 00 41 00 	mov    $0x410090,%rax
    }
  40208c:	c9                   	leaveq 
  40208d:	c3                   	retq   

000000000040208e <_D3std8typeinfo5ti_Ag11TypeInfo_Ah8toStringMFZAa>:

// ubyte[]

class TypeInfo_Ah : TypeInfo_Ag
{
    char[] toString() { return "ubyte[]"; }
  40208e:	55                   	push   %rbp
  40208f:	48 89 e5             	mov    %rsp,%rbp
  402092:	53                   	push   %rbx
  402093:	48 83 ec 08          	sub    $0x8,%rsp
  402097:	48 89 fb             	mov    %rdi,%rbx
  40209a:	48 89 75 f0          	mov    %rsi,-0x10(%rbp)
  40209e:	48 8b 7d f0          	mov    -0x10(%rbp),%rdi
  4020a2:	e8 15 6e 00 00       	callq  408ebc <_D9invariant12_d_invariantFC6ObjectZv>
  4020a7:	48 c7 03 07 00 00 00 	movq   $0x7,(%rbx)
  4020ae:	48 c7 43 08 10 f7 40 	movq   $0x40f710,0x8(%rbx)
  4020b5:	00 
  4020b6:	48 89 d8             	mov    %rbx,%rax
  4020b9:	48 83 c4 08          	add    $0x8,%rsp
  4020bd:	5b                   	pop    %rbx
  4020be:	c9                   	leaveq 
  4020bf:	c3                   	retq   

00000000004020c0 <_D3std8typeinfo5ti_Ag11TypeInfo_Ah7compareMFPvPvZi>:

    int compare(void *p1, void *p2)
  4020c0:	55                   	push   %rbp
  4020c1:	48 89 e5             	mov    %rsp,%rbp
  4020c4:	48 83 ec 40          	sub    $0x40,%rsp
  4020c8:	48 89 7d d8          	mov    %rdi,-0x28(%rbp)
  4020cc:	48 89 75 d0          	mov    %rsi,-0x30(%rbp)
  4020d0:	48 89 55 c8          	mov    %rdx,-0x38(%rbp)
  4020d4:	48 8b 7d d8          	mov    -0x28(%rbp),%rdi
  4020d8:	e8 df 6d 00 00       	callq  408ebc <_D9invariant12_d_invariantFC6ObjectZv>
    {
	ubyte[] s1 = *cast(ubyte[]*)p1;
  4020dd:	48 8b 55 d0          	mov    -0x30(%rbp),%rdx
  4020e1:	48 8b 02             	mov    (%rdx),%rax
  4020e4:	48 89 45 e0          	mov    %rax,-0x20(%rbp)
  4020e8:	48 8b 42 08          	mov    0x8(%rdx),%rax
  4020ec:	48 89 45 e8          	mov    %rax,-0x18(%rbp)
	ubyte[] s2 = *cast(ubyte[]*)p2;
  4020f0:	48 8b 55 c8          	mov    -0x38(%rbp),%rdx
  4020f4:	48 8b 02             	mov    (%rdx),%rax
  4020f7:	48 89 45 f0          	mov    %rax,-0x10(%rbp)
  4020fb:	48 8b 42 08          	mov    0x8(%rdx),%rax
  4020ff:	48 89 45 f8          	mov    %rax,-0x8(%rbp)

	return memcmp(s1.ptr, s2.ptr, s1.length);
  402103:	48 8b 55 e0          	mov    -0x20(%rbp),%rdx
  402107:	48 8b 75 f8          	mov    -0x8(%rbp),%rsi
  40210b:	48 8b 7d e8          	mov    -0x18(%rbp),%rdi
  40210f:	e8 e0 b2 00 00       	callq  40d3f4 <_D6kernel4core6system6memcmpFPvPvmZl>
    }
  402114:	c9                   	leaveq 
  402115:	c3                   	retq   

0000000000402116 <_D3std8typeinfo5ti_Ag11TypeInfo_Ah4nextMFZC8TypeInfo>:

    TypeInfo next()
  402116:	55                   	push   %rbp
  402117:	48 89 e5             	mov    %rsp,%rbp
  40211a:	48 83 ec 10          	sub    $0x10,%rsp
  40211e:	48 89 7d f8          	mov    %rdi,-0x8(%rbp)
  402122:	48 8b 7d f8          	mov    -0x8(%rbp),%rdi
  402126:	e8 91 6d 00 00       	callq  408ebc <_D9invariant12_d_invariantFC6ObjectZv>
    {
	return typeid(ubyte);
  40212b:	48 c7 c0 b0 0d 41 00 	mov    $0x410db0,%rax
    }
  402132:	c9                   	leaveq 
  402133:	c3                   	retq   

0000000000402134 <_D3std8typeinfo5ti_Ag11TypeInfo_Av8toStringMFZAa>:

// void[]

class TypeInfo_Av : TypeInfo_Ah
{
    char[] toString() { return "void[]"; }
  402134:	55                   	push   %rbp
  402135:	48 89 e5             	mov    %rsp,%rbp
  402138:	53                   	push   %rbx
  402139:	48 83 ec 08          	sub    $0x8,%rsp
  40213d:	48 89 fb             	mov    %rdi,%rbx
  402140:	48 89 75 f0          	mov    %rsi,-0x10(%rbp)
  402144:	48 8b 7d f0          	mov    -0x10(%rbp),%rdi
  402148:	e8 6f 6d 00 00       	callq  408ebc <_D9invariant12_d_invariantFC6ObjectZv>
  40214d:	48 c7 03 06 00 00 00 	movq   $0x6,(%rbx)
  402154:	48 c7 43 08 b0 f7 40 	movq   $0x40f7b0,0x8(%rbx)
  40215b:	00 
  40215c:	48 89 d8             	mov    %rbx,%rax
  40215f:	48 83 c4 08          	add    $0x8,%rsp
  402163:	5b                   	pop    %rbx
  402164:	c9                   	leaveq 
  402165:	c3                   	retq   

0000000000402166 <_D3std8typeinfo5ti_Ag11TypeInfo_Av4nextMFZC8TypeInfo>:

    TypeInfo next()
  402166:	55                   	push   %rbp
  402167:	48 89 e5             	mov    %rsp,%rbp
  40216a:	48 83 ec 10          	sub    $0x10,%rsp
  40216e:	48 89 7d f8          	mov    %rdi,-0x8(%rbp)
  402172:	48 8b 7d f8          	mov    -0x8(%rbp),%rdi
  402176:	e8 41 6d 00 00       	callq  408ebc <_D9invariant12_d_invariantFC6ObjectZv>
    {
	return typeid(void);
  40217b:	48 c7 c0 60 11 41 00 	mov    $0x411160,%rax
    }
  402182:	c9                   	leaveq 
  402183:	c3                   	retq   

0000000000402184 <_D3std8typeinfo5ti_Ag11TypeInfo_Ab8toStringMFZAa>:

// bool[]

class TypeInfo_Ab : TypeInfo_Ah
{
    char[] toString() { return "bool[]"; }
  402184:	55                   	push   %rbp
  402185:	48 89 e5             	mov    %rsp,%rbp
  402188:	53                   	push   %rbx
  402189:	48 83 ec 08          	sub    $0x8,%rsp
  40218d:	48 89 fb             	mov    %rdi,%rbx
  402190:	48 89 75 f0          	mov    %rsi,-0x10(%rbp)
  402194:	48 8b 7d f0          	mov    -0x10(%rbp),%rdi
  402198:	e8 1f 6d 00 00       	callq  408ebc <_D9invariant12_d_invariantFC6ObjectZv>
  40219d:	48 c7 03 06 00 00 00 	movq   $0x6,(%rbx)
  4021a4:	48 c7 43 08 50 f8 40 	movq   $0x40f850,0x8(%rbx)
  4021ab:	00 
  4021ac:	48 89 d8             	mov    %rbx,%rax
  4021af:	48 83 c4 08          	add    $0x8,%rsp
  4021b3:	5b                   	pop    %rbx
  4021b4:	c9                   	leaveq 
  4021b5:	c3                   	retq   

00000000004021b6 <_D3std8typeinfo5ti_Ag11TypeInfo_Ab4nextMFZC8TypeInfo>:

    TypeInfo next()
  4021b6:	55                   	push   %rbp
  4021b7:	48 89 e5             	mov    %rsp,%rbp
  4021ba:	48 83 ec 10          	sub    $0x10,%rsp
  4021be:	48 89 7d f8          	mov    %rdi,-0x8(%rbp)
  4021c2:	48 8b 7d f8          	mov    -0x8(%rbp),%rdi
  4021c6:	e8 f1 6c 00 00       	callq  408ebc <_D9invariant12_d_invariantFC6ObjectZv>
    {
	return typeid(bool);
  4021cb:	48 c7 c0 60 0e 41 00 	mov    $0x410e60,%rax
    }
  4021d2:	c9                   	leaveq 
  4021d3:	c3                   	retq   

00000000004021d4 <_D3std8typeinfo5ti_Ag11TypeInfo_Aa8toStringMFZAa>:

// char[]

class TypeInfo_Aa : TypeInfo_Ag
{
    char[] toString() { return "char[]"; }
  4021d4:	55                   	push   %rbp
  4021d5:	48 89 e5             	mov    %rsp,%rbp
  4021d8:	53                   	push   %rbx
  4021d9:	48 83 ec 08          	sub    $0x8,%rsp
  4021dd:	48 89 fb             	mov    %rdi,%rbx
  4021e0:	48 89 75 f0          	mov    %rsi,-0x10(%rbp)
  4021e4:	48 8b 7d f0          	mov    -0x10(%rbp),%rdi
  4021e8:	e8 cf 6c 00 00       	callq  408ebc <_D9invariant12_d_invariantFC6ObjectZv>
  4021ed:	48 c7 03 06 00 00 00 	movq   $0x6,(%rbx)
  4021f4:	48 c7 43 08 f0 f8 40 	movq   $0x40f8f0,0x8(%rbx)
  4021fb:	00 
  4021fc:	48 89 d8             	mov    %rbx,%rax
  4021ff:	48 83 c4 08          	add    $0x8,%rsp
  402203:	5b                   	pop    %rbx
  402204:	c9                   	leaveq 
  402205:	c3                   	retq   

0000000000402206 <_D3std8typeinfo5ti_Ag11TypeInfo_Aa7getHashMFPvZm>:

    hash_t getHash(void *p)
  402206:	55                   	push   %rbp
  402207:	48 89 e5             	mov    %rsp,%rbp
  40220a:	48 83 ec 50          	sub    $0x50,%rsp
  40220e:	48 89 7d c8          	mov    %rdi,-0x38(%rbp)
  402212:	48 89 75 c0          	mov    %rsi,-0x40(%rbp)
  402216:	48 8b 7d c8          	mov    -0x38(%rbp),%rdi
  40221a:	e8 9d 6c 00 00       	callq  408ebc <_D9invariant12_d_invariantFC6ObjectZv>
    {	char[] s = *cast(char[]*)p;
  40221f:	48 8b 55 c0          	mov    -0x40(%rbp),%rdx
  402223:	48 8b 02             	mov    (%rdx),%rax
  402226:	48 89 45 d0          	mov    %rax,-0x30(%rbp)
  40222a:	48 8b 42 08          	mov    0x8(%rdx),%rax
  40222e:	48 89 45 d8          	mov    %rax,-0x28(%rbp)
	hash_t hash = 0;
  402232:	48 c7 45 e8 00 00 00 	movq   $0x0,-0x18(%rbp)
  402239:	00 

version (all)
{
	foreach (char c; s)
  40223a:	48 8b 45 d8          	mov    -0x28(%rbp),%rax
  40223e:	48 89 45 b8          	mov    %rax,-0x48(%rbp)
  402242:	48 8b 45 b8          	mov    -0x48(%rbp),%rax
  402246:	48 89 45 f0          	mov    %rax,-0x10(%rbp)
  40224a:	48 8b 45 d0          	mov    -0x30(%rbp),%rax
  40224e:	48 03 45 b8          	add    -0x48(%rbp),%rax
  402252:	48 39 45 f0          	cmp    %rax,-0x10(%rbp)
  402256:	0f 95 c0             	setne  %al
  402259:	83 f0 01             	xor    $0x1,%eax
  40225c:	84 c0                	test   %al,%al
  40225e:	75 3c                	jne    40229c <_D3std8typeinfo5ti_Ag11TypeInfo_Aa7getHashMFPvZm+0x96>
  402260:	48 8b 45 f0          	mov    -0x10(%rbp),%rax
  402264:	0f b6 00             	movzbl (%rax),%eax
  402267:	88 45 ff             	mov    %al,-0x1(%rbp)
	    hash = hash * 11 + c;
  40226a:	48 8b 4d e8          	mov    -0x18(%rbp),%rcx
  40226e:	48 89 c8             	mov    %rcx,%rax
  402271:	48 8d 14 85 00 00 00 	lea    0x0(,%rax,4),%rdx
  402278:	00 
  402279:	48 8d 04 95 00 00 00 	lea    0x0(,%rdx,4),%rax
  402280:	00 
  402281:	48 29 d0             	sub    %rdx,%rax
  402284:	48 89 c2             	mov    %rax,%rdx
  402287:	48 29 ca             	sub    %rcx,%rdx
  40228a:	0f b6 45 ff          	movzbl -0x1(%rbp),%eax
  40228e:	48 8d 04 02          	lea    (%rdx,%rax,1),%rax
  402292:	48 89 45 e8          	mov    %rax,-0x18(%rbp)
  402296:	48 ff 45 f0          	incq   -0x10(%rbp)
  40229a:	eb ae                	jmp    40224a <_D3std8typeinfo5ti_Ag11TypeInfo_Aa7getHashMFPvZm+0x44>
		    len -= 4;
		    break;
	    }
	}
}
	return hash;
  40229c:	48 8b 45 e8          	mov    -0x18(%rbp),%rax
    }
  4022a0:	c9                   	leaveq 
  4022a1:	c3                   	retq   

00000000004022a2 <_D3std8typeinfo5ti_Ag11TypeInfo_Aa4nextMFZC8TypeInfo>:

    TypeInfo next()
  4022a2:	55                   	push   %rbp
  4022a3:	48 89 e5             	mov    %rsp,%rbp
  4022a6:	48 83 ec 10          	sub    $0x10,%rsp
  4022aa:	48 89 7d f8          	mov    %rdi,-0x8(%rbp)
  4022ae:	48 8b 7d f8          	mov    -0x8(%rbp),%rdi
  4022b2:	e8 05 6c 00 00       	callq  408ebc <_D9invariant12_d_invariantFC6ObjectZv>
    {
	return typeid(char);
  4022b7:	48 c7 c0 70 03 41 00 	mov    $0x410370,%rax
    }
  4022be:	c9                   	leaveq 
  4022bf:	c3                   	retq   

00000000004022c0 <_D3std8typeinfo7ti_Aint11TypeInfo_Ai8toStringMFZAa>:

// int[]

class TypeInfo_Ai : TypeInfo
{
    char[] toString() { return "int[]"; }
  4022c0:	55                   	push   %rbp
  4022c1:	48 89 e5             	mov    %rsp,%rbp
  4022c4:	53                   	push   %rbx
  4022c5:	48 83 ec 08          	sub    $0x8,%rsp
  4022c9:	48 89 fb             	mov    %rdi,%rbx
  4022cc:	48 89 75 f0          	mov    %rsi,-0x10(%rbp)
  4022d0:	48 8b 7d f0          	mov    -0x10(%rbp),%rdi
  4022d4:	e8 e3 6b 00 00       	callq  408ebc <_D9invariant12_d_invariantFC6ObjectZv>
  4022d9:	48 c7 03 05 00 00 00 	movq   $0x5,(%rbx)
  4022e0:	48 c7 43 08 a0 f9 40 	movq   $0x40f9a0,0x8(%rbx)
  4022e7:	00 
  4022e8:	48 89 d8             	mov    %rbx,%rax
  4022eb:	48 83 c4 08          	add    $0x8,%rsp
  4022ef:	5b                   	pop    %rbx
  4022f0:	c9                   	leaveq 
  4022f1:	c3                   	retq   

00000000004022f2 <_D3std8typeinfo7ti_Aint11TypeInfo_Ai7getHashMFPvZm>:

    hash_t getHash(void *p)
  4022f2:	55                   	push   %rbp
  4022f3:	48 89 e5             	mov    %rsp,%rbp
  4022f6:	48 83 ec 40          	sub    $0x40,%rsp
  4022fa:	48 89 7d c8          	mov    %rdi,-0x38(%rbp)
  4022fe:	48 89 75 c0          	mov    %rsi,-0x40(%rbp)
  402302:	48 8b 7d c8          	mov    -0x38(%rbp),%rdi
  402306:	e8 b1 6b 00 00       	callq  408ebc <_D9invariant12_d_invariantFC6ObjectZv>
    {	int[] s = *cast(int[]*)p;
  40230b:	48 8b 55 c0          	mov    -0x40(%rbp),%rdx
  40230f:	48 8b 02             	mov    (%rdx),%rax
  402312:	48 89 45 d0          	mov    %rax,-0x30(%rbp)
  402316:	48 8b 42 08          	mov    0x8(%rdx),%rax
  40231a:	48 89 45 d8          	mov    %rax,-0x28(%rbp)
	auto len = s.length;
  40231e:	48 8b 45 d0          	mov    -0x30(%rbp),%rax
  402322:	48 89 45 f8          	mov    %rax,-0x8(%rbp)
	auto str = s.ptr;
  402326:	48 8b 45 d8          	mov    -0x28(%rbp),%rax
  40232a:	48 89 45 f0          	mov    %rax,-0x10(%rbp)
	hash_t hash = 0;
  40232e:	48 c7 45 e8 00 00 00 	movq   $0x0,-0x18(%rbp)
  402335:	00 

	while (len)
  402336:	48 83 7d f8 00       	cmpq   $0x0,-0x8(%rbp)
  40233b:	0f 95 c0             	setne  %al
  40233e:	83 f0 01             	xor    $0x1,%eax
  402341:	84 c0                	test   %al,%al
  402343:	75 29                	jne    40236e <_D3std8typeinfo7ti_Aint11TypeInfo_Ai7getHashMFPvZm+0x7c>
	{
	    hash *= 9;
  402345:	48 8b 55 e8          	mov    -0x18(%rbp),%rdx
  402349:	48 89 d0             	mov    %rdx,%rax
  40234c:	48 c1 e0 03          	shl    $0x3,%rax
  402350:	48 01 d0             	add    %rdx,%rax
  402353:	48 89 45 e8          	mov    %rax,-0x18(%rbp)
	    hash += *cast(uint *)str;
  402357:	48 8b 45 f0          	mov    -0x10(%rbp),%rax
  40235b:	8b 00                	mov    (%rax),%eax
  40235d:	89 c0                	mov    %eax,%eax
  40235f:	48 01 45 e8          	add    %rax,-0x18(%rbp)
	    str++;
  402363:	48 83 45 f0 04       	addq   $0x4,-0x10(%rbp)
	    len--;
  402368:	48 ff 4d f8          	decq   -0x8(%rbp)
  40236c:	eb c8                	jmp    402336 <_D3std8typeinfo7ti_Aint11TypeInfo_Ai7getHashMFPvZm+0x44>
	}

	return hash;
  40236e:	48 8b 45 e8          	mov    -0x18(%rbp),%rax
    }
  402372:	c9                   	leaveq 
  402373:	c3                   	retq   

0000000000402374 <_D3std8typeinfo7ti_Aint11TypeInfo_Ai6equalsMFPvPvZi>:

    int equals(void *p1, void *p2)
  402374:	55                   	push   %rbp
  402375:	48 89 e5             	mov    %rsp,%rbp
  402378:	48 83 ec 40          	sub    $0x40,%rsp
  40237c:	48 89 7d d8          	mov    %rdi,-0x28(%rbp)
  402380:	48 89 75 d0          	mov    %rsi,-0x30(%rbp)
  402384:	48 89 55 c8          	mov    %rdx,-0x38(%rbp)
  402388:	48 8b 7d d8          	mov    -0x28(%rbp),%rdi
  40238c:	e8 2b 6b 00 00       	callq  408ebc <_D9invariant12_d_invariantFC6ObjectZv>
    {
	int[] s1 = *cast(int[]*)p1;
  402391:	48 8b 55 d0          	mov    -0x30(%rbp),%rdx
  402395:	48 8b 02             	mov    (%rdx),%rax
  402398:	48 89 45 e0          	mov    %rax,-0x20(%rbp)
  40239c:	48 8b 42 08          	mov    0x8(%rdx),%rax
  4023a0:	48 89 45 e8          	mov    %rax,-0x18(%rbp)
	int[] s2 = *cast(int[]*)p2;
  4023a4:	48 8b 55 c8          	mov    -0x38(%rbp),%rdx
  4023a8:	48 8b 02             	mov    (%rdx),%rax
  4023ab:	48 89 45 f0          	mov    %rax,-0x10(%rbp)
  4023af:	48 8b 42 08          	mov    0x8(%rdx),%rax
  4023b3:	48 89 45 f8          	mov    %rax,-0x8(%rbp)

	return s1.length == s2.length &&
  4023b7:	48 8b 55 e0          	mov    -0x20(%rbp),%rdx
  4023bb:	48 8b 45 f0          	mov    -0x10(%rbp),%rax
  4023bf:	48 39 c2             	cmp    %rax,%rdx
  4023c2:	75 2a                	jne    4023ee <_D3std8typeinfo7ti_Aint11TypeInfo_Ai6equalsMFPvPvZi+0x7a>
  4023c4:	48 8b 45 e0          	mov    -0x20(%rbp),%rax
  4023c8:	48 8d 14 85 00 00 00 	lea    0x0(,%rax,4),%rdx
  4023cf:	00 
  4023d0:	48 8b 45 f8          	mov    -0x8(%rbp),%rax
  4023d4:	48 89 c6             	mov    %rax,%rsi
  4023d7:	48 8b 45 e8          	mov    -0x18(%rbp),%rax
  4023db:	48 89 c7             	mov    %rax,%rdi
  4023de:	e8 11 b0 00 00       	callq  40d3f4 <_D6kernel4core6system6memcmpFPvPvmZl>
  4023e3:	48 85 c0             	test   %rax,%rax
  4023e6:	75 06                	jne    4023ee <_D3std8typeinfo7ti_Aint11TypeInfo_Ai6equalsMFPvPvZi+0x7a>
  4023e8:	c6 45 c7 01          	movb   $0x1,-0x39(%rbp)
  4023ec:	eb 04                	jmp    4023f2 <_D3std8typeinfo7ti_Aint11TypeInfo_Ai6equalsMFPvPvZi+0x7e>
  4023ee:	c6 45 c7 00          	movb   $0x0,-0x39(%rbp)
  4023f2:	0f b6 45 c7          	movzbl -0x39(%rbp),%eax
	       memcmp(cast(ubyte*)s1.ptr, cast(ubyte*)s2.ptr, s1.length * int.sizeof) == 0;
    }
  4023f6:	c9                   	leaveq 
  4023f7:	c3                   	retq   

00000000004023f8 <_D3std8typeinfo7ti_Aint11TypeInfo_Ai7compareMFPvPvZi>:

    int compare(void *p1, void *p2)
  4023f8:	55                   	push   %rbp
  4023f9:	48 89 e5             	mov    %rsp,%rbp
  4023fc:	48 81 ec b0 00 00 00 	sub    $0xb0,%rsp
  402403:	48 89 7d 98          	mov    %rdi,-0x68(%rbp)
  402407:	48 89 75 90          	mov    %rsi,-0x70(%rbp)
  40240b:	48 89 55 88          	mov    %rdx,-0x78(%rbp)
  40240f:	48 8b 7d 98          	mov    -0x68(%rbp),%rdi
  402413:	e8 a4 6a 00 00       	callq  408ebc <_D9invariant12_d_invariantFC6ObjectZv>
    {
	int[] s1 = *cast(int[]*)p1;
  402418:	48 8b 55 90          	mov    -0x70(%rbp),%rdx
  40241c:	48 8b 02             	mov    (%rdx),%rax
  40241f:	48 89 45 a0          	mov    %rax,-0x60(%rbp)
  402423:	48 8b 42 08          	mov    0x8(%rdx),%rax
  402427:	48 89 45 a8          	mov    %rax,-0x58(%rbp)
	int[] s2 = *cast(int[]*)p2;
  40242b:	48 8b 55 88          	mov    -0x78(%rbp),%rdx
  40242f:	48 8b 02             	mov    (%rdx),%rax
  402432:	48 89 45 b0          	mov    %rax,-0x50(%rbp)
  402436:	48 8b 42 08          	mov    0x8(%rdx),%rax
  40243a:	48 89 45 b8          	mov    %rax,-0x48(%rbp)
	size_t len = s1.length;
  40243e:	48 8b 45 a0          	mov    -0x60(%rbp),%rax
  402442:	48 89 45 e8          	mov    %rax,-0x18(%rbp)

	if (s2.length < len)
  402446:	48 8b 45 b0          	mov    -0x50(%rbp),%rax
  40244a:	48 3b 45 e8          	cmp    -0x18(%rbp),%rax
  40244e:	73 08                	jae    402458 <_D3std8typeinfo7ti_Aint11TypeInfo_Ai7compareMFPvPvZi+0x60>
	    len = s2.length;
  402450:	48 8b 45 b0          	mov    -0x50(%rbp),%rax
  402454:	48 89 45 e8          	mov    %rax,-0x18(%rbp)
	for (size_t u = 0; u < len; u++)
  402458:	48 c7 45 f0 00 00 00 	movq   $0x0,-0x10(%rbp)
  40245f:	00 
  402460:	48 8b 45 f0          	mov    -0x10(%rbp),%rax
  402464:	48 3b 45 e8          	cmp    -0x18(%rbp),%rax
  402468:	0f 92 c0             	setb   %al
  40246b:	83 f0 01             	xor    $0x1,%eax
  40246e:	84 c0                	test   %al,%al
  402470:	0f 85 da 00 00 00    	jne    402550 <_D3std8typeinfo7ti_Aint11TypeInfo_Ai7compareMFPvPvZi+0x158>
	{
	    int result = s1[u] - s2[u];
  402476:	48 8b 45 a8          	mov    -0x58(%rbp),%rax
  40247a:	48 89 85 58 ff ff ff 	mov    %rax,-0xa8(%rbp)
  402481:	48 8b 45 a0          	mov    -0x60(%rbp),%rax
  402485:	48 39 45 f0          	cmp    %rax,-0x10(%rbp)
  402489:	73 0d                	jae    402498 <_D3std8typeinfo7ti_Aint11TypeInfo_Ai7compareMFPvPvZi+0xa0>
  40248b:	48 8b 55 f0          	mov    -0x10(%rbp),%rdx
  40248f:	48 89 95 60 ff ff ff 	mov    %rdx,-0xa0(%rbp)
  402496:	eb 22                	jmp    4024ba <_D3std8typeinfo7ti_Aint11TypeInfo_Ai7compareMFPvPvZi+0xc2>
  402498:	48 c7 45 c0 16 00 00 	movq   $0x16,-0x40(%rbp)
  40249f:	00 
  4024a0:	48 c7 45 c8 a6 f9 40 	movq   $0x40f9a6,-0x38(%rbp)
  4024a7:	00 
  4024a8:	48 8b 7d c0          	mov    -0x40(%rbp),%rdi
  4024ac:	48 8b 75 c8          	mov    -0x38(%rbp),%rsi
  4024b0:	ba 30 00 00 00       	mov    $0x30,%edx
  4024b5:	e8 cb 84 00 00       	callq  40a985 <_d_array_bounds>
  4024ba:	48 8b 85 60 ff ff ff 	mov    -0xa0(%rbp),%rax
  4024c1:	48 c1 e0 02          	shl    $0x2,%rax
  4024c5:	48 03 85 58 ff ff ff 	add    -0xa8(%rbp),%rax
  4024cc:	8b 00                	mov    (%rax),%eax
  4024ce:	89 85 6c ff ff ff    	mov    %eax,-0x94(%rbp)
  4024d4:	48 8b 45 b8          	mov    -0x48(%rbp),%rax
  4024d8:	48 89 85 70 ff ff ff 	mov    %rax,-0x90(%rbp)
  4024df:	48 8b 45 b0          	mov    -0x50(%rbp),%rax
  4024e3:	48 39 45 f0          	cmp    %rax,-0x10(%rbp)
  4024e7:	73 0d                	jae    4024f6 <_D3std8typeinfo7ti_Aint11TypeInfo_Ai7compareMFPvPvZi+0xfe>
  4024e9:	48 8b 55 f0          	mov    -0x10(%rbp),%rdx
  4024ed:	48 89 95 78 ff ff ff 	mov    %rdx,-0x88(%rbp)
  4024f4:	eb 22                	jmp    402518 <_D3std8typeinfo7ti_Aint11TypeInfo_Ai7compareMFPvPvZi+0x120>
  4024f6:	48 c7 45 d0 16 00 00 	movq   $0x16,-0x30(%rbp)
  4024fd:	00 
  4024fe:	48 c7 45 d8 a6 f9 40 	movq   $0x40f9a6,-0x28(%rbp)
  402505:	00 
  402506:	48 8b 7d d0          	mov    -0x30(%rbp),%rdi
  40250a:	48 8b 75 d8          	mov    -0x28(%rbp),%rsi
  40250e:	ba 30 00 00 00       	mov    $0x30,%edx
  402513:	e8 6d 84 00 00       	callq  40a985 <_d_array_bounds>
  402518:	48 8b 85 78 ff ff ff 	mov    -0x88(%rbp),%rax
  40251f:	48 c1 e0 02          	shl    $0x2,%rax
  402523:	48 03 85 70 ff ff ff 	add    -0x90(%rbp),%rax
  40252a:	8b 00                	mov    (%rax),%eax
  40252c:	8b 95 6c ff ff ff    	mov    -0x94(%rbp),%edx
  402532:	29 c2                	sub    %eax,%edx
  402534:	89 d0                	mov    %edx,%eax
  402536:	89 45 fc             	mov    %eax,-0x4(%rbp)
	    if (result)
  402539:	83 7d fc 00          	cmpl   $0x0,-0x4(%rbp)
  40253d:	74 08                	je     402547 <_D3std8typeinfo7ti_Aint11TypeInfo_Ai7compareMFPvPvZi+0x14f>
		return result;
  40253f:	8b 45 fc             	mov    -0x4(%rbp),%eax
  402542:	89 45 84             	mov    %eax,-0x7c(%rbp)
  402545:	eb 3c                	jmp    402583 <_D3std8typeinfo7ti_Aint11TypeInfo_Ai7compareMFPvPvZi+0x18b>
	if (s2.length < len)
	    len = s2.length;
	for (size_t u = 0; u < len; u++)
	{
	    int result = s1[u] - s2[u];
	    if (result)
  402547:	48 ff 45 f0          	incq   -0x10(%rbp)
  40254b:	e9 10 ff ff ff       	jmpq   402460 <_D3std8typeinfo7ti_Aint11TypeInfo_Ai7compareMFPvPvZi+0x68>
		return result;
	}
	if (s1.length < s2.length)
  402550:	48 8b 55 a0          	mov    -0x60(%rbp),%rdx
  402554:	48 8b 45 b0          	mov    -0x50(%rbp),%rax
  402558:	48 39 c2             	cmp    %rax,%rdx
  40255b:	73 09                	jae    402566 <_D3std8typeinfo7ti_Aint11TypeInfo_Ai7compareMFPvPvZi+0x16e>
	    return -1;
  40255d:	c7 45 84 ff ff ff ff 	movl   $0xffffffff,-0x7c(%rbp)
  402564:	eb 1d                	jmp    402583 <_D3std8typeinfo7ti_Aint11TypeInfo_Ai7compareMFPvPvZi+0x18b>
	else if (s1.length > s2.length)
  402566:	48 8b 55 a0          	mov    -0x60(%rbp),%rdx
  40256a:	48 8b 45 b0          	mov    -0x50(%rbp),%rax
  40256e:	48 39 c2             	cmp    %rax,%rdx
  402571:	76 09                	jbe    40257c <_D3std8typeinfo7ti_Aint11TypeInfo_Ai7compareMFPvPvZi+0x184>
	    return 1;
  402573:	c7 45 84 01 00 00 00 	movl   $0x1,-0x7c(%rbp)
  40257a:	eb 07                	jmp    402583 <_D3std8typeinfo7ti_Aint11TypeInfo_Ai7compareMFPvPvZi+0x18b>
	return 0;
  40257c:	c7 45 84 00 00 00 00 	movl   $0x0,-0x7c(%rbp)
  402583:	8b 45 84             	mov    -0x7c(%rbp),%eax
    }
  402586:	c9                   	leaveq 
  402587:	c3                   	retq   

0000000000402588 <_D3std8typeinfo7ti_Aint11TypeInfo_Ai5tsizeMFZm>:

    size_t tsize()
  402588:	55                   	push   %rbp
  402589:	48 89 e5             	mov    %rsp,%rbp
  40258c:	48 83 ec 10          	sub    $0x10,%rsp
  402590:	48 89 7d f8          	mov    %rdi,-0x8(%rbp)
  402594:	48 8b 7d f8          	mov    -0x8(%rbp),%rdi
  402598:	e8 1f 69 00 00       	callq  408ebc <_D9invariant12_d_invariantFC6ObjectZv>
    {
	return (int[]).sizeof;
  40259d:	b8 10 00 00 00       	mov    $0x10,%eax
    }
  4025a2:	c9                   	leaveq 
  4025a3:	c3                   	retq   

00000000004025a4 <_D3std8typeinfo7ti_Aint11TypeInfo_Ai5flagsMFZk>:

    uint flags()
  4025a4:	55                   	push   %rbp
  4025a5:	48 89 e5             	mov    %rsp,%rbp
  4025a8:	48 83 ec 10          	sub    $0x10,%rsp
  4025ac:	48 89 7d f8          	mov    %rdi,-0x8(%rbp)
  4025b0:	48 8b 7d f8          	mov    -0x8(%rbp),%rdi
  4025b4:	e8 03 69 00 00       	callq  408ebc <_D9invariant12_d_invariantFC6ObjectZv>
    {
	return 1;
  4025b9:	b8 01 00 00 00       	mov    $0x1,%eax
    }
  4025be:	c9                   	leaveq 
  4025bf:	c3                   	retq   

00000000004025c0 <_D3std8typeinfo7ti_Aint11TypeInfo_Ai4nextMFZC8TypeInfo>:

    TypeInfo next()
  4025c0:	55                   	push   %rbp
  4025c1:	48 89 e5             	mov    %rsp,%rbp
  4025c4:	48 83 ec 10          	sub    $0x10,%rsp
  4025c8:	48 89 7d f8          	mov    %rdi,-0x8(%rbp)
  4025cc:	48 8b 7d f8          	mov    -0x8(%rbp),%rdi
  4025d0:	e8 e7 68 00 00       	callq  408ebc <_D9invariant12_d_invariantFC6ObjectZv>
    {
	return typeid(int);
  4025d5:	48 c7 c0 50 09 41 00 	mov    $0x410950,%rax
    }
  4025dc:	c9                   	leaveq 
  4025dd:	c3                   	retq   

00000000004025de <_D3std8typeinfo7ti_Aint11TypeInfo_Ak8toStringMFZAa>:

// uint[]

class TypeInfo_Ak : TypeInfo_Ai
{
    char[] toString() { return "uint[]"; }
  4025de:	55                   	push   %rbp
  4025df:	48 89 e5             	mov    %rsp,%rbp
  4025e2:	53                   	push   %rbx
  4025e3:	48 83 ec 08          	sub    $0x8,%rsp
  4025e7:	48 89 fb             	mov    %rdi,%rbx
  4025ea:	48 89 75 f0          	mov    %rsi,-0x10(%rbp)
  4025ee:	48 8b 7d f0          	mov    -0x10(%rbp),%rdi
  4025f2:	e8 c5 68 00 00       	callq  408ebc <_D9invariant12_d_invariantFC6ObjectZv>
  4025f7:	48 c7 03 06 00 00 00 	movq   $0x6,(%rbx)
  4025fe:	48 c7 43 08 50 fa 40 	movq   $0x40fa50,0x8(%rbx)
  402605:	00 
  402606:	48 89 d8             	mov    %rbx,%rax
  402609:	48 83 c4 08          	add    $0x8,%rsp
  40260d:	5b                   	pop    %rbx
  40260e:	c9                   	leaveq 
  40260f:	c3                   	retq   

0000000000402610 <_D3std8typeinfo7ti_Aint11TypeInfo_Ak7compareMFPvPvZi>:

    int compare(void *p1, void *p2)
  402610:	55                   	push   %rbp
  402611:	48 89 e5             	mov    %rsp,%rbp
  402614:	48 81 ec b0 00 00 00 	sub    $0xb0,%rsp
  40261b:	48 89 7d 98          	mov    %rdi,-0x68(%rbp)
  40261f:	48 89 75 90          	mov    %rsi,-0x70(%rbp)
  402623:	48 89 55 88          	mov    %rdx,-0x78(%rbp)
  402627:	48 8b 7d 98          	mov    -0x68(%rbp),%rdi
  40262b:	e8 8c 68 00 00       	callq  408ebc <_D9invariant12_d_invariantFC6ObjectZv>
    {
	uint[] s1 = *cast(uint[]*)p1;
  402630:	48 8b 55 90          	mov    -0x70(%rbp),%rdx
  402634:	48 8b 02             	mov    (%rdx),%rax
  402637:	48 89 45 a0          	mov    %rax,-0x60(%rbp)
  40263b:	48 8b 42 08          	mov    0x8(%rdx),%rax
  40263f:	48 89 45 a8          	mov    %rax,-0x58(%rbp)
	uint[] s2 = *cast(uint[]*)p2;
  402643:	48 8b 55 88          	mov    -0x78(%rbp),%rdx
  402647:	48 8b 02             	mov    (%rdx),%rax
  40264a:	48 89 45 b0          	mov    %rax,-0x50(%rbp)
  40264e:	48 8b 42 08          	mov    0x8(%rdx),%rax
  402652:	48 89 45 b8          	mov    %rax,-0x48(%rbp)
	size_t len = s1.length;
  402656:	48 8b 45 a0          	mov    -0x60(%rbp),%rax
  40265a:	48 89 45 e8          	mov    %rax,-0x18(%rbp)

	if (s2.length < len)
  40265e:	48 8b 45 b0          	mov    -0x50(%rbp),%rax
  402662:	48 3b 45 e8          	cmp    -0x18(%rbp),%rax
  402666:	73 08                	jae    402670 <_D3std8typeinfo7ti_Aint11TypeInfo_Ak7compareMFPvPvZi+0x60>
	    len = s2.length;
  402668:	48 8b 45 b0          	mov    -0x50(%rbp),%rax
  40266c:	48 89 45 e8          	mov    %rax,-0x18(%rbp)
	for (size_t u = 0; u < len; u++)
  402670:	48 c7 45 f0 00 00 00 	movq   $0x0,-0x10(%rbp)
  402677:	00 
  402678:	48 8b 45 f0          	mov    -0x10(%rbp),%rax
  40267c:	48 3b 45 e8          	cmp    -0x18(%rbp),%rax
  402680:	0f 92 c0             	setb   %al
  402683:	83 f0 01             	xor    $0x1,%eax
  402686:	84 c0                	test   %al,%al
  402688:	0f 85 da 00 00 00    	jne    402768 <_D3std8typeinfo7ti_Aint11TypeInfo_Ak7compareMFPvPvZi+0x158>
	{
	    int result = s1[u] - s2[u];
  40268e:	48 8b 45 a8          	mov    -0x58(%rbp),%rax
  402692:	48 89 85 58 ff ff ff 	mov    %rax,-0xa8(%rbp)
  402699:	48 8b 45 a0          	mov    -0x60(%rbp),%rax
  40269d:	48 39 45 f0          	cmp    %rax,-0x10(%rbp)
  4026a1:	73 0d                	jae    4026b0 <_D3std8typeinfo7ti_Aint11TypeInfo_Ak7compareMFPvPvZi+0xa0>
  4026a3:	48 8b 55 f0          	mov    -0x10(%rbp),%rdx
  4026a7:	48 89 95 60 ff ff ff 	mov    %rdx,-0xa0(%rbp)
  4026ae:	eb 22                	jmp    4026d2 <_D3std8typeinfo7ti_Aint11TypeInfo_Ak7compareMFPvPvZi+0xc2>
  4026b0:	48 c7 45 c0 16 00 00 	movq   $0x16,-0x40(%rbp)
  4026b7:	00 
  4026b8:	48 c7 45 c8 a6 f9 40 	movq   $0x40f9a6,-0x38(%rbp)
  4026bf:	00 
  4026c0:	48 8b 7d c0          	mov    -0x40(%rbp),%rdi
  4026c4:	48 8b 75 c8          	mov    -0x38(%rbp),%rsi
  4026c8:	ba 5b 00 00 00       	mov    $0x5b,%edx
  4026cd:	e8 b3 82 00 00       	callq  40a985 <_d_array_bounds>
  4026d2:	48 8b 85 60 ff ff ff 	mov    -0xa0(%rbp),%rax
  4026d9:	48 c1 e0 02          	shl    $0x2,%rax
  4026dd:	48 03 85 58 ff ff ff 	add    -0xa8(%rbp),%rax
  4026e4:	8b 00                	mov    (%rax),%eax
  4026e6:	89 85 6c ff ff ff    	mov    %eax,-0x94(%rbp)
  4026ec:	48 8b 45 b8          	mov    -0x48(%rbp),%rax
  4026f0:	48 89 85 70 ff ff ff 	mov    %rax,-0x90(%rbp)
  4026f7:	48 8b 45 b0          	mov    -0x50(%rbp),%rax
  4026fb:	48 39 45 f0          	cmp    %rax,-0x10(%rbp)
  4026ff:	73 0d                	jae    40270e <_D3std8typeinfo7ti_Aint11TypeInfo_Ak7compareMFPvPvZi+0xfe>
  402701:	48 8b 55 f0          	mov    -0x10(%rbp),%rdx
  402705:	48 89 95 78 ff ff ff 	mov    %rdx,-0x88(%rbp)
  40270c:	eb 22                	jmp    402730 <_D3std8typeinfo7ti_Aint11TypeInfo_Ak7compareMFPvPvZi+0x120>
  40270e:	48 c7 45 d0 16 00 00 	movq   $0x16,-0x30(%rbp)
  402715:	00 
  402716:	48 c7 45 d8 a6 f9 40 	movq   $0x40f9a6,-0x28(%rbp)
  40271d:	00 
  40271e:	48 8b 7d d0          	mov    -0x30(%rbp),%rdi
  402722:	48 8b 75 d8          	mov    -0x28(%rbp),%rsi
  402726:	ba 5b 00 00 00       	mov    $0x5b,%edx
  40272b:	e8 55 82 00 00       	callq  40a985 <_d_array_bounds>
  402730:	48 8b 85 78 ff ff ff 	mov    -0x88(%rbp),%rax
  402737:	48 c1 e0 02          	shl    $0x2,%rax
  40273b:	48 03 85 70 ff ff ff 	add    -0x90(%rbp),%rax
  402742:	8b 00                	mov    (%rax),%eax
  402744:	8b 95 6c ff ff ff    	mov    -0x94(%rbp),%edx
  40274a:	29 c2                	sub    %eax,%edx
  40274c:	89 d0                	mov    %edx,%eax
  40274e:	89 45 fc             	mov    %eax,-0x4(%rbp)
	    if (result)
  402751:	83 7d fc 00          	cmpl   $0x0,-0x4(%rbp)
  402755:	74 08                	je     40275f <_D3std8typeinfo7ti_Aint11TypeInfo_Ak7compareMFPvPvZi+0x14f>
		return result;
  402757:	8b 45 fc             	mov    -0x4(%rbp),%eax
  40275a:	89 45 84             	mov    %eax,-0x7c(%rbp)
  40275d:	eb 3c                	jmp    40279b <_D3std8typeinfo7ti_Aint11TypeInfo_Ak7compareMFPvPvZi+0x18b>
	if (s2.length < len)
	    len = s2.length;
	for (size_t u = 0; u < len; u++)
	{
	    int result = s1[u] - s2[u];
	    if (result)
  40275f:	48 ff 45 f0          	incq   -0x10(%rbp)
  402763:	e9 10 ff ff ff       	jmpq   402678 <_D3std8typeinfo7ti_Aint11TypeInfo_Ak7compareMFPvPvZi+0x68>
		return result;
	}
	if (s1.length < s2.length)
  402768:	48 8b 55 a0          	mov    -0x60(%rbp),%rdx
  40276c:	48 8b 45 b0          	mov    -0x50(%rbp),%rax
  402770:	48 39 c2             	cmp    %rax,%rdx
  402773:	73 09                	jae    40277e <_D3std8typeinfo7ti_Aint11TypeInfo_Ak7compareMFPvPvZi+0x16e>
	    return -1;
  402775:	c7 45 84 ff ff ff ff 	movl   $0xffffffff,-0x7c(%rbp)
  40277c:	eb 1d                	jmp    40279b <_D3std8typeinfo7ti_Aint11TypeInfo_Ak7compareMFPvPvZi+0x18b>
	else if (s1.length > s2.length)
  40277e:	48 8b 55 a0          	mov    -0x60(%rbp),%rdx
  402782:	48 8b 45 b0          	mov    -0x50(%rbp),%rax
  402786:	48 39 c2             	cmp    %rax,%rdx
  402789:	76 09                	jbe    402794 <_D3std8typeinfo7ti_Aint11TypeInfo_Ak7compareMFPvPvZi+0x184>
	    return 1;
  40278b:	c7 45 84 01 00 00 00 	movl   $0x1,-0x7c(%rbp)
  402792:	eb 07                	jmp    40279b <_D3std8typeinfo7ti_Aint11TypeInfo_Ak7compareMFPvPvZi+0x18b>
	return 0;
  402794:	c7 45 84 00 00 00 00 	movl   $0x0,-0x7c(%rbp)
  40279b:	8b 45 84             	mov    -0x7c(%rbp),%eax
    }
  40279e:	c9                   	leaveq 
  40279f:	c3                   	retq   

00000000004027a0 <_D3std8typeinfo7ti_Aint11TypeInfo_Ak4nextMFZC8TypeInfo>:

    TypeInfo next()
  4027a0:	55                   	push   %rbp
  4027a1:	48 89 e5             	mov    %rsp,%rbp
  4027a4:	48 83 ec 10          	sub    $0x10,%rsp
  4027a8:	48 89 7d f8          	mov    %rdi,-0x8(%rbp)
  4027ac:	48 8b 7d f8          	mov    -0x8(%rbp),%rdi
  4027b0:	e8 07 67 00 00       	callq  408ebc <_D9invariant12_d_invariantFC6ObjectZv>
    {
	return typeid(uint);
  4027b5:	48 c7 c0 10 0f 41 00 	mov    $0x410f10,%rax
    }
  4027bc:	c9                   	leaveq 
  4027bd:	c3                   	retq   

00000000004027be <_D3std8typeinfo7ti_Aint11TypeInfo_Aw8toStringMFZAa>:

// dchar[]

class TypeInfo_Aw : TypeInfo_Ak
{
    char[] toString() { return "dchar[]"; }
  4027be:	55                   	push   %rbp
  4027bf:	48 89 e5             	mov    %rsp,%rbp
  4027c2:	53                   	push   %rbx
  4027c3:	48 83 ec 08          	sub    $0x8,%rsp
  4027c7:	48 89 fb             	mov    %rdi,%rbx
  4027ca:	48 89 75 f0          	mov    %rsi,-0x10(%rbp)
  4027ce:	48 8b 7d f0          	mov    -0x10(%rbp),%rdi
  4027d2:	e8 e5 66 00 00       	callq  408ebc <_D9invariant12_d_invariantFC6ObjectZv>
  4027d7:	48 c7 03 07 00 00 00 	movq   $0x7,(%rbx)
  4027de:	48 c7 43 08 f0 fa 40 	movq   $0x40faf0,0x8(%rbx)
  4027e5:	00 
  4027e6:	48 89 d8             	mov    %rbx,%rax
  4027e9:	48 83 c4 08          	add    $0x8,%rsp
  4027ed:	5b                   	pop    %rbx
  4027ee:	c9                   	leaveq 
  4027ef:	c3                   	retq   

00000000004027f0 <_D3std8typeinfo7ti_Aint11TypeInfo_Aw4nextMFZC8TypeInfo>:

    TypeInfo next()
  4027f0:	55                   	push   %rbp
  4027f1:	48 89 e5             	mov    %rsp,%rbp
  4027f4:	48 83 ec 10          	sub    $0x10,%rsp
  4027f8:	48 89 7d f8          	mov    %rdi,-0x8(%rbp)
  4027fc:	48 8b 7d f8          	mov    -0x8(%rbp),%rdi
  402800:	e8 b7 66 00 00       	callq  408ebc <_D9invariant12_d_invariantFC6ObjectZv>
    {
	return typeid(dchar);
  402805:	48 c7 c0 f0 04 41 00 	mov    $0x4104f0,%rax
    }
  40280c:	c9                   	leaveq 
  40280d:	c3                   	retq   
  40280e:	90                   	nop    
  40280f:	90                   	nop    

0000000000402810 <_D3std8typeinfo8ti_Along11TypeInfo_Al8toStringMFZAa>:

// long[]

class TypeInfo_Al : TypeInfo
{
    char[] toString() { return "long[]"; }
  402810:	55                   	push   %rbp
  402811:	48 89 e5             	mov    %rsp,%rbp
  402814:	53                   	push   %rbx
  402815:	48 83 ec 08          	sub    $0x8,%rsp
  402819:	48 89 fb             	mov    %rdi,%rbx
  40281c:	48 89 75 f0          	mov    %rsi,-0x10(%rbp)
  402820:	48 8b 7d f0          	mov    -0x10(%rbp),%rdi
  402824:	e8 93 66 00 00       	callq  408ebc <_D9invariant12_d_invariantFC6ObjectZv>
  402829:	48 c7 03 06 00 00 00 	movq   $0x6,(%rbx)
  402830:	48 c7 43 08 a0 fb 40 	movq   $0x40fba0,0x8(%rbx)
  402837:	00 
  402838:	48 89 d8             	mov    %rbx,%rax
  40283b:	48 83 c4 08          	add    $0x8,%rsp
  40283f:	5b                   	pop    %rbx
  402840:	c9                   	leaveq 
  402841:	c3                   	retq   

0000000000402842 <_D3std8typeinfo8ti_Along11TypeInfo_Al7getHashMFPvZm>:

    hash_t getHash(void *p)
  402842:	55                   	push   %rbp
  402843:	48 89 e5             	mov    %rsp,%rbp
  402846:	48 83 ec 40          	sub    $0x40,%rsp
  40284a:	48 89 7d c8          	mov    %rdi,-0x38(%rbp)
  40284e:	48 89 75 c0          	mov    %rsi,-0x40(%rbp)
  402852:	48 8b 7d c8          	mov    -0x38(%rbp),%rdi
  402856:	e8 61 66 00 00       	callq  408ebc <_D9invariant12_d_invariantFC6ObjectZv>
    {	long[] s = *cast(long[]*)p;
  40285b:	48 8b 55 c0          	mov    -0x40(%rbp),%rdx
  40285f:	48 8b 02             	mov    (%rdx),%rax
  402862:	48 89 45 d0          	mov    %rax,-0x30(%rbp)
  402866:	48 8b 42 08          	mov    0x8(%rdx),%rax
  40286a:	48 89 45 d8          	mov    %rax,-0x28(%rbp)
	size_t len = s.length;
  40286e:	48 8b 45 d0          	mov    -0x30(%rbp),%rax
  402872:	48 89 45 f8          	mov    %rax,-0x8(%rbp)
	auto str = s.ptr;
  402876:	48 8b 45 d8          	mov    -0x28(%rbp),%rax
  40287a:	48 89 45 f0          	mov    %rax,-0x10(%rbp)
	hash_t hash = 0;
  40287e:	48 c7 45 e8 00 00 00 	movq   $0x0,-0x18(%rbp)
  402885:	00 

	while (len)
  402886:	48 83 7d f8 00       	cmpq   $0x0,-0x8(%rbp)
  40288b:	0f 95 c0             	setne  %al
  40288e:	83 f0 01             	xor    $0x1,%eax
  402891:	84 c0                	test   %al,%al
  402893:	75 36                	jne    4028cb <_D3std8typeinfo8ti_Along11TypeInfo_Al7getHashMFPvZm+0x89>
	{
	    hash *= 9;
  402895:	48 8b 55 e8          	mov    -0x18(%rbp),%rdx
  402899:	48 89 d0             	mov    %rdx,%rax
  40289c:	48 c1 e0 03          	shl    $0x3,%rax
  4028a0:	48 01 d0             	add    %rdx,%rax
  4028a3:	48 89 45 e8          	mov    %rax,-0x18(%rbp)
	    hash += *cast(uint *)str + *(cast(uint *)str + 1);
  4028a7:	48 8b 45 f0          	mov    -0x10(%rbp),%rax
  4028ab:	8b 10                	mov    (%rax),%edx
  4028ad:	48 8b 45 f0          	mov    -0x10(%rbp),%rax
  4028b1:	48 83 c0 04          	add    $0x4,%rax
  4028b5:	8b 00                	mov    (%rax),%eax
  4028b7:	8d 04 02             	lea    (%rdx,%rax,1),%eax
  4028ba:	89 c0                	mov    %eax,%eax
  4028bc:	48 01 45 e8          	add    %rax,-0x18(%rbp)
	    str++;
  4028c0:	48 83 45 f0 08       	addq   $0x8,-0x10(%rbp)
	    len--;
  4028c5:	48 ff 4d f8          	decq   -0x8(%rbp)
  4028c9:	eb bb                	jmp    402886 <_D3std8typeinfo8ti_Along11TypeInfo_Al7getHashMFPvZm+0x44>
	}

	return hash;
  4028cb:	48 8b 45 e8          	mov    -0x18(%rbp),%rax
    }
  4028cf:	c9                   	leaveq 
  4028d0:	c3                   	retq   

00000000004028d1 <_D3std8typeinfo8ti_Along11TypeInfo_Al6equalsMFPvPvZi>:

    int equals(void *p1, void *p2)
  4028d1:	55                   	push   %rbp
  4028d2:	48 89 e5             	mov    %rsp,%rbp
  4028d5:	48 83 ec 40          	sub    $0x40,%rsp
  4028d9:	48 89 7d d8          	mov    %rdi,-0x28(%rbp)
  4028dd:	48 89 75 d0          	mov    %rsi,-0x30(%rbp)
  4028e1:	48 89 55 c8          	mov    %rdx,-0x38(%rbp)
  4028e5:	48 8b 7d d8          	mov    -0x28(%rbp),%rdi
  4028e9:	e8 ce 65 00 00       	callq  408ebc <_D9invariant12_d_invariantFC6ObjectZv>
    {
	long[] s1 = *cast(long[]*)p1;
  4028ee:	48 8b 55 d0          	mov    -0x30(%rbp),%rdx
  4028f2:	48 8b 02             	mov    (%rdx),%rax
  4028f5:	48 89 45 e0          	mov    %rax,-0x20(%rbp)
  4028f9:	48 8b 42 08          	mov    0x8(%rdx),%rax
  4028fd:	48 89 45 e8          	mov    %rax,-0x18(%rbp)
	long[] s2 = *cast(long[]*)p2;
  402901:	48 8b 55 c8          	mov    -0x38(%rbp),%rdx
  402905:	48 8b 02             	mov    (%rdx),%rax
  402908:	48 89 45 f0          	mov    %rax,-0x10(%rbp)
  40290c:	48 8b 42 08          	mov    0x8(%rdx),%rax
  402910:	48 89 45 f8          	mov    %rax,-0x8(%rbp)

	return s1.length == s2.length &&
  402914:	48 8b 55 e0          	mov    -0x20(%rbp),%rdx
  402918:	48 8b 45 f0          	mov    -0x10(%rbp),%rax
  40291c:	48 39 c2             	cmp    %rax,%rdx
  40291f:	75 2a                	jne    40294b <_D3std8typeinfo8ti_Along11TypeInfo_Al6equalsMFPvPvZi+0x7a>
  402921:	48 8b 45 e0          	mov    -0x20(%rbp),%rax
  402925:	48 8d 14 c5 00 00 00 	lea    0x0(,%rax,8),%rdx
  40292c:	00 
  40292d:	48 8b 45 f8          	mov    -0x8(%rbp),%rax
  402931:	48 89 c6             	mov    %rax,%rsi
  402934:	48 8b 45 e8          	mov    -0x18(%rbp),%rax
  402938:	48 89 c7             	mov    %rax,%rdi
  40293b:	e8 b4 aa 00 00       	callq  40d3f4 <_D6kernel4core6system6memcmpFPvPvmZl>
  402940:	48 85 c0             	test   %rax,%rax
  402943:	75 06                	jne    40294b <_D3std8typeinfo8ti_Along11TypeInfo_Al6equalsMFPvPvZi+0x7a>
  402945:	c6 45 c7 01          	movb   $0x1,-0x39(%rbp)
  402949:	eb 04                	jmp    40294f <_D3std8typeinfo8ti_Along11TypeInfo_Al6equalsMFPvPvZi+0x7e>
  40294b:	c6 45 c7 00          	movb   $0x0,-0x39(%rbp)
  40294f:	0f b6 45 c7          	movzbl -0x39(%rbp),%eax
	       memcmp(cast(ubyte*)s1.ptr, cast(ubyte*)s2.ptr, s1.length * long.sizeof) == 0;
    }
  402953:	c9                   	leaveq 
  402954:	c3                   	retq   

0000000000402955 <_D3std8typeinfo8ti_Along11TypeInfo_Al7compareMFPvPvZi>:

    int compare(void *p1, void *p2)
  402955:	55                   	push   %rbp
  402956:	48 89 e5             	mov    %rsp,%rbp
  402959:	48 81 ec e0 00 00 00 	sub    $0xe0,%rsp
  402960:	48 89 7d 88          	mov    %rdi,-0x78(%rbp)
  402964:	48 89 75 80          	mov    %rsi,-0x80(%rbp)
  402968:	48 89 95 78 ff ff ff 	mov    %rdx,-0x88(%rbp)
  40296f:	48 8b 7d 88          	mov    -0x78(%rbp),%rdi
  402973:	e8 44 65 00 00       	callq  408ebc <_D9invariant12_d_invariantFC6ObjectZv>
    {
	long[] s1 = *cast(long[]*)p1;
  402978:	48 8b 55 80          	mov    -0x80(%rbp),%rdx
  40297c:	48 8b 02             	mov    (%rdx),%rax
  40297f:	48 89 45 90          	mov    %rax,-0x70(%rbp)
  402983:	48 8b 42 08          	mov    0x8(%rdx),%rax
  402987:	48 89 45 98          	mov    %rax,-0x68(%rbp)
	long[] s2 = *cast(long[]*)p2;
  40298b:	48 8b 95 78 ff ff ff 	mov    -0x88(%rbp),%rdx
  402992:	48 8b 02             	mov    (%rdx),%rax
  402995:	48 89 45 a0          	mov    %rax,-0x60(%rbp)
  402999:	48 8b 42 08          	mov    0x8(%rdx),%rax
  40299d:	48 89 45 a8          	mov    %rax,-0x58(%rbp)
	size_t len = s1.length;
  4029a1:	48 8b 45 90          	mov    -0x70(%rbp),%rax
  4029a5:	48 89 45 f0          	mov    %rax,-0x10(%rbp)

	if (s2.length < len)
  4029a9:	48 8b 45 a0          	mov    -0x60(%rbp),%rax
  4029ad:	48 3b 45 f0          	cmp    -0x10(%rbp),%rax
  4029b1:	73 08                	jae    4029bb <_D3std8typeinfo8ti_Along11TypeInfo_Al7compareMFPvPvZi+0x66>
	    len = s2.length;
  4029b3:	48 8b 45 a0          	mov    -0x60(%rbp),%rax
  4029b7:	48 89 45 f0          	mov    %rax,-0x10(%rbp)
	for (size_t u = 0; u < len; u++)
  4029bb:	48 c7 45 f8 00 00 00 	movq   $0x0,-0x8(%rbp)
  4029c2:	00 
  4029c3:	48 8b 45 f8          	mov    -0x8(%rbp),%rax
  4029c7:	48 3b 45 f0          	cmp    -0x10(%rbp),%rax
  4029cb:	0f 92 c0             	setb   %al
  4029ce:	83 f0 01             	xor    $0x1,%eax
  4029d1:	84 c0                	test   %al,%al
  4029d3:	0f 85 a8 01 00 00    	jne    402b81 <_D3std8typeinfo8ti_Along11TypeInfo_Al7compareMFPvPvZi+0x22c>
	{
	    if (s1[u] < s2[u])
  4029d9:	48 8b 45 98          	mov    -0x68(%rbp),%rax
  4029dd:	48 89 85 20 ff ff ff 	mov    %rax,-0xe0(%rbp)
  4029e4:	48 8b 45 90          	mov    -0x70(%rbp),%rax
  4029e8:	48 39 45 f8          	cmp    %rax,-0x8(%rbp)
  4029ec:	73 0d                	jae    4029fb <_D3std8typeinfo8ti_Along11TypeInfo_Al7compareMFPvPvZi+0xa6>
  4029ee:	48 8b 45 f8          	mov    -0x8(%rbp),%rax
  4029f2:	48 89 85 28 ff ff ff 	mov    %rax,-0xd8(%rbp)
  4029f9:	eb 22                	jmp    402a1d <_D3std8typeinfo8ti_Along11TypeInfo_Al7compareMFPvPvZi+0xc8>
  4029fb:	48 c7 45 b0 17 00 00 	movq   $0x17,-0x50(%rbp)
  402a02:	00 
  402a03:	48 c7 45 b8 a7 fb 40 	movq   $0x40fba7,-0x48(%rbp)
  402a0a:	00 
  402a0b:	48 8b 7d b0          	mov    -0x50(%rbp),%rdi
  402a0f:	48 8b 75 b8          	mov    -0x48(%rbp),%rsi
  402a13:	ba 30 00 00 00       	mov    $0x30,%edx
  402a18:	e8 68 7f 00 00       	callq  40a985 <_d_array_bounds>
  402a1d:	48 8b 85 28 ff ff ff 	mov    -0xd8(%rbp),%rax
  402a24:	48 c1 e0 03          	shl    $0x3,%rax
  402a28:	48 03 85 20 ff ff ff 	add    -0xe0(%rbp),%rax
  402a2f:	48 8b 00             	mov    (%rax),%rax
  402a32:	48 89 85 30 ff ff ff 	mov    %rax,-0xd0(%rbp)
  402a39:	48 8b 45 a8          	mov    -0x58(%rbp),%rax
  402a3d:	48 89 85 38 ff ff ff 	mov    %rax,-0xc8(%rbp)
  402a44:	48 8b 45 a0          	mov    -0x60(%rbp),%rax
  402a48:	48 39 45 f8          	cmp    %rax,-0x8(%rbp)
  402a4c:	73 0d                	jae    402a5b <_D3std8typeinfo8ti_Along11TypeInfo_Al7compareMFPvPvZi+0x106>
  402a4e:	48 8b 45 f8          	mov    -0x8(%rbp),%rax
  402a52:	48 89 85 40 ff ff ff 	mov    %rax,-0xc0(%rbp)
  402a59:	eb 22                	jmp    402a7d <_D3std8typeinfo8ti_Along11TypeInfo_Al7compareMFPvPvZi+0x128>
  402a5b:	48 c7 45 c0 17 00 00 	movq   $0x17,-0x40(%rbp)
  402a62:	00 
  402a63:	48 c7 45 c8 a7 fb 40 	movq   $0x40fba7,-0x38(%rbp)
  402a6a:	00 
  402a6b:	48 8b 7d c0          	mov    -0x40(%rbp),%rdi
  402a6f:	48 8b 75 c8          	mov    -0x38(%rbp),%rsi
  402a73:	ba 30 00 00 00       	mov    $0x30,%edx
  402a78:	e8 08 7f 00 00       	callq  40a985 <_d_array_bounds>
  402a7d:	48 8b 85 40 ff ff ff 	mov    -0xc0(%rbp),%rax
  402a84:	48 c1 e0 03          	shl    $0x3,%rax
  402a88:	48 03 85 38 ff ff ff 	add    -0xc8(%rbp),%rax
  402a8f:	48 8b 00             	mov    (%rax),%rax
  402a92:	48 39 85 30 ff ff ff 	cmp    %rax,-0xd0(%rbp)
  402a99:	7d 0f                	jge    402aaa <_D3std8typeinfo8ti_Along11TypeInfo_Al7compareMFPvPvZi+0x155>
		return -1;
  402a9b:	c7 85 4c ff ff ff ff 	movl   $0xffffffff,-0xb4(%rbp)
  402aa2:	ff ff ff 
  402aa5:	e9 13 01 00 00       	jmpq   402bbd <_D3std8typeinfo8ti_Along11TypeInfo_Al7compareMFPvPvZi+0x268>
	    else if (s1[u] > s2[u])
  402aaa:	48 8b 45 98          	mov    -0x68(%rbp),%rax
  402aae:	48 89 85 50 ff ff ff 	mov    %rax,-0xb0(%rbp)
  402ab5:	48 8b 45 90          	mov    -0x70(%rbp),%rax
  402ab9:	48 39 45 f8          	cmp    %rax,-0x8(%rbp)
  402abd:	73 0d                	jae    402acc <_D3std8typeinfo8ti_Along11TypeInfo_Al7compareMFPvPvZi+0x177>
  402abf:	48 8b 45 f8          	mov    -0x8(%rbp),%rax
  402ac3:	48 89 85 58 ff ff ff 	mov    %rax,-0xa8(%rbp)
  402aca:	eb 22                	jmp    402aee <_D3std8typeinfo8ti_Along11TypeInfo_Al7compareMFPvPvZi+0x199>
  402acc:	48 c7 45 d0 17 00 00 	movq   $0x17,-0x30(%rbp)
  402ad3:	00 
  402ad4:	48 c7 45 d8 a7 fb 40 	movq   $0x40fba7,-0x28(%rbp)
  402adb:	00 
  402adc:	48 8b 7d d0          	mov    -0x30(%rbp),%rdi
  402ae0:	48 8b 75 d8          	mov    -0x28(%rbp),%rsi
  402ae4:	ba 32 00 00 00       	mov    $0x32,%edx
  402ae9:	e8 97 7e 00 00       	callq  40a985 <_d_array_bounds>
  402aee:	48 8b 85 58 ff ff ff 	mov    -0xa8(%rbp),%rax
  402af5:	48 c1 e0 03          	shl    $0x3,%rax
  402af9:	48 03 85 50 ff ff ff 	add    -0xb0(%rbp),%rax
  402b00:	48 8b 00             	mov    (%rax),%rax
  402b03:	48 89 85 60 ff ff ff 	mov    %rax,-0xa0(%rbp)
  402b0a:	48 8b 45 a8          	mov    -0x58(%rbp),%rax
  402b0e:	48 89 85 68 ff ff ff 	mov    %rax,-0x98(%rbp)
  402b15:	48 8b 45 a0          	mov    -0x60(%rbp),%rax
  402b19:	48 39 45 f8          	cmp    %rax,-0x8(%rbp)
  402b1d:	73 0d                	jae    402b2c <_D3std8typeinfo8ti_Along11TypeInfo_Al7compareMFPvPvZi+0x1d7>
  402b1f:	48 8b 45 f8          	mov    -0x8(%rbp),%rax
  402b23:	48 89 85 70 ff ff ff 	mov    %rax,-0x90(%rbp)
  402b2a:	eb 22                	jmp    402b4e <_D3std8typeinfo8ti_Along11TypeInfo_Al7compareMFPvPvZi+0x1f9>
  402b2c:	48 c7 45 e0 17 00 00 	movq   $0x17,-0x20(%rbp)
  402b33:	00 
  402b34:	48 c7 45 e8 a7 fb 40 	movq   $0x40fba7,-0x18(%rbp)
  402b3b:	00 
  402b3c:	48 8b 7d e0          	mov    -0x20(%rbp),%rdi
  402b40:	48 8b 75 e8          	mov    -0x18(%rbp),%rsi
  402b44:	ba 32 00 00 00       	mov    $0x32,%edx
  402b49:	e8 37 7e 00 00       	callq  40a985 <_d_array_bounds>
  402b4e:	48 8b 85 70 ff ff ff 	mov    -0x90(%rbp),%rax
  402b55:	48 c1 e0 03          	shl    $0x3,%rax
  402b59:	48 03 85 68 ff ff ff 	add    -0x98(%rbp),%rax
  402b60:	48 8b 00             	mov    (%rax),%rax
  402b63:	48 39 85 60 ff ff ff 	cmp    %rax,-0xa0(%rbp)
  402b6a:	7e 0c                	jle    402b78 <_D3std8typeinfo8ti_Along11TypeInfo_Al7compareMFPvPvZi+0x223>
		return 1;
  402b6c:	c7 85 4c ff ff ff 01 	movl   $0x1,-0xb4(%rbp)
  402b73:	00 00 00 
  402b76:	eb 45                	jmp    402bbd <_D3std8typeinfo8ti_Along11TypeInfo_Al7compareMFPvPvZi+0x268>

	if (s2.length < len)
	    len = s2.length;
	for (size_t u = 0; u < len; u++)
	{
	    if (s1[u] < s2[u])
  402b78:	48 ff 45 f8          	incq   -0x8(%rbp)
  402b7c:	e9 42 fe ff ff       	jmpq   4029c3 <_D3std8typeinfo8ti_Along11TypeInfo_Al7compareMFPvPvZi+0x6e>
		return -1;
	    else if (s1[u] > s2[u])
		return 1;
	}
	if (s1.length < s2.length)
  402b81:	48 8b 55 90          	mov    -0x70(%rbp),%rdx
  402b85:	48 8b 45 a0          	mov    -0x60(%rbp),%rax
  402b89:	48 39 c2             	cmp    %rax,%rdx
  402b8c:	73 0c                	jae    402b9a <_D3std8typeinfo8ti_Along11TypeInfo_Al7compareMFPvPvZi+0x245>
	    return -1;
  402b8e:	c7 85 4c ff ff ff ff 	movl   $0xffffffff,-0xb4(%rbp)
  402b95:	ff ff ff 
  402b98:	eb 23                	jmp    402bbd <_D3std8typeinfo8ti_Along11TypeInfo_Al7compareMFPvPvZi+0x268>
	else if (s1.length > s2.length)
  402b9a:	48 8b 55 90          	mov    -0x70(%rbp),%rdx
  402b9e:	48 8b 45 a0          	mov    -0x60(%rbp),%rax
  402ba2:	48 39 c2             	cmp    %rax,%rdx
  402ba5:	76 0c                	jbe    402bb3 <_D3std8typeinfo8ti_Along11TypeInfo_Al7compareMFPvPvZi+0x25e>
	    return 1;
  402ba7:	c7 85 4c ff ff ff 01 	movl   $0x1,-0xb4(%rbp)
  402bae:	00 00 00 
  402bb1:	eb 0a                	jmp    402bbd <_D3std8typeinfo8ti_Along11TypeInfo_Al7compareMFPvPvZi+0x268>
	return 0;
  402bb3:	c7 85 4c ff ff ff 00 	movl   $0x0,-0xb4(%rbp)
  402bba:	00 00 00 
  402bbd:	8b 85 4c ff ff ff    	mov    -0xb4(%rbp),%eax
    }
  402bc3:	c9                   	leaveq 
  402bc4:	c3                   	retq   

0000000000402bc5 <_D3std8typeinfo8ti_Along11TypeInfo_Al5tsizeMFZm>:

    size_t tsize()
  402bc5:	55                   	push   %rbp
  402bc6:	48 89 e5             	mov    %rsp,%rbp
  402bc9:	48 83 ec 10          	sub    $0x10,%rsp
  402bcd:	48 89 7d f8          	mov    %rdi,-0x8(%rbp)
  402bd1:	48 8b 7d f8          	mov    -0x8(%rbp),%rdi
  402bd5:	e8 e2 62 00 00       	callq  408ebc <_D9invariant12_d_invariantFC6ObjectZv>
    {
	return (long[]).sizeof;
  402bda:	b8 10 00 00 00       	mov    $0x10,%eax
    }
  402bdf:	c9                   	leaveq 
  402be0:	c3                   	retq   

0000000000402be1 <_D3std8typeinfo8ti_Along11TypeInfo_Al5flagsMFZk>:

    uint flags()
  402be1:	55                   	push   %rbp
  402be2:	48 89 e5             	mov    %rsp,%rbp
  402be5:	48 83 ec 10          	sub    $0x10,%rsp
  402be9:	48 89 7d f8          	mov    %rdi,-0x8(%rbp)
  402bed:	48 8b 7d f8          	mov    -0x8(%rbp),%rdi
  402bf1:	e8 c6 62 00 00       	callq  408ebc <_D9invariant12_d_invariantFC6ObjectZv>
    {
	return 1;
  402bf6:	b8 01 00 00 00       	mov    $0x1,%eax
    }
  402bfb:	c9                   	leaveq 
  402bfc:	c3                   	retq   

0000000000402bfd <_D3std8typeinfo8ti_Along11TypeInfo_Al4nextMFZC8TypeInfo>:

    TypeInfo next()
  402bfd:	55                   	push   %rbp
  402bfe:	48 89 e5             	mov    %rsp,%rbp
  402c01:	48 83 ec 10          	sub    $0x10,%rsp
  402c05:	48 89 7d f8          	mov    %rdi,-0x8(%rbp)
  402c09:	48 8b 7d f8          	mov    -0x8(%rbp),%rdi
  402c0d:	e8 aa 62 00 00       	callq  408ebc <_D9invariant12_d_invariantFC6ObjectZv>
    {
	return typeid(long);
  402c12:	48 c7 c0 d0 0a 41 00 	mov    $0x410ad0,%rax
    }
  402c19:	c9                   	leaveq 
  402c1a:	c3                   	retq   

0000000000402c1b <_D3std8typeinfo8ti_Along11TypeInfo_Am8toStringMFZAa>:

// ulong[]

class TypeInfo_Am : TypeInfo_Al
{
    char[] toString() { return "ulong[]"; }
  402c1b:	55                   	push   %rbp
  402c1c:	48 89 e5             	mov    %rsp,%rbp
  402c1f:	53                   	push   %rbx
  402c20:	48 83 ec 08          	sub    $0x8,%rsp
  402c24:	48 89 fb             	mov    %rdi,%rbx
  402c27:	48 89 75 f0          	mov    %rsi,-0x10(%rbp)
  402c2b:	48 8b 7d f0          	mov    -0x10(%rbp),%rdi
  402c2f:	e8 88 62 00 00       	callq  408ebc <_D9invariant12_d_invariantFC6ObjectZv>
  402c34:	48 c7 03 07 00 00 00 	movq   $0x7,(%rbx)
  402c3b:	48 c7 43 08 50 fc 40 	movq   $0x40fc50,0x8(%rbx)
  402c42:	00 
  402c43:	48 89 d8             	mov    %rbx,%rax
  402c46:	48 83 c4 08          	add    $0x8,%rsp
  402c4a:	5b                   	pop    %rbx
  402c4b:	c9                   	leaveq 
  402c4c:	c3                   	retq   

0000000000402c4d <_D3std8typeinfo8ti_Along11TypeInfo_Am7compareMFPvPvZi>:

    int compare(void *p1, void *p2)
  402c4d:	55                   	push   %rbp
  402c4e:	48 89 e5             	mov    %rsp,%rbp
  402c51:	48 81 ec e0 00 00 00 	sub    $0xe0,%rsp
  402c58:	48 89 7d 88          	mov    %rdi,-0x78(%rbp)
  402c5c:	48 89 75 80          	mov    %rsi,-0x80(%rbp)
  402c60:	48 89 95 78 ff ff ff 	mov    %rdx,-0x88(%rbp)
  402c67:	48 8b 7d 88          	mov    -0x78(%rbp),%rdi
  402c6b:	e8 4c 62 00 00       	callq  408ebc <_D9invariant12_d_invariantFC6ObjectZv>
    {
	ulong[] s1 = *cast(ulong[]*)p1;
  402c70:	48 8b 55 80          	mov    -0x80(%rbp),%rdx
  402c74:	48 8b 02             	mov    (%rdx),%rax
  402c77:	48 89 45 90          	mov    %rax,-0x70(%rbp)
  402c7b:	48 8b 42 08          	mov    0x8(%rdx),%rax
  402c7f:	48 89 45 98          	mov    %rax,-0x68(%rbp)
	ulong[] s2 = *cast(ulong[]*)p2;
  402c83:	48 8b 95 78 ff ff ff 	mov    -0x88(%rbp),%rdx
  402c8a:	48 8b 02             	mov    (%rdx),%rax
  402c8d:	48 89 45 a0          	mov    %rax,-0x60(%rbp)
  402c91:	48 8b 42 08          	mov    0x8(%rdx),%rax
  402c95:	48 89 45 a8          	mov    %rax,-0x58(%rbp)
	size_t len = s1.length;
  402c99:	48 8b 45 90          	mov    -0x70(%rbp),%rax
  402c9d:	48 89 45 f0          	mov    %rax,-0x10(%rbp)

	if (s2.length < len)
  402ca1:	48 8b 45 a0          	mov    -0x60(%rbp),%rax
  402ca5:	48 3b 45 f0          	cmp    -0x10(%rbp),%rax
  402ca9:	73 08                	jae    402cb3 <_D3std8typeinfo8ti_Along11TypeInfo_Am7compareMFPvPvZi+0x66>
	    len = s2.length;
  402cab:	48 8b 45 a0          	mov    -0x60(%rbp),%rax
  402caf:	48 89 45 f0          	mov    %rax,-0x10(%rbp)
	for (size_t u = 0; u < len; u++)
  402cb3:	48 c7 45 f8 00 00 00 	movq   $0x0,-0x8(%rbp)
  402cba:	00 
  402cbb:	48 8b 45 f8          	mov    -0x8(%rbp),%rax
  402cbf:	48 3b 45 f0          	cmp    -0x10(%rbp),%rax
  402cc3:	0f 92 c0             	setb   %al
  402cc6:	83 f0 01             	xor    $0x1,%eax
  402cc9:	84 c0                	test   %al,%al
  402ccb:	0f 85 a8 01 00 00    	jne    402e79 <_D3std8typeinfo8ti_Along11TypeInfo_Am7compareMFPvPvZi+0x22c>
	{
	    if (s1[u] < s2[u])
  402cd1:	48 8b 45 98          	mov    -0x68(%rbp),%rax
  402cd5:	48 89 85 20 ff ff ff 	mov    %rax,-0xe0(%rbp)
  402cdc:	48 8b 45 90          	mov    -0x70(%rbp),%rax
  402ce0:	48 39 45 f8          	cmp    %rax,-0x8(%rbp)
  402ce4:	73 0d                	jae    402cf3 <_D3std8typeinfo8ti_Along11TypeInfo_Am7compareMFPvPvZi+0xa6>
  402ce6:	48 8b 45 f8          	mov    -0x8(%rbp),%rax
  402cea:	48 89 85 28 ff ff ff 	mov    %rax,-0xd8(%rbp)
  402cf1:	eb 22                	jmp    402d15 <_D3std8typeinfo8ti_Along11TypeInfo_Am7compareMFPvPvZi+0xc8>
  402cf3:	48 c7 45 b0 17 00 00 	movq   $0x17,-0x50(%rbp)
  402cfa:	00 
  402cfb:	48 c7 45 b8 a7 fb 40 	movq   $0x40fba7,-0x48(%rbp)
  402d02:	00 
  402d03:	48 8b 7d b0          	mov    -0x50(%rbp),%rdi
  402d07:	48 8b 75 b8          	mov    -0x48(%rbp),%rsi
  402d0b:	ba 5d 00 00 00       	mov    $0x5d,%edx
  402d10:	e8 70 7c 00 00       	callq  40a985 <_d_array_bounds>
  402d15:	48 8b 85 28 ff ff ff 	mov    -0xd8(%rbp),%rax
  402d1c:	48 c1 e0 03          	shl    $0x3,%rax
  402d20:	48 03 85 20 ff ff ff 	add    -0xe0(%rbp),%rax
  402d27:	48 8b 00             	mov    (%rax),%rax
  402d2a:	48 89 85 30 ff ff ff 	mov    %rax,-0xd0(%rbp)
  402d31:	48 8b 45 a8          	mov    -0x58(%rbp),%rax
  402d35:	48 89 85 38 ff ff ff 	mov    %rax,-0xc8(%rbp)
  402d3c:	48 8b 45 a0          	mov    -0x60(%rbp),%rax
  402d40:	48 39 45 f8          	cmp    %rax,-0x8(%rbp)
  402d44:	73 0d                	jae    402d53 <_D3std8typeinfo8ti_Along11TypeInfo_Am7compareMFPvPvZi+0x106>
  402d46:	48 8b 45 f8          	mov    -0x8(%rbp),%rax
  402d4a:	48 89 85 40 ff ff ff 	mov    %rax,-0xc0(%rbp)
  402d51:	eb 22                	jmp    402d75 <_D3std8typeinfo8ti_Along11TypeInfo_Am7compareMFPvPvZi+0x128>
  402d53:	48 c7 45 c0 17 00 00 	movq   $0x17,-0x40(%rbp)
  402d5a:	00 
  402d5b:	48 c7 45 c8 a7 fb 40 	movq   $0x40fba7,-0x38(%rbp)
  402d62:	00 
  402d63:	48 8b 7d c0          	mov    -0x40(%rbp),%rdi
  402d67:	48 8b 75 c8          	mov    -0x38(%rbp),%rsi
  402d6b:	ba 5d 00 00 00       	mov    $0x5d,%edx
  402d70:	e8 10 7c 00 00       	callq  40a985 <_d_array_bounds>
  402d75:	48 8b 85 40 ff ff ff 	mov    -0xc0(%rbp),%rax
  402d7c:	48 c1 e0 03          	shl    $0x3,%rax
  402d80:	48 03 85 38 ff ff ff 	add    -0xc8(%rbp),%rax
  402d87:	48 8b 00             	mov    (%rax),%rax
  402d8a:	48 39 85 30 ff ff ff 	cmp    %rax,-0xd0(%rbp)
  402d91:	73 0f                	jae    402da2 <_D3std8typeinfo8ti_Along11TypeInfo_Am7compareMFPvPvZi+0x155>
		return -1;
  402d93:	c7 85 4c ff ff ff ff 	movl   $0xffffffff,-0xb4(%rbp)
  402d9a:	ff ff ff 
  402d9d:	e9 13 01 00 00       	jmpq   402eb5 <_D3std8typeinfo8ti_Along11TypeInfo_Am7compareMFPvPvZi+0x268>
	    else if (s1[u] > s2[u])
  402da2:	48 8b 45 98          	mov    -0x68(%rbp),%rax
  402da6:	48 89 85 50 ff ff ff 	mov    %rax,-0xb0(%rbp)
  402dad:	48 8b 45 90          	mov    -0x70(%rbp),%rax
  402db1:	48 39 45 f8          	cmp    %rax,-0x8(%rbp)
  402db5:	73 0d                	jae    402dc4 <_D3std8typeinfo8ti_Along11TypeInfo_Am7compareMFPvPvZi+0x177>
  402db7:	48 8b 45 f8          	mov    -0x8(%rbp),%rax
  402dbb:	48 89 85 58 ff ff ff 	mov    %rax,-0xa8(%rbp)
  402dc2:	eb 22                	jmp    402de6 <_D3std8typeinfo8ti_Along11TypeInfo_Am7compareMFPvPvZi+0x199>
  402dc4:	48 c7 45 d0 17 00 00 	movq   $0x17,-0x30(%rbp)
  402dcb:	00 
  402dcc:	48 c7 45 d8 a7 fb 40 	movq   $0x40fba7,-0x28(%rbp)
  402dd3:	00 
  402dd4:	48 8b 7d d0          	mov    -0x30(%rbp),%rdi
  402dd8:	48 8b 75 d8          	mov    -0x28(%rbp),%rsi
  402ddc:	ba 5f 00 00 00       	mov    $0x5f,%edx
  402de1:	e8 9f 7b 00 00       	callq  40a985 <_d_array_bounds>
  402de6:	48 8b 85 58 ff ff ff 	mov    -0xa8(%rbp),%rax
  402ded:	48 c1 e0 03          	shl    $0x3,%rax
  402df1:	48 03 85 50 ff ff ff 	add    -0xb0(%rbp),%rax
  402df8:	48 8b 00             	mov    (%rax),%rax
  402dfb:	48 89 85 60 ff ff ff 	mov    %rax,-0xa0(%rbp)
  402e02:	48 8b 45 a8          	mov    -0x58(%rbp),%rax
  402e06:	48 89 85 68 ff ff ff 	mov    %rax,-0x98(%rbp)
  402e0d:	48 8b 45 a0          	mov    -0x60(%rbp),%rax
  402e11:	48 39 45 f8          	cmp    %rax,-0x8(%rbp)
  402e15:	73 0d                	jae    402e24 <_D3std8typeinfo8ti_Along11TypeInfo_Am7compareMFPvPvZi+0x1d7>
  402e17:	48 8b 45 f8          	mov    -0x8(%rbp),%rax
  402e1b:	48 89 85 70 ff ff ff 	mov    %rax,-0x90(%rbp)
  402e22:	eb 22                	jmp    402e46 <_D3std8typeinfo8ti_Along11TypeInfo_Am7compareMFPvPvZi+0x1f9>
  402e24:	48 c7 45 e0 17 00 00 	movq   $0x17,-0x20(%rbp)
  402e2b:	00 
  402e2c:	48 c7 45 e8 a7 fb 40 	movq   $0x40fba7,-0x18(%rbp)
  402e33:	00 
  402e34:	48 8b 7d e0          	mov    -0x20(%rbp),%rdi
  402e38:	48 8b 75 e8          	mov    -0x18(%rbp),%rsi
  402e3c:	ba 5f 00 00 00       	mov    $0x5f,%edx
  402e41:	e8 3f 7b 00 00       	callq  40a985 <_d_array_bounds>
  402e46:	48 8b 85 70 ff ff ff 	mov    -0x90(%rbp),%rax
  402e4d:	48 c1 e0 03          	shl    $0x3,%rax
  402e51:	48 03 85 68 ff ff ff 	add    -0x98(%rbp),%rax
  402e58:	48 8b 00             	mov    (%rax),%rax
  402e5b:	48 39 85 60 ff ff ff 	cmp    %rax,-0xa0(%rbp)
  402e62:	76 0c                	jbe    402e70 <_D3std8typeinfo8ti_Along11TypeInfo_Am7compareMFPvPvZi+0x223>
		return 1;
  402e64:	c7 85 4c ff ff ff 01 	movl   $0x1,-0xb4(%rbp)
  402e6b:	00 00 00 
  402e6e:	eb 45                	jmp    402eb5 <_D3std8typeinfo8ti_Along11TypeInfo_Am7compareMFPvPvZi+0x268>

	if (s2.length < len)
	    len = s2.length;
	for (size_t u = 0; u < len; u++)
	{
	    if (s1[u] < s2[u])
  402e70:	48 ff 45 f8          	incq   -0x8(%rbp)
  402e74:	e9 42 fe ff ff       	jmpq   402cbb <_D3std8typeinfo8ti_Along11TypeInfo_Am7compareMFPvPvZi+0x6e>
		return -1;
	    else if (s1[u] > s2[u])
		return 1;
	}
	if (s1.length < s2.length)
  402e79:	48 8b 55 90          	mov    -0x70(%rbp),%rdx
  402e7d:	48 8b 45 a0          	mov    -0x60(%rbp),%rax
  402e81:	48 39 c2             	cmp    %rax,%rdx
  402e84:	73 0c                	jae    402e92 <_D3std8typeinfo8ti_Along11TypeInfo_Am7compareMFPvPvZi+0x245>
	    return -1;
  402e86:	c7 85 4c ff ff ff ff 	movl   $0xffffffff,-0xb4(%rbp)
  402e8d:	ff ff ff 
  402e90:	eb 23                	jmp    402eb5 <_D3std8typeinfo8ti_Along11TypeInfo_Am7compareMFPvPvZi+0x268>
	else if (s1.length > s2.length)
  402e92:	48 8b 55 90          	mov    -0x70(%rbp),%rdx
  402e96:	48 8b 45 a0          	mov    -0x60(%rbp),%rax
  402e9a:	48 39 c2             	cmp    %rax,%rdx
  402e9d:	76 0c                	jbe    402eab <_D3std8typeinfo8ti_Along11TypeInfo_Am7compareMFPvPvZi+0x25e>
	    return 1;
  402e9f:	c7 85 4c ff ff ff 01 	movl   $0x1,-0xb4(%rbp)
  402ea6:	00 00 00 
  402ea9:	eb 0a                	jmp    402eb5 <_D3std8typeinfo8ti_Along11TypeInfo_Am7compareMFPvPvZi+0x268>
	return 0;
  402eab:	c7 85 4c ff ff ff 00 	movl   $0x0,-0xb4(%rbp)
  402eb2:	00 00 00 
  402eb5:	8b 85 4c ff ff ff    	mov    -0xb4(%rbp),%eax
    }
  402ebb:	c9                   	leaveq 
  402ebc:	c3                   	retq   

0000000000402ebd <_D3std8typeinfo8ti_Along11TypeInfo_Am4nextMFZC8TypeInfo>:

    TypeInfo next()
  402ebd:	55                   	push   %rbp
  402ebe:	48 89 e5             	mov    %rsp,%rbp
  402ec1:	48 83 ec 10          	sub    $0x10,%rsp
  402ec5:	48 89 7d f8          	mov    %rdi,-0x8(%rbp)
  402ec9:	48 8b 7d f8          	mov    -0x8(%rbp),%rdi
  402ecd:	e8 ea 5f 00 00       	callq  408ebc <_D9invariant12_d_invariantFC6ObjectZv>
    {
	return typeid(ulong);
  402ed2:	48 c7 c0 d0 0f 41 00 	mov    $0x410fd0,%rax
    }
  402ed9:	c9                   	leaveq 
  402eda:	c3                   	retq   
  402edb:	90                   	nop    

0000000000402edc <_D3std8typeinfo8ti_Areal11TypeInfo_Ae8toStringMFZAa>:

// real[]

class TypeInfo_Ae : TypeInfo
{
    char[] toString() { return "real[]"; }
  402edc:	55                   	push   %rbp
  402edd:	48 89 e5             	mov    %rsp,%rbp
  402ee0:	53                   	push   %rbx
  402ee1:	48 83 ec 08          	sub    $0x8,%rsp
  402ee5:	48 89 fb             	mov    %rdi,%rbx
  402ee8:	48 89 75 f0          	mov    %rsi,-0x10(%rbp)
  402eec:	48 8b 7d f0          	mov    -0x10(%rbp),%rdi
  402ef0:	e8 c7 5f 00 00       	callq  408ebc <_D9invariant12_d_invariantFC6ObjectZv>
  402ef5:	48 c7 03 06 00 00 00 	movq   $0x6,(%rbx)
  402efc:	48 c7 43 08 00 fd 40 	movq   $0x40fd00,0x8(%rbx)
  402f03:	00 
  402f04:	48 89 d8             	mov    %rbx,%rax
  402f07:	48 83 c4 08          	add    $0x8,%rsp
  402f0b:	5b                   	pop    %rbx
  402f0c:	c9                   	leaveq 
  402f0d:	c3                   	retq   

0000000000402f0e <_D3std8typeinfo8ti_Areal11TypeInfo_Ae7getHashMFPvZm>:

    hash_t getHash(void *p)
  402f0e:	55                   	push   %rbp
  402f0f:	48 89 e5             	mov    %rsp,%rbp
  402f12:	48 83 ec 40          	sub    $0x40,%rsp
  402f16:	48 89 7d c8          	mov    %rdi,-0x38(%rbp)
  402f1a:	48 89 75 c0          	mov    %rsi,-0x40(%rbp)
  402f1e:	48 8b 7d c8          	mov    -0x38(%rbp),%rdi
  402f22:	e8 95 5f 00 00       	callq  408ebc <_D9invariant12_d_invariantFC6ObjectZv>
    {	real[] s = *cast(real[]*)p;
  402f27:	48 8b 55 c0          	mov    -0x40(%rbp),%rdx
  402f2b:	48 8b 02             	mov    (%rdx),%rax
  402f2e:	48 89 45 d0          	mov    %rax,-0x30(%rbp)
  402f32:	48 8b 42 08          	mov    0x8(%rdx),%rax
  402f36:	48 89 45 d8          	mov    %rax,-0x28(%rbp)
	size_t len = s.length;
  402f3a:	48 8b 45 d0          	mov    -0x30(%rbp),%rax
  402f3e:	48 89 45 f8          	mov    %rax,-0x8(%rbp)
	auto str = s.ptr;
  402f42:	48 8b 45 d8          	mov    -0x28(%rbp),%rax
  402f46:	48 89 45 f0          	mov    %rax,-0x10(%rbp)
	hash_t hash = 0;
  402f4a:	48 c7 45 e8 00 00 00 	movq   $0x0,-0x18(%rbp)
  402f51:	00 

	while (len)
  402f52:	48 83 7d f8 00       	cmpq   $0x0,-0x8(%rbp)
  402f57:	0f 95 c0             	setne  %al
  402f5a:	83 f0 01             	xor    $0x1,%eax
  402f5d:	84 c0                	test   %al,%al
  402f5f:	75 5e                	jne    402fbf <_D3std8typeinfo8ti_Areal11TypeInfo_Ae7getHashMFPvZm+0xb1>
	{
	    hash *= 9;
  402f61:	48 8b 55 e8          	mov    -0x18(%rbp),%rdx
  402f65:	48 89 d0             	mov    %rdx,%rax
  402f68:	48 c1 e0 03          	shl    $0x3,%rax
  402f6c:	48 01 d0             	add    %rdx,%rax
  402f6f:	48 89 45 e8          	mov    %rax,-0x18(%rbp)
	    hash += (cast(uint *)str)[0];
  402f73:	48 8b 55 f0          	mov    -0x10(%rbp),%rdx
  402f77:	b8 00 00 00 00       	mov    $0x0,%eax
  402f7c:	48 8d 04 02          	lea    (%rdx,%rax,1),%rax
  402f80:	8b 00                	mov    (%rax),%eax
  402f82:	89 c0                	mov    %eax,%eax
  402f84:	48 01 45 e8          	add    %rax,-0x18(%rbp)
	    hash += (cast(uint *)str)[1];
  402f88:	48 8b 55 f0          	mov    -0x10(%rbp),%rdx
  402f8c:	b8 04 00 00 00       	mov    $0x4,%eax
  402f91:	48 8d 04 02          	lea    (%rdx,%rax,1),%rax
  402f95:	8b 00                	mov    (%rax),%eax
  402f97:	89 c0                	mov    %eax,%eax
  402f99:	48 01 45 e8          	add    %rax,-0x18(%rbp)
	    hash += (cast(ushort *)str)[4];
  402f9d:	48 8b 55 f0          	mov    -0x10(%rbp),%rdx
  402fa1:	b8 08 00 00 00       	mov    $0x8,%eax
  402fa6:	48 8d 04 02          	lea    (%rdx,%rax,1),%rax
  402faa:	0f b7 00             	movzwl (%rax),%eax
  402fad:	0f b7 c0             	movzwl %ax,%eax
  402fb0:	48 01 45 e8          	add    %rax,-0x18(%rbp)
	    str++;
  402fb4:	48 83 45 f0 10       	addq   $0x10,-0x10(%rbp)
	    len--;
  402fb9:	48 ff 4d f8          	decq   -0x8(%rbp)
  402fbd:	eb 93                	jmp    402f52 <_D3std8typeinfo8ti_Areal11TypeInfo_Ae7getHashMFPvZm+0x44>
	}

	return hash;
  402fbf:	48 8b 45 e8          	mov    -0x18(%rbp),%rax
    }
  402fc3:	c9                   	leaveq 
  402fc4:	c3                   	retq   

0000000000402fc5 <_D3std8typeinfo8ti_Areal11TypeInfo_Ae6equalsMFPvPvZi>:

    int equals(void *p1, void *p2)
  402fc5:	55                   	push   %rbp
  402fc6:	48 89 e5             	mov    %rsp,%rbp
  402fc9:	48 81 ec e0 00 00 00 	sub    $0xe0,%rsp
  402fd0:	48 89 7d 98          	mov    %rdi,-0x68(%rbp)
  402fd4:	48 89 75 90          	mov    %rsi,-0x70(%rbp)
  402fd8:	48 89 55 88          	mov    %rdx,-0x78(%rbp)
  402fdc:	48 8b 7d 98          	mov    -0x68(%rbp),%rdi
  402fe0:	e8 d7 5e 00 00       	callq  408ebc <_D9invariant12_d_invariantFC6ObjectZv>
    {
	real[] s1 = *cast(real[]*)p1;
  402fe5:	48 8b 55 90          	mov    -0x70(%rbp),%rdx
  402fe9:	48 8b 02             	mov    (%rdx),%rax
  402fec:	48 89 45 a0          	mov    %rax,-0x60(%rbp)
  402ff0:	48 8b 42 08          	mov    0x8(%rdx),%rax
  402ff4:	48 89 45 a8          	mov    %rax,-0x58(%rbp)
	real[] s2 = *cast(real[]*)p2;
  402ff8:	48 8b 55 88          	mov    -0x78(%rbp),%rdx
  402ffc:	48 8b 02             	mov    (%rdx),%rax
  402fff:	48 89 45 b0          	mov    %rax,-0x50(%rbp)
  403003:	48 8b 42 08          	mov    0x8(%rdx),%rax
  403007:	48 89 45 b8          	mov    %rax,-0x48(%rbp)
	size_t len = s1.length;
  40300b:	48 8b 45 a0          	mov    -0x60(%rbp),%rax
  40300f:	48 89 45 e8          	mov    %rax,-0x18(%rbp)

	if (len != s2.length)
  403013:	48 8b 45 b0          	mov    -0x50(%rbp),%rax
  403017:	48 39 45 e8          	cmp    %rax,-0x18(%rbp)
  40301b:	74 0f                	je     40302c <_D3std8typeinfo8ti_Areal11TypeInfo_Ae6equalsMFPvPvZi+0x67>
	    return 0;
  40301d:	c7 85 4c ff ff ff 00 	movl   $0x0,-0xb4(%rbp)
  403024:	00 00 00 
  403027:	e9 11 01 00 00       	jmpq   40313d <_D3std8typeinfo8ti_Areal11TypeInfo_Ae6equalsMFPvPvZi+0x178>
	for (size_t u = 0; u < len; u++)
  40302c:	48 c7 45 f0 00 00 00 	movq   $0x0,-0x10(%rbp)
  403033:	00 
  403034:	48 8b 45 f0          	mov    -0x10(%rbp),%rax
  403038:	48 3b 45 e8          	cmp    -0x18(%rbp),%rax
  40303c:	0f 92 c0             	setb   %al
  40303f:	83 f0 01             	xor    $0x1,%eax
  403042:	84 c0                	test   %al,%al
  403044:	0f 85 e9 00 00 00    	jne    403133 <_D3std8typeinfo8ti_Areal11TypeInfo_Ae6equalsMFPvPvZi+0x16e>
	{
	    int c = TypeInfo_e._equals(s1[u], s2[u]);
  40304a:	48 8b 45 b8          	mov    -0x48(%rbp),%rax
  40304e:	48 89 85 50 ff ff ff 	mov    %rax,-0xb0(%rbp)
  403055:	48 8b 45 b0          	mov    -0x50(%rbp),%rax
  403059:	48 39 45 f0          	cmp    %rax,-0x10(%rbp)
  40305d:	73 0d                	jae    40306c <_D3std8typeinfo8ti_Areal11TypeInfo_Ae6equalsMFPvPvZi+0xa7>
  40305f:	48 8b 45 f0          	mov    -0x10(%rbp),%rax
  403063:	48 89 85 58 ff ff ff 	mov    %rax,-0xa8(%rbp)
  40306a:	eb 22                	jmp    40308e <_D3std8typeinfo8ti_Areal11TypeInfo_Ae6equalsMFPvPvZi+0xc9>
  40306c:	48 c7 45 c0 17 00 00 	movq   $0x17,-0x40(%rbp)
  403073:	00 
  403074:	48 c7 45 c8 07 fd 40 	movq   $0x40fd07,-0x38(%rbp)
  40307b:	00 
  40307c:	48 8b 7d c0          	mov    -0x40(%rbp),%rdi
  403080:	48 8b 75 c8          	mov    -0x38(%rbp),%rsi
  403084:	ba 3f 00 00 00       	mov    $0x3f,%edx
  403089:	e8 f7 78 00 00       	callq  40a985 <_d_array_bounds>
  40308e:	48 8b 85 58 ff ff ff 	mov    -0xa8(%rbp),%rax
  403095:	48 c1 e0 04          	shl    $0x4,%rax
  403099:	48 03 85 50 ff ff ff 	add    -0xb0(%rbp),%rax
  4030a0:	db 28                	fldt   (%rax)
  4030a2:	db bd 60 ff ff ff    	fstpt  -0xa0(%rbp)
  4030a8:	48 8b 45 a8          	mov    -0x58(%rbp),%rax
  4030ac:	48 89 85 78 ff ff ff 	mov    %rax,-0x88(%rbp)
  4030b3:	48 8b 45 a0          	mov    -0x60(%rbp),%rax
  4030b7:	48 39 45 f0          	cmp    %rax,-0x10(%rbp)
  4030bb:	73 0a                	jae    4030c7 <_D3std8typeinfo8ti_Areal11TypeInfo_Ae6equalsMFPvPvZi+0x102>
  4030bd:	48 8b 45 f0          	mov    -0x10(%rbp),%rax
  4030c1:	48 89 45 80          	mov    %rax,-0x80(%rbp)
  4030c5:	eb 22                	jmp    4030e9 <_D3std8typeinfo8ti_Areal11TypeInfo_Ae6equalsMFPvPvZi+0x124>
  4030c7:	48 c7 45 d0 17 00 00 	movq   $0x17,-0x30(%rbp)
  4030ce:	00 
  4030cf:	48 c7 45 d8 07 fd 40 	movq   $0x40fd07,-0x28(%rbp)
  4030d6:	00 
  4030d7:	48 8b 7d d0          	mov    -0x30(%rbp),%rdi
  4030db:	48 8b 75 d8          	mov    -0x28(%rbp),%rsi
  4030df:	ba 3f 00 00 00       	mov    $0x3f,%edx
  4030e4:	e8 9c 78 00 00       	callq  40a985 <_d_array_bounds>
  4030e9:	48 8b 45 80          	mov    -0x80(%rbp),%rax
  4030ed:	48 c1 e0 04          	shl    $0x4,%rax
  4030f1:	48 03 85 78 ff ff ff 	add    -0x88(%rbp),%rax
  4030f8:	8b 50 08             	mov    0x8(%rax),%edx
  4030fb:	48 8b 00             	mov    (%rax),%rax
  4030fe:	db ad 60 ff ff ff    	fldt   -0xa0(%rbp)
  403104:	db 7c 24 10          	fstpt  0x10(%rsp)
  403108:	48 89 04 24          	mov    %rax,(%rsp)
  40310c:	89 54 24 08          	mov    %edx,0x8(%rsp)
  403110:	e8 5c 22 00 00       	callq  405371 <_D3std8typeinfo7ti_real10TypeInfo_e7_equalsFeeZi>
  403115:	89 45 fc             	mov    %eax,-0x4(%rbp)
	    if (c == 0)
  403118:	83 7d fc 00          	cmpl   $0x0,-0x4(%rbp)
  40311c:	75 0c                	jne    40312a <_D3std8typeinfo8ti_Areal11TypeInfo_Ae6equalsMFPvPvZi+0x165>
		return 0;
  40311e:	c7 85 4c ff ff ff 00 	movl   $0x0,-0xb4(%rbp)
  403125:	00 00 00 
  403128:	eb 13                	jmp    40313d <_D3std8typeinfo8ti_Areal11TypeInfo_Ae6equalsMFPvPvZi+0x178>
	if (len != s2.length)
	    return 0;
	for (size_t u = 0; u < len; u++)
	{
	    int c = TypeInfo_e._equals(s1[u], s2[u]);
	    if (c == 0)
  40312a:	48 ff 45 f0          	incq   -0x10(%rbp)
  40312e:	e9 01 ff ff ff       	jmpq   403034 <_D3std8typeinfo8ti_Areal11TypeInfo_Ae6equalsMFPvPvZi+0x6f>
		return 0;
	}
	return 1;
  403133:	c7 85 4c ff ff ff 01 	movl   $0x1,-0xb4(%rbp)
  40313a:	00 00 00 
  40313d:	8b 85 4c ff ff ff    	mov    -0xb4(%rbp),%eax
    }
  403143:	c9                   	leaveq 
  403144:	c3                   	retq   

0000000000403145 <_D3std8typeinfo8ti_Areal11TypeInfo_Ae7compareMFPvPvZi>:

    int compare(void *p1, void *p2)
  403145:	55                   	push   %rbp
  403146:	48 89 e5             	mov    %rsp,%rbp
  403149:	48 81 ec d0 00 00 00 	sub    $0xd0,%rsp
  403150:	48 89 7d 98          	mov    %rdi,-0x68(%rbp)
  403154:	48 89 75 90          	mov    %rsi,-0x70(%rbp)
  403158:	48 89 55 88          	mov    %rdx,-0x78(%rbp)
  40315c:	48 8b 7d 98          	mov    -0x68(%rbp),%rdi
  403160:	e8 57 5d 00 00       	callq  408ebc <_D9invariant12_d_invariantFC6ObjectZv>
    {
	real[] s1 = *cast(real[]*)p1;
  403165:	48 8b 55 90          	mov    -0x70(%rbp),%rdx
  403169:	48 8b 02             	mov    (%rdx),%rax
  40316c:	48 89 45 a0          	mov    %rax,-0x60(%rbp)
  403170:	48 8b 42 08          	mov    0x8(%rdx),%rax
  403174:	48 89 45 a8          	mov    %rax,-0x58(%rbp)
	real[] s2 = *cast(real[]*)p2;
  403178:	48 8b 55 88          	mov    -0x78(%rbp),%rdx
  40317c:	48 8b 02             	mov    (%rdx),%rax
  40317f:	48 89 45 b0          	mov    %rax,-0x50(%rbp)
  403183:	48 8b 42 08          	mov    0x8(%rdx),%rax
  403187:	48 89 45 b8          	mov    %rax,-0x48(%rbp)
	size_t len = s1.length;
  40318b:	48 8b 45 a0          	mov    -0x60(%rbp),%rax
  40318f:	48 89 45 e8          	mov    %rax,-0x18(%rbp)

	if (s2.length < len)
  403193:	48 8b 45 b0          	mov    -0x50(%rbp),%rax
  403197:	48 3b 45 e8          	cmp    -0x18(%rbp),%rax
  40319b:	73 08                	jae    4031a5 <_D3std8typeinfo8ti_Areal11TypeInfo_Ae7compareMFPvPvZi+0x60>
	    len = s2.length;
  40319d:	48 8b 45 b0          	mov    -0x50(%rbp),%rax
  4031a1:	48 89 45 e8          	mov    %rax,-0x18(%rbp)
	for (size_t u = 0; u < len; u++)
  4031a5:	48 c7 45 f0 00 00 00 	movq   $0x0,-0x10(%rbp)
  4031ac:	00 
  4031ad:	48 8b 45 f0          	mov    -0x10(%rbp),%rax
  4031b1:	48 3b 45 e8          	cmp    -0x18(%rbp),%rax
  4031b5:	0f 92 c0             	setb   %al
  4031b8:	83 f0 01             	xor    $0x1,%eax
  4031bb:	84 c0                	test   %al,%al
  4031bd:	0f 85 eb 00 00 00    	jne    4032ae <_D3std8typeinfo8ti_Areal11TypeInfo_Ae7compareMFPvPvZi+0x169>
	{
	    int c = TypeInfo_e._compare(s1[u], s2[u]);
  4031c3:	48 8b 45 b8          	mov    -0x48(%rbp),%rax
  4031c7:	48 89 85 50 ff ff ff 	mov    %rax,-0xb0(%rbp)
  4031ce:	48 8b 45 b0          	mov    -0x50(%rbp),%rax
  4031d2:	48 39 45 f0          	cmp    %rax,-0x10(%rbp)
  4031d6:	73 0d                	jae    4031e5 <_D3std8typeinfo8ti_Areal11TypeInfo_Ae7compareMFPvPvZi+0xa0>
  4031d8:	48 8b 45 f0          	mov    -0x10(%rbp),%rax
  4031dc:	48 89 85 58 ff ff ff 	mov    %rax,-0xa8(%rbp)
  4031e3:	eb 22                	jmp    403207 <_D3std8typeinfo8ti_Areal11TypeInfo_Ae7compareMFPvPvZi+0xc2>
  4031e5:	48 c7 45 c0 17 00 00 	movq   $0x17,-0x40(%rbp)
  4031ec:	00 
  4031ed:	48 c7 45 c8 07 fd 40 	movq   $0x40fd07,-0x38(%rbp)
  4031f4:	00 
  4031f5:	48 8b 7d c0          	mov    -0x40(%rbp),%rdi
  4031f9:	48 8b 75 c8          	mov    -0x38(%rbp),%rsi
  4031fd:	ba 50 00 00 00       	mov    $0x50,%edx
  403202:	e8 7e 77 00 00       	callq  40a985 <_d_array_bounds>
  403207:	48 8b 85 58 ff ff ff 	mov    -0xa8(%rbp),%rax
  40320e:	48 c1 e0 04          	shl    $0x4,%rax
  403212:	48 03 85 50 ff ff ff 	add    -0xb0(%rbp),%rax
  403219:	db 28                	fldt   (%rax)
  40321b:	db bd 60 ff ff ff    	fstpt  -0xa0(%rbp)
  403221:	48 8b 45 a8          	mov    -0x58(%rbp),%rax
  403225:	48 89 85 70 ff ff ff 	mov    %rax,-0x90(%rbp)
  40322c:	48 8b 45 a0          	mov    -0x60(%rbp),%rax
  403230:	48 39 45 f0          	cmp    %rax,-0x10(%rbp)
  403234:	73 0d                	jae    403243 <_D3std8typeinfo8ti_Areal11TypeInfo_Ae7compareMFPvPvZi+0xfe>
  403236:	48 8b 45 f0          	mov    -0x10(%rbp),%rax
  40323a:	48 89 85 78 ff ff ff 	mov    %rax,-0x88(%rbp)
  403241:	eb 22                	jmp    403265 <_D3std8typeinfo8ti_Areal11TypeInfo_Ae7compareMFPvPvZi+0x120>
  403243:	48 c7 45 d0 17 00 00 	movq   $0x17,-0x30(%rbp)
  40324a:	00 
  40324b:	48 c7 45 d8 07 fd 40 	movq   $0x40fd07,-0x28(%rbp)
  403252:	00 
  403253:	48 8b 7d d0          	mov    -0x30(%rbp),%rdi
  403257:	48 8b 75 d8          	mov    -0x28(%rbp),%rsi
  40325b:	ba 50 00 00 00       	mov    $0x50,%edx
  403260:	e8 20 77 00 00       	callq  40a985 <_d_array_bounds>
  403265:	48 8b 85 78 ff ff ff 	mov    -0x88(%rbp),%rax
  40326c:	48 c1 e0 04          	shl    $0x4,%rax
  403270:	48 03 85 70 ff ff ff 	add    -0x90(%rbp),%rax
  403277:	8b 50 08             	mov    0x8(%rax),%edx
  40327a:	48 8b 00             	mov    (%rax),%rax
  40327d:	db ad 60 ff ff ff    	fldt   -0xa0(%rbp)
  403283:	db 7c 24 10          	fstpt  0x10(%rsp)
  403287:	48 89 04 24          	mov    %rax,(%rsp)
  40328b:	89 54 24 08          	mov    %edx,0x8(%rsp)
  40328f:	e8 35 21 00 00       	callq  4053c9 <_D3std8typeinfo7ti_real10TypeInfo_e8_compareFeeZi>
  403294:	89 45 fc             	mov    %eax,-0x4(%rbp)
	    if (c)
  403297:	83 7d fc 00          	cmpl   $0x0,-0x4(%rbp)
  40329b:	74 08                	je     4032a5 <_D3std8typeinfo8ti_Areal11TypeInfo_Ae7compareMFPvPvZi+0x160>
		return c;
  40329d:	8b 45 fc             	mov    -0x4(%rbp),%eax
  4032a0:	89 45 84             	mov    %eax,-0x7c(%rbp)
  4032a3:	eb 3c                	jmp    4032e1 <_D3std8typeinfo8ti_Areal11TypeInfo_Ae7compareMFPvPvZi+0x19c>
	if (s2.length < len)
	    len = s2.length;
	for (size_t u = 0; u < len; u++)
	{
	    int c = TypeInfo_e._compare(s1[u], s2[u]);
	    if (c)
  4032a5:	48 ff 45 f0          	incq   -0x10(%rbp)
  4032a9:	e9 ff fe ff ff       	jmpq   4031ad <_D3std8typeinfo8ti_Areal11TypeInfo_Ae7compareMFPvPvZi+0x68>
		return c;
	}
	if (s1.length < s2.length)
  4032ae:	48 8b 55 a0          	mov    -0x60(%rbp),%rdx
  4032b2:	48 8b 45 b0          	mov    -0x50(%rbp),%rax
  4032b6:	48 39 c2             	cmp    %rax,%rdx
  4032b9:	73 09                	jae    4032c4 <_D3std8typeinfo8ti_Areal11TypeInfo_Ae7compareMFPvPvZi+0x17f>
	    return -1;
  4032bb:	c7 45 84 ff ff ff ff 	movl   $0xffffffff,-0x7c(%rbp)
  4032c2:	eb 1d                	jmp    4032e1 <_D3std8typeinfo8ti_Areal11TypeInfo_Ae7compareMFPvPvZi+0x19c>
	else if (s1.length > s2.length)
  4032c4:	48 8b 55 a0          	mov    -0x60(%rbp),%rdx
  4032c8:	48 8b 45 b0          	mov    -0x50(%rbp),%rax
  4032cc:	48 39 c2             	cmp    %rax,%rdx
  4032cf:	76 09                	jbe    4032da <_D3std8typeinfo8ti_Areal11TypeInfo_Ae7compareMFPvPvZi+0x195>
	    return 1;
  4032d1:	c7 45 84 01 00 00 00 	movl   $0x1,-0x7c(%rbp)
  4032d8:	eb 07                	jmp    4032e1 <_D3std8typeinfo8ti_Areal11TypeInfo_Ae7compareMFPvPvZi+0x19c>
	return 0;
  4032da:	c7 45 84 00 00 00 00 	movl   $0x0,-0x7c(%rbp)
  4032e1:	8b 45 84             	mov    -0x7c(%rbp),%eax
    }
  4032e4:	c9                   	leaveq 
  4032e5:	c3                   	retq   

00000000004032e6 <_D3std8typeinfo8ti_Areal11TypeInfo_Ae5tsizeMFZm>:

    size_t tsize()
  4032e6:	55                   	push   %rbp
  4032e7:	48 89 e5             	mov    %rsp,%rbp
  4032ea:	48 83 ec 10          	sub    $0x10,%rsp
  4032ee:	48 89 7d f8          	mov    %rdi,-0x8(%rbp)
  4032f2:	48 8b 7d f8          	mov    -0x8(%rbp),%rdi
  4032f6:	e8 c1 5b 00 00       	callq  408ebc <_D9invariant12_d_invariantFC6ObjectZv>
    {
	return (real[]).sizeof;
  4032fb:	b8 10 00 00 00       	mov    $0x10,%eax
    }
  403300:	c9                   	leaveq 
  403301:	c3                   	retq   

0000000000403302 <_D3std8typeinfo8ti_Areal11TypeInfo_Ae5flagsMFZk>:

    uint flags()
  403302:	55                   	push   %rbp
  403303:	48 89 e5             	mov    %rsp,%rbp
  403306:	48 83 ec 10          	sub    $0x10,%rsp
  40330a:	48 89 7d f8          	mov    %rdi,-0x8(%rbp)
  40330e:	48 8b 7d f8          	mov    -0x8(%rbp),%rdi
  403312:	e8 a5 5b 00 00       	callq  408ebc <_D9invariant12_d_invariantFC6ObjectZv>
    {
	return 1;
  403317:	b8 01 00 00 00       	mov    $0x1,%eax
    }
  40331c:	c9                   	leaveq 
  40331d:	c3                   	retq   

000000000040331e <_D3std8typeinfo8ti_Areal11TypeInfo_Ae4nextMFZC8TypeInfo>:

    TypeInfo next()
  40331e:	55                   	push   %rbp
  40331f:	48 89 e5             	mov    %rsp,%rbp
  403322:	48 83 ec 10          	sub    $0x10,%rsp
  403326:	48 89 7d f8          	mov    %rdi,-0x8(%rbp)
  40332a:	48 8b 7d f8          	mov    -0x8(%rbp),%rdi
  40332e:	e8 89 5b 00 00       	callq  408ebc <_D9invariant12_d_invariantFC6ObjectZv>
    {
	return typeid(real);
  403333:	48 c7 c0 30 0c 41 00 	mov    $0x410c30,%rax
    }
  40333a:	c9                   	leaveq 
  40333b:	c3                   	retq   

000000000040333c <_D3std8typeinfo8ti_Areal11TypeInfo_Aj8toStringMFZAa>:

// ireal[]

class TypeInfo_Aj : TypeInfo_Ae
{
    char[] toString() { return "ireal[]"; }
  40333c:	55                   	push   %rbp
  40333d:	48 89 e5             	mov    %rsp,%rbp
  403340:	53                   	push   %rbx
  403341:	48 83 ec 08          	sub    $0x8,%rsp
  403345:	48 89 fb             	mov    %rdi,%rbx
  403348:	48 89 75 f0          	mov    %rsi,-0x10(%rbp)
  40334c:	48 8b 7d f0          	mov    -0x10(%rbp),%rdi
  403350:	e8 67 5b 00 00       	callq  408ebc <_D9invariant12_d_invariantFC6ObjectZv>
  403355:	48 c7 03 07 00 00 00 	movq   $0x7,(%rbx)
  40335c:	48 c7 43 08 b0 fd 40 	movq   $0x40fdb0,0x8(%rbx)
  403363:	00 
  403364:	48 89 d8             	mov    %rbx,%rax
  403367:	48 83 c4 08          	add    $0x8,%rsp
  40336b:	5b                   	pop    %rbx
  40336c:	c9                   	leaveq 
  40336d:	c3                   	retq   

000000000040336e <_D3std8typeinfo8ti_Areal11TypeInfo_Aj4nextMFZC8TypeInfo>:

    TypeInfo next()
  40336e:	55                   	push   %rbp
  40336f:	48 89 e5             	mov    %rsp,%rbp
  403372:	48 83 ec 10          	sub    $0x10,%rsp
  403376:	48 89 7d f8          	mov    %rdi,-0x8(%rbp)
  40337a:	48 8b 7d f8          	mov    -0x8(%rbp),%rdi
  40337e:	e8 39 5b 00 00       	callq  408ebc <_D9invariant12_d_invariantFC6ObjectZv>
    {
	return typeid(ireal);
  403383:	48 c7 c0 10 0a 41 00 	mov    $0x410a10,%rax
    }
  40338a:	c9                   	leaveq 
  40338b:	c3                   	retq   

000000000040338c <_D3std8typeinfo9ti_Ashort11TypeInfo_As8toStringMFZAa>:

// short[]

class TypeInfo_As : TypeInfo
{
    char[] toString() { return "short[]"; }
  40338c:	55                   	push   %rbp
  40338d:	48 89 e5             	mov    %rsp,%rbp
  403390:	53                   	push   %rbx
  403391:	48 83 ec 08          	sub    $0x8,%rsp
  403395:	48 89 fb             	mov    %rdi,%rbx
  403398:	48 89 75 f0          	mov    %rsi,-0x10(%rbp)
  40339c:	48 8b 7d f0          	mov    -0x10(%rbp),%rdi
  4033a0:	e8 17 5b 00 00       	callq  408ebc <_D9invariant12_d_invariantFC6ObjectZv>
  4033a5:	48 c7 03 07 00 00 00 	movq   $0x7,(%rbx)
  4033ac:	48 c7 43 08 60 fe 40 	movq   $0x40fe60,0x8(%rbx)
  4033b3:	00 
  4033b4:	48 89 d8             	mov    %rbx,%rax
  4033b7:	48 83 c4 08          	add    $0x8,%rsp
  4033bb:	5b                   	pop    %rbx
  4033bc:	c9                   	leaveq 
  4033bd:	c3                   	retq   

00000000004033be <_D3std8typeinfo9ti_Ashort11TypeInfo_As7getHashMFPvZm>:

    hash_t getHash(void *p)
  4033be:	55                   	push   %rbp
  4033bf:	48 89 e5             	mov    %rsp,%rbp
  4033c2:	48 83 ec 50          	sub    $0x50,%rsp
  4033c6:	48 89 7d c8          	mov    %rdi,-0x38(%rbp)
  4033ca:	48 89 75 c0          	mov    %rsi,-0x40(%rbp)
  4033ce:	48 8b 7d c8          	mov    -0x38(%rbp),%rdi
  4033d2:	e8 e5 5a 00 00       	callq  408ebc <_D9invariant12_d_invariantFC6ObjectZv>
    {	short[] s = *cast(short[]*)p;
  4033d7:	48 8b 55 c0          	mov    -0x40(%rbp),%rdx
  4033db:	48 8b 02             	mov    (%rdx),%rax
  4033de:	48 89 45 d0          	mov    %rax,-0x30(%rbp)
  4033e2:	48 8b 42 08          	mov    0x8(%rdx),%rax
  4033e6:	48 89 45 d8          	mov    %rax,-0x28(%rbp)
	size_t len = s.length;
  4033ea:	48 8b 45 d0          	mov    -0x30(%rbp),%rax
  4033ee:	48 89 45 f8          	mov    %rax,-0x8(%rbp)
	short *str = s.ptr;
  4033f2:	48 8b 45 d8          	mov    -0x28(%rbp),%rax
  4033f6:	48 89 45 f0          	mov    %rax,-0x10(%rbp)
	hash_t hash = 0;
  4033fa:	48 c7 45 e8 00 00 00 	movq   $0x0,-0x18(%rbp)
  403401:	00 

	while (1)
  403402:	b8 00 00 00 00       	mov    $0x0,%eax
  403407:	84 c0                	test   %al,%al
  403409:	75 76                	jne    403481 <_D3std8typeinfo9ti_Ashort11TypeInfo_As7getHashMFPvZm+0xc3>
		default:
		    hash *= 9;
		    hash += *cast(uint *)str;
		    str += 2;
		    len -= 2;
		    break;
  40340b:	48 8b 45 f8          	mov    -0x8(%rbp),%rax
  40340f:	48 89 45 b0          	mov    %rax,-0x50(%rbp)
  403413:	48 83 7d b0 00       	cmpq   $0x0,-0x50(%rbp)
  403418:	74 09                	je     403423 <_D3std8typeinfo9ti_Ashort11TypeInfo_As7getHashMFPvZm+0x65>
  40341a:	48 83 7d b0 01       	cmpq   $0x1,-0x50(%rbp)
  40341f:	74 0c                	je     40342d <_D3std8typeinfo9ti_Ashort11TypeInfo_As7getHashMFPvZm+0x6f>
  403421:	eb 34                	jmp    403457 <_D3std8typeinfo9ti_Ashort11TypeInfo_As7getHashMFPvZm+0x99>
	while (1)
	{
	    switch (len)
	    {
		case 0:
		    return hash;
  403423:	48 8b 45 e8          	mov    -0x18(%rbp),%rax
  403427:	48 89 45 b8          	mov    %rax,-0x48(%rbp)
  40342b:	eb 5c                	jmp    403489 <_D3std8typeinfo9ti_Ashort11TypeInfo_As7getHashMFPvZm+0xcb>

		case 1:
		    hash *= 9;
  40342d:	48 8b 55 e8          	mov    -0x18(%rbp),%rdx
  403431:	48 89 d0             	mov    %rdx,%rax
  403434:	48 c1 e0 03          	shl    $0x3,%rax
  403438:	48 01 d0             	add    %rdx,%rax
  40343b:	48 89 45 e8          	mov    %rax,-0x18(%rbp)
		    hash += *cast(ushort *)str;
  40343f:	48 8b 45 f0          	mov    -0x10(%rbp),%rax
  403443:	0f b7 00             	movzwl (%rax),%eax
  403446:	0f b7 c0             	movzwl %ax,%eax
  403449:	48 01 45 e8          	add    %rax,-0x18(%rbp)
		    return hash;
  40344d:	48 8b 45 e8          	mov    -0x18(%rbp),%rax
  403451:	48 89 45 b8          	mov    %rax,-0x48(%rbp)
  403455:	eb 32                	jmp    403489 <_D3std8typeinfo9ti_Ashort11TypeInfo_As7getHashMFPvZm+0xcb>

		default:
		    hash *= 9;
  403457:	48 8b 55 e8          	mov    -0x18(%rbp),%rdx
  40345b:	48 89 d0             	mov    %rdx,%rax
  40345e:	48 c1 e0 03          	shl    $0x3,%rax
  403462:	48 01 d0             	add    %rdx,%rax
  403465:	48 89 45 e8          	mov    %rax,-0x18(%rbp)
		    hash += *cast(uint *)str;
  403469:	48 8b 45 f0          	mov    -0x10(%rbp),%rax
  40346d:	8b 00                	mov    (%rax),%eax
  40346f:	89 c0                	mov    %eax,%eax
  403471:	48 01 45 e8          	add    %rax,-0x18(%rbp)
		    str += 2;
  403475:	48 83 45 f0 04       	addq   $0x4,-0x10(%rbp)
		    len -= 2;
  40347a:	48 83 6d f8 02       	subq   $0x2,-0x8(%rbp)
		    break;
  40347f:	eb 81                	jmp    403402 <_D3std8typeinfo9ti_Ashort11TypeInfo_As7getHashMFPvZm+0x44>
	    }
	}

	return hash;
  403481:	48 8b 45 e8          	mov    -0x18(%rbp),%rax
  403485:	48 89 45 b8          	mov    %rax,-0x48(%rbp)
  403489:	48 8b 45 b8          	mov    -0x48(%rbp),%rax
    }
  40348d:	c9                   	leaveq 
  40348e:	c3                   	retq   

000000000040348f <_D3std8typeinfo9ti_Ashort11TypeInfo_As6equalsMFPvPvZi>:

    int equals(void *p1, void *p2)
  40348f:	55                   	push   %rbp
  403490:	48 89 e5             	mov    %rsp,%rbp
  403493:	48 83 ec 40          	sub    $0x40,%rsp
  403497:	48 89 7d d8          	mov    %rdi,-0x28(%rbp)
  40349b:	48 89 75 d0          	mov    %rsi,-0x30(%rbp)
  40349f:	48 89 55 c8          	mov    %rdx,-0x38(%rbp)
  4034a3:	48 8b 7d d8          	mov    -0x28(%rbp),%rdi
  4034a7:	e8 10 5a 00 00       	callq  408ebc <_D9invariant12_d_invariantFC6ObjectZv>
    {
	short[] s1 = *cast(short[]*)p1;
  4034ac:	48 8b 55 d0          	mov    -0x30(%rbp),%rdx
  4034b0:	48 8b 02             	mov    (%rdx),%rax
  4034b3:	48 89 45 e0          	mov    %rax,-0x20(%rbp)
  4034b7:	48 8b 42 08          	mov    0x8(%rdx),%rax
  4034bb:	48 89 45 e8          	mov    %rax,-0x18(%rbp)
	short[] s2 = *cast(short[]*)p2;
  4034bf:	48 8b 55 c8          	mov    -0x38(%rbp),%rdx
  4034c3:	48 8b 02             	mov    (%rdx),%rax
  4034c6:	48 89 45 f0          	mov    %rax,-0x10(%rbp)
  4034ca:	48 8b 42 08          	mov    0x8(%rdx),%rax
  4034ce:	48 89 45 f8          	mov    %rax,-0x8(%rbp)

	return s1.length == s2.length &&
  4034d2:	48 8b 55 e0          	mov    -0x20(%rbp),%rdx
  4034d6:	48 8b 45 f0          	mov    -0x10(%rbp),%rax
  4034da:	48 39 c2             	cmp    %rax,%rdx
  4034dd:	75 26                	jne    403505 <_D3std8typeinfo9ti_Ashort11TypeInfo_As6equalsMFPvPvZi+0x76>
  4034df:	48 8b 45 e0          	mov    -0x20(%rbp),%rax
  4034e3:	48 8d 14 00          	lea    (%rax,%rax,1),%rdx
  4034e7:	48 8b 45 f8          	mov    -0x8(%rbp),%rax
  4034eb:	48 89 c6             	mov    %rax,%rsi
  4034ee:	48 8b 45 e8          	mov    -0x18(%rbp),%rax
  4034f2:	48 89 c7             	mov    %rax,%rdi
  4034f5:	e8 fa 9e 00 00       	callq  40d3f4 <_D6kernel4core6system6memcmpFPvPvmZl>
  4034fa:	48 85 c0             	test   %rax,%rax
  4034fd:	75 06                	jne    403505 <_D3std8typeinfo9ti_Ashort11TypeInfo_As6equalsMFPvPvZi+0x76>
  4034ff:	c6 45 c7 01          	movb   $0x1,-0x39(%rbp)
  403503:	eb 04                	jmp    403509 <_D3std8typeinfo9ti_Ashort11TypeInfo_As6equalsMFPvPvZi+0x7a>
  403505:	c6 45 c7 00          	movb   $0x0,-0x39(%rbp)
  403509:	0f b6 45 c7          	movzbl -0x39(%rbp),%eax
	       memcmp(cast(ubyte*)s1.ptr, cast(ubyte*)s2.ptr, s1.length * short.sizeof) == 0;
    }
  40350d:	c9                   	leaveq 
  40350e:	c3                   	retq   

000000000040350f <_D3std8typeinfo9ti_Ashort11TypeInfo_As7compareMFPvPvZi>:

    int compare(void *p1, void *p2)
  40350f:	55                   	push   %rbp
  403510:	48 89 e5             	mov    %rsp,%rbp
  403513:	48 81 ec b0 00 00 00 	sub    $0xb0,%rsp
  40351a:	48 89 7d 98          	mov    %rdi,-0x68(%rbp)
  40351e:	48 89 75 90          	mov    %rsi,-0x70(%rbp)
  403522:	48 89 55 88          	mov    %rdx,-0x78(%rbp)
  403526:	48 8b 7d 98          	mov    -0x68(%rbp),%rdi
  40352a:	e8 8d 59 00 00       	callq  408ebc <_D9invariant12_d_invariantFC6ObjectZv>
    {
	short[] s1 = *cast(short[]*)p1;
  40352f:	48 8b 55 90          	mov    -0x70(%rbp),%rdx
  403533:	48 8b 02             	mov    (%rdx),%rax
  403536:	48 89 45 a0          	mov    %rax,-0x60(%rbp)
  40353a:	48 8b 42 08          	mov    0x8(%rdx),%rax
  40353e:	48 89 45 a8          	mov    %rax,-0x58(%rbp)
	short[] s2 = *cast(short[]*)p2;
  403542:	48 8b 55 88          	mov    -0x78(%rbp),%rdx
  403546:	48 8b 02             	mov    (%rdx),%rax
  403549:	48 89 45 b0          	mov    %rax,-0x50(%rbp)
  40354d:	48 8b 42 08          	mov    0x8(%rdx),%rax
  403551:	48 89 45 b8          	mov    %rax,-0x48(%rbp)
	size_t len = s1.length;
  403555:	48 8b 45 a0          	mov    -0x60(%rbp),%rax
  403559:	48 89 45 e8          	mov    %rax,-0x18(%rbp)

	if (s2.length < len)
  40355d:	48 8b 45 b0          	mov    -0x50(%rbp),%rax
  403561:	48 3b 45 e8          	cmp    -0x18(%rbp),%rax
  403565:	73 08                	jae    40356f <_D3std8typeinfo9ti_Ashort11TypeInfo_As7compareMFPvPvZi+0x60>
	    len = s2.length;
  403567:	48 8b 45 b0          	mov    -0x50(%rbp),%rax
  40356b:	48 89 45 e8          	mov    %rax,-0x18(%rbp)
	for (size_t u = 0; u < len; u++)
  40356f:	48 c7 45 f0 00 00 00 	movq   $0x0,-0x10(%rbp)
  403576:	00 
  403577:	48 8b 45 f0          	mov    -0x10(%rbp),%rax
  40357b:	48 3b 45 e8          	cmp    -0x18(%rbp),%rax
  40357f:	0f 92 c0             	setb   %al
  403582:	83 f0 01             	xor    $0x1,%eax
  403585:	84 c0                	test   %al,%al
  403587:	0f 85 dc 00 00 00    	jne    403669 <_D3std8typeinfo9ti_Ashort11TypeInfo_As7compareMFPvPvZi+0x15a>
	{
	    int result = s1[u] - s2[u];
  40358d:	48 8b 45 a8          	mov    -0x58(%rbp),%rax
  403591:	48 89 85 58 ff ff ff 	mov    %rax,-0xa8(%rbp)
  403598:	48 8b 45 a0          	mov    -0x60(%rbp),%rax
  40359c:	48 39 45 f0          	cmp    %rax,-0x10(%rbp)
  4035a0:	73 0d                	jae    4035af <_D3std8typeinfo9ti_Ashort11TypeInfo_As7compareMFPvPvZi+0xa0>
  4035a2:	48 8b 55 f0          	mov    -0x10(%rbp),%rdx
  4035a6:	48 89 95 60 ff ff ff 	mov    %rdx,-0xa0(%rbp)
  4035ad:	eb 22                	jmp    4035d1 <_D3std8typeinfo9ti_Ashort11TypeInfo_As7compareMFPvPvZi+0xc2>
  4035af:	48 c7 45 c0 18 00 00 	movq   $0x18,-0x40(%rbp)
  4035b6:	00 
  4035b7:	48 c7 45 c8 68 fe 40 	movq   $0x40fe68,-0x38(%rbp)
  4035be:	00 
  4035bf:	48 8b 7d c0          	mov    -0x40(%rbp),%rdi
  4035c3:	48 8b 75 c8          	mov    -0x38(%rbp),%rsi
  4035c7:	ba 3d 00 00 00       	mov    $0x3d,%edx
  4035cc:	e8 b4 73 00 00       	callq  40a985 <_d_array_bounds>
  4035d1:	48 8b 85 60 ff ff ff 	mov    -0xa0(%rbp),%rax
  4035d8:	48 01 c0             	add    %rax,%rax
  4035db:	48 03 85 58 ff ff ff 	add    -0xa8(%rbp),%rax
  4035e2:	0f b7 00             	movzwl (%rax),%eax
  4035e5:	98                   	cwtl   
  4035e6:	89 85 6c ff ff ff    	mov    %eax,-0x94(%rbp)
  4035ec:	48 8b 45 b8          	mov    -0x48(%rbp),%rax
  4035f0:	48 89 85 70 ff ff ff 	mov    %rax,-0x90(%rbp)
  4035f7:	48 8b 45 b0          	mov    -0x50(%rbp),%rax
  4035fb:	48 39 45 f0          	cmp    %rax,-0x10(%rbp)
  4035ff:	73 0d                	jae    40360e <_D3std8typeinfo9ti_Ashort11TypeInfo_As7compareMFPvPvZi+0xff>
  403601:	48 8b 55 f0          	mov    -0x10(%rbp),%rdx
  403605:	48 89 95 78 ff ff ff 	mov    %rdx,-0x88(%rbp)
  40360c:	eb 22                	jmp    403630 <_D3std8typeinfo9ti_Ashort11TypeInfo_As7compareMFPvPvZi+0x121>
  40360e:	48 c7 45 d0 18 00 00 	movq   $0x18,-0x30(%rbp)
  403615:	00 
  403616:	48 c7 45 d8 68 fe 40 	movq   $0x40fe68,-0x28(%rbp)
  40361d:	00 
  40361e:	48 8b 7d d0          	mov    -0x30(%rbp),%rdi
  403622:	48 8b 75 d8          	mov    -0x28(%rbp),%rsi
  403626:	ba 3d 00 00 00       	mov    $0x3d,%edx
  40362b:	e8 55 73 00 00       	callq  40a985 <_d_array_bounds>
  403630:	48 8b 85 78 ff ff ff 	mov    -0x88(%rbp),%rax
  403637:	48 01 c0             	add    %rax,%rax
  40363a:	48 03 85 70 ff ff ff 	add    -0x90(%rbp),%rax
  403641:	0f b7 00             	movzwl (%rax),%eax
  403644:	98                   	cwtl   
  403645:	8b 95 6c ff ff ff    	mov    -0x94(%rbp),%edx
  40364b:	29 c2                	sub    %eax,%edx
  40364d:	89 d0                	mov    %edx,%eax
  40364f:	89 45 fc             	mov    %eax,-0x4(%rbp)
	    if (result)
  403652:	83 7d fc 00          	cmpl   $0x0,-0x4(%rbp)
  403656:	74 08                	je     403660 <_D3std8typeinfo9ti_Ashort11TypeInfo_As7compareMFPvPvZi+0x151>
		return result;
  403658:	8b 45 fc             	mov    -0x4(%rbp),%eax
  40365b:	89 45 84             	mov    %eax,-0x7c(%rbp)
  40365e:	eb 3c                	jmp    40369c <_D3std8typeinfo9ti_Ashort11TypeInfo_As7compareMFPvPvZi+0x18d>
	if (s2.length < len)
	    len = s2.length;
	for (size_t u = 0; u < len; u++)
	{
	    int result = s1[u] - s2[u];
	    if (result)
  403660:	48 ff 45 f0          	incq   -0x10(%rbp)
  403664:	e9 0e ff ff ff       	jmpq   403577 <_D3std8typeinfo9ti_Ashort11TypeInfo_As7compareMFPvPvZi+0x68>
		return result;
	}
	if (s1.length < s2.length)
  403669:	48 8b 55 a0          	mov    -0x60(%rbp),%rdx
  40366d:	48 8b 45 b0          	mov    -0x50(%rbp),%rax
  403671:	48 39 c2             	cmp    %rax,%rdx
  403674:	73 09                	jae    40367f <_D3std8typeinfo9ti_Ashort11TypeInfo_As7compareMFPvPvZi+0x170>
	    return -1;
  403676:	c7 45 84 ff ff ff ff 	movl   $0xffffffff,-0x7c(%rbp)
  40367d:	eb 1d                	jmp    40369c <_D3std8typeinfo9ti_Ashort11TypeInfo_As7compareMFPvPvZi+0x18d>
	else if (s1.length > s2.length)
  40367f:	48 8b 55 a0          	mov    -0x60(%rbp),%rdx
  403683:	48 8b 45 b0          	mov    -0x50(%rbp),%rax
  403687:	48 39 c2             	cmp    %rax,%rdx
  40368a:	76 09                	jbe    403695 <_D3std8typeinfo9ti_Ashort11TypeInfo_As7compareMFPvPvZi+0x186>
	    return 1;
  40368c:	c7 45 84 01 00 00 00 	movl   $0x1,-0x7c(%rbp)
  403693:	eb 07                	jmp    40369c <_D3std8typeinfo9ti_Ashort11TypeInfo_As7compareMFPvPvZi+0x18d>
	return 0;
  403695:	c7 45 84 00 00 00 00 	movl   $0x0,-0x7c(%rbp)
  40369c:	8b 45 84             	mov    -0x7c(%rbp),%eax
    }
  40369f:	c9                   	leaveq 
  4036a0:	c3                   	retq   

00000000004036a1 <_D3std8typeinfo9ti_Ashort11TypeInfo_As5tsizeMFZm>:

    size_t tsize()
  4036a1:	55                   	push   %rbp
  4036a2:	48 89 e5             	mov    %rsp,%rbp
  4036a5:	48 83 ec 10          	sub    $0x10,%rsp
  4036a9:	48 89 7d f8          	mov    %rdi,-0x8(%rbp)
  4036ad:	48 8b 7d f8          	mov    -0x8(%rbp),%rdi
  4036b1:	e8 06 58 00 00       	callq  408ebc <_D9invariant12_d_invariantFC6ObjectZv>
    {
	return (short[]).sizeof;
  4036b6:	b8 10 00 00 00       	mov    $0x10,%eax
    }
  4036bb:	c9                   	leaveq 
  4036bc:	c3                   	retq   

00000000004036bd <_D3std8typeinfo9ti_Ashort11TypeInfo_As5flagsMFZk>:

    uint flags()
  4036bd:	55                   	push   %rbp
  4036be:	48 89 e5             	mov    %rsp,%rbp
  4036c1:	48 83 ec 10          	sub    $0x10,%rsp
  4036c5:	48 89 7d f8          	mov    %rdi,-0x8(%rbp)
  4036c9:	48 8b 7d f8          	mov    -0x8(%rbp),%rdi
  4036cd:	e8 ea 57 00 00       	callq  408ebc <_D9invariant12_d_invariantFC6ObjectZv>
    {
	return 1;
  4036d2:	b8 01 00 00 00       	mov    $0x1,%eax
    }
  4036d7:	c9                   	leaveq 
  4036d8:	c3                   	retq   

00000000004036d9 <_D3std8typeinfo9ti_Ashort11TypeInfo_As4nextMFZC8TypeInfo>:

    TypeInfo next()
  4036d9:	55                   	push   %rbp
  4036da:	48 89 e5             	mov    %rsp,%rbp
  4036dd:	48 83 ec 10          	sub    $0x10,%rsp
  4036e1:	48 89 7d f8          	mov    %rdi,-0x8(%rbp)
  4036e5:	48 8b 7d f8          	mov    -0x8(%rbp),%rdi
  4036e9:	e8 ce 57 00 00       	callq  408ebc <_D9invariant12_d_invariantFC6ObjectZv>
    {
	return typeid(short);
  4036ee:	48 c7 c0 f0 0c 41 00 	mov    $0x410cf0,%rax
    }
  4036f5:	c9                   	leaveq 
  4036f6:	c3                   	retq   

00000000004036f7 <_D3std8typeinfo9ti_Ashort11TypeInfo_At8toStringMFZAa>:

// ushort[]

class TypeInfo_At : TypeInfo_As
{
    char[] toString() { return "ushort[]"; }
  4036f7:	55                   	push   %rbp
  4036f8:	48 89 e5             	mov    %rsp,%rbp
  4036fb:	53                   	push   %rbx
  4036fc:	48 83 ec 08          	sub    $0x8,%rsp
  403700:	48 89 fb             	mov    %rdi,%rbx
  403703:	48 89 75 f0          	mov    %rsi,-0x10(%rbp)
  403707:	48 8b 7d f0          	mov    -0x10(%rbp),%rdi
  40370b:	e8 ac 57 00 00       	callq  408ebc <_D9invariant12_d_invariantFC6ObjectZv>
  403710:	48 c7 03 08 00 00 00 	movq   $0x8,(%rbx)
  403717:	48 c7 43 08 30 ff 40 	movq   $0x40ff30,0x8(%rbx)
  40371e:	00 
  40371f:	48 89 d8             	mov    %rbx,%rax
  403722:	48 83 c4 08          	add    $0x8,%rsp
  403726:	5b                   	pop    %rbx
  403727:	c9                   	leaveq 
  403728:	c3                   	retq   

0000000000403729 <_D3std8typeinfo9ti_Ashort11TypeInfo_At7compareMFPvPvZi>:

    int compare(void *p1, void *p2)
  403729:	55                   	push   %rbp
  40372a:	48 89 e5             	mov    %rsp,%rbp
  40372d:	48 81 ec b0 00 00 00 	sub    $0xb0,%rsp
  403734:	48 89 7d 98          	mov    %rdi,-0x68(%rbp)
  403738:	48 89 75 90          	mov    %rsi,-0x70(%rbp)
  40373c:	48 89 55 88          	mov    %rdx,-0x78(%rbp)
  403740:	48 8b 7d 98          	mov    -0x68(%rbp),%rdi
  403744:	e8 73 57 00 00       	callq  408ebc <_D9invariant12_d_invariantFC6ObjectZv>
    {
	ushort[] s1 = *cast(ushort[]*)p1;
  403749:	48 8b 55 90          	mov    -0x70(%rbp),%rdx
  40374d:	48 8b 02             	mov    (%rdx),%rax
  403750:	48 89 45 a0          	mov    %rax,-0x60(%rbp)
  403754:	48 8b 42 08          	mov    0x8(%rdx),%rax
  403758:	48 89 45 a8          	mov    %rax,-0x58(%rbp)
	ushort[] s2 = *cast(ushort[]*)p2;
  40375c:	48 8b 55 88          	mov    -0x78(%rbp),%rdx
  403760:	48 8b 02             	mov    (%rdx),%rax
  403763:	48 89 45 b0          	mov    %rax,-0x50(%rbp)
  403767:	48 8b 42 08          	mov    0x8(%rdx),%rax
  40376b:	48 89 45 b8          	mov    %rax,-0x48(%rbp)
	size_t len = s1.length;
  40376f:	48 8b 45 a0          	mov    -0x60(%rbp),%rax
  403773:	48 89 45 e8          	mov    %rax,-0x18(%rbp)

	if (s2.length < len)
  403777:	48 8b 45 b0          	mov    -0x50(%rbp),%rax
  40377b:	48 3b 45 e8          	cmp    -0x18(%rbp),%rax
  40377f:	73 08                	jae    403789 <_D3std8typeinfo9ti_Ashort11TypeInfo_At7compareMFPvPvZi+0x60>
	    len = s2.length;
  403781:	48 8b 45 b0          	mov    -0x50(%rbp),%rax
  403785:	48 89 45 e8          	mov    %rax,-0x18(%rbp)
	for (size_t u = 0; u < len; u++)
  403789:	48 c7 45 f0 00 00 00 	movq   $0x0,-0x10(%rbp)
  403790:	00 
  403791:	48 8b 45 f0          	mov    -0x10(%rbp),%rax
  403795:	48 3b 45 e8          	cmp    -0x18(%rbp),%rax
  403799:	0f 92 c0             	setb   %al
  40379c:	83 f0 01             	xor    $0x1,%eax
  40379f:	84 c0                	test   %al,%al
  4037a1:	0f 85 e0 00 00 00    	jne    403887 <_D3std8typeinfo9ti_Ashort11TypeInfo_At7compareMFPvPvZi+0x15e>
	{
	    int result = s1[u] - s2[u];
  4037a7:	48 8b 45 a8          	mov    -0x58(%rbp),%rax
  4037ab:	48 89 85 58 ff ff ff 	mov    %rax,-0xa8(%rbp)
  4037b2:	48 8b 45 a0          	mov    -0x60(%rbp),%rax
  4037b6:	48 39 45 f0          	cmp    %rax,-0x10(%rbp)
  4037ba:	73 0d                	jae    4037c9 <_D3std8typeinfo9ti_Ashort11TypeInfo_At7compareMFPvPvZi+0xa0>
  4037bc:	48 8b 55 f0          	mov    -0x10(%rbp),%rdx
  4037c0:	48 89 95 60 ff ff ff 	mov    %rdx,-0xa0(%rbp)
  4037c7:	eb 22                	jmp    4037eb <_D3std8typeinfo9ti_Ashort11TypeInfo_At7compareMFPvPvZi+0xc2>
  4037c9:	48 c7 45 c0 18 00 00 	movq   $0x18,-0x40(%rbp)
  4037d0:	00 
  4037d1:	48 c7 45 c8 68 fe 40 	movq   $0x40fe68,-0x38(%rbp)
  4037d8:	00 
  4037d9:	48 8b 7d c0          	mov    -0x40(%rbp),%rdi
  4037dd:	48 8b 75 c8          	mov    -0x38(%rbp),%rsi
  4037e1:	ba 69 00 00 00       	mov    $0x69,%edx
  4037e6:	e8 9a 71 00 00       	callq  40a985 <_d_array_bounds>
  4037eb:	48 8b 85 60 ff ff ff 	mov    -0xa0(%rbp),%rax
  4037f2:	48 01 c0             	add    %rax,%rax
  4037f5:	48 03 85 58 ff ff ff 	add    -0xa8(%rbp),%rax
  4037fc:	0f b7 00             	movzwl (%rax),%eax
  4037ff:	0f b7 c0             	movzwl %ax,%eax
  403802:	89 85 6c ff ff ff    	mov    %eax,-0x94(%rbp)
  403808:	48 8b 45 b8          	mov    -0x48(%rbp),%rax
  40380c:	48 89 85 70 ff ff ff 	mov    %rax,-0x90(%rbp)
  403813:	48 8b 45 b0          	mov    -0x50(%rbp),%rax
  403817:	48 39 45 f0          	cmp    %rax,-0x10(%rbp)
  40381b:	73 0d                	jae    40382a <_D3std8typeinfo9ti_Ashort11TypeInfo_At7compareMFPvPvZi+0x101>
  40381d:	48 8b 55 f0          	mov    -0x10(%rbp),%rdx
  403821:	48 89 95 78 ff ff ff 	mov    %rdx,-0x88(%rbp)
  403828:	eb 22                	jmp    40384c <_D3std8typeinfo9ti_Ashort11TypeInfo_At7compareMFPvPvZi+0x123>
  40382a:	48 c7 45 d0 18 00 00 	movq   $0x18,-0x30(%rbp)
  403831:	00 
  403832:	48 c7 45 d8 68 fe 40 	movq   $0x40fe68,-0x28(%rbp)
  403839:	00 
  40383a:	48 8b 7d d0          	mov    -0x30(%rbp),%rdi
  40383e:	48 8b 75 d8          	mov    -0x28(%rbp),%rsi
  403842:	ba 69 00 00 00       	mov    $0x69,%edx
  403847:	e8 39 71 00 00       	callq  40a985 <_d_array_bounds>
  40384c:	48 8b 85 78 ff ff ff 	mov    -0x88(%rbp),%rax
  403853:	48 01 c0             	add    %rax,%rax
  403856:	48 03 85 70 ff ff ff 	add    -0x90(%rbp),%rax
  40385d:	0f b7 00             	movzwl (%rax),%eax
  403860:	0f b7 c0             	movzwl %ax,%eax
  403863:	8b 95 6c ff ff ff    	mov    -0x94(%rbp),%edx
  403869:	29 c2                	sub    %eax,%edx
  40386b:	89 d0                	mov    %edx,%eax
  40386d:	89 45 fc             	mov    %eax,-0x4(%rbp)
	    if (result)
  403870:	83 7d fc 00          	cmpl   $0x0,-0x4(%rbp)
  403874:	74 08                	je     40387e <_D3std8typeinfo9ti_Ashort11TypeInfo_At7compareMFPvPvZi+0x155>
		return result;
  403876:	8b 45 fc             	mov    -0x4(%rbp),%eax
  403879:	89 45 84             	mov    %eax,-0x7c(%rbp)
  40387c:	eb 3c                	jmp    4038ba <_D3std8typeinfo9ti_Ashort11TypeInfo_At7compareMFPvPvZi+0x191>
	if (s2.length < len)
	    len = s2.length;
	for (size_t u = 0; u < len; u++)
	{
	    int result = s1[u] - s2[u];
	    if (result)
  40387e:	48 ff 45 f0          	incq   -0x10(%rbp)
  403882:	e9 0a ff ff ff       	jmpq   403791 <_D3std8typeinfo9ti_Ashort11TypeInfo_At7compareMFPvPvZi+0x68>
		return result;
	}
	if (s1.length < s2.length)
  403887:	48 8b 55 a0          	mov    -0x60(%rbp),%rdx
  40388b:	48 8b 45 b0          	mov    -0x50(%rbp),%rax
  40388f:	48 39 c2             	cmp    %rax,%rdx
  403892:	73 09                	jae    40389d <_D3std8typeinfo9ti_Ashort11TypeInfo_At7compareMFPvPvZi+0x174>
	    return -1;
  403894:	c7 45 84 ff ff ff ff 	movl   $0xffffffff,-0x7c(%rbp)
  40389b:	eb 1d                	jmp    4038ba <_D3std8typeinfo9ti_Ashort11TypeInfo_At7compareMFPvPvZi+0x191>
	else if (s1.length > s2.length)
  40389d:	48 8b 55 a0          	mov    -0x60(%rbp),%rdx
  4038a1:	48 8b 45 b0          	mov    -0x50(%rbp),%rax
  4038a5:	48 39 c2             	cmp    %rax,%rdx
  4038a8:	76 09                	jbe    4038b3 <_D3std8typeinfo9ti_Ashort11TypeInfo_At7compareMFPvPvZi+0x18a>
	    return 1;
  4038aa:	c7 45 84 01 00 00 00 	movl   $0x1,-0x7c(%rbp)
  4038b1:	eb 07                	jmp    4038ba <_D3std8typeinfo9ti_Ashort11TypeInfo_At7compareMFPvPvZi+0x191>
	return 0;
  4038b3:	c7 45 84 00 00 00 00 	movl   $0x0,-0x7c(%rbp)
  4038ba:	8b 45 84             	mov    -0x7c(%rbp),%eax
    }
  4038bd:	c9                   	leaveq 
  4038be:	c3                   	retq   

00000000004038bf <_D3std8typeinfo9ti_Ashort11TypeInfo_At4nextMFZC8TypeInfo>:

    TypeInfo next()
  4038bf:	55                   	push   %rbp
  4038c0:	48 89 e5             	mov    %rsp,%rbp
  4038c3:	48 83 ec 10          	sub    $0x10,%rsp
  4038c7:	48 89 7d f8          	mov    %rdi,-0x8(%rbp)
  4038cb:	48 8b 7d f8          	mov    -0x8(%rbp),%rdi
  4038cf:	e8 e8 55 00 00       	callq  408ebc <_D9invariant12_d_invariantFC6ObjectZv>
    {
	return typeid(ushort);
  4038d4:	48 c7 c0 90 10 41 00 	mov    $0x411090,%rax
    }
  4038db:	c9                   	leaveq 
  4038dc:	c3                   	retq   

00000000004038dd <_D3std8typeinfo9ti_Ashort11TypeInfo_Au8toStringMFZAa>:

// wchar[]

class TypeInfo_Au : TypeInfo_At
{
    char[] toString() { return "wchar[]"; }
  4038dd:	55                   	push   %rbp
  4038de:	48 89 e5             	mov    %rsp,%rbp
  4038e1:	53                   	push   %rbx
  4038e2:	48 83 ec 08          	sub    $0x8,%rsp
  4038e6:	48 89 fb             	mov    %rdi,%rbx
  4038e9:	48 89 75 f0          	mov    %rsi,-0x10(%rbp)
  4038ed:	48 8b 7d f0          	mov    -0x10(%rbp),%rdi
  4038f1:	e8 c6 55 00 00       	callq  408ebc <_D9invariant12_d_invariantFC6ObjectZv>
  4038f6:	48 c7 03 07 00 00 00 	movq   $0x7,(%rbx)
  4038fd:	48 c7 43 08 d0 ff 40 	movq   $0x40ffd0,0x8(%rbx)
  403904:	00 
  403905:	48 89 d8             	mov    %rbx,%rax
  403908:	48 83 c4 08          	add    $0x8,%rsp
  40390c:	5b                   	pop    %rbx
  40390d:	c9                   	leaveq 
  40390e:	c3                   	retq   

000000000040390f <_D3std8typeinfo9ti_Ashort11TypeInfo_Au4nextMFZC8TypeInfo>:

    TypeInfo next()
  40390f:	55                   	push   %rbp
  403910:	48 89 e5             	mov    %rsp,%rbp
  403913:	48 83 ec 10          	sub    $0x10,%rsp
  403917:	48 89 7d f8          	mov    %rdi,-0x8(%rbp)
  40391b:	48 8b 7d f8          	mov    -0x8(%rbp),%rdi
  40391f:	e8 98 55 00 00       	callq  408ebc <_D9invariant12_d_invariantFC6ObjectZv>
    {
	return typeid(wchar);
  403924:	48 c7 c0 10 12 41 00 	mov    $0x411210,%rax
    }
  40392b:	c9                   	leaveq 
  40392c:	c3                   	retq   
  40392d:	90                   	nop    
  40392e:	90                   	nop    
  40392f:	90                   	nop    

0000000000403930 <_D3std8typeinfo7ti_byte10TypeInfo_g8toStringMFZAa>:

module std.typeinfo.ti_byte;

class TypeInfo_g : TypeInfo
{
    char[] toString() { return "byte"; }
  403930:	55                   	push   %rbp
  403931:	48 89 e5             	mov    %rsp,%rbp
  403934:	53                   	push   %rbx
  403935:	48 83 ec 08          	sub    $0x8,%rsp
  403939:	48 89 fb             	mov    %rdi,%rbx
  40393c:	48 89 75 f0          	mov    %rsi,-0x10(%rbp)
  403940:	48 8b 7d f0          	mov    -0x10(%rbp),%rdi
  403944:	e8 73 55 00 00       	callq  408ebc <_D9invariant12_d_invariantFC6ObjectZv>
  403949:	48 c7 03 04 00 00 00 	movq   $0x4,(%rbx)
  403950:	48 c7 43 08 80 00 41 	movq   $0x410080,0x8(%rbx)
  403957:	00 
  403958:	48 89 d8             	mov    %rbx,%rax
  40395b:	48 83 c4 08          	add    $0x8,%rsp
  40395f:	5b                   	pop    %rbx
  403960:	c9                   	leaveq 
  403961:	c3                   	retq   

0000000000403962 <_D3std8typeinfo7ti_byte10TypeInfo_g7getHashMFPvZm>:

    hash_t getHash(void *p)
  403962:	55                   	push   %rbp
  403963:	48 89 e5             	mov    %rsp,%rbp
  403966:	48 83 ec 10          	sub    $0x10,%rsp
  40396a:	48 89 7d f8          	mov    %rdi,-0x8(%rbp)
  40396e:	48 89 75 f0          	mov    %rsi,-0x10(%rbp)
  403972:	48 8b 7d f8          	mov    -0x8(%rbp),%rdi
  403976:	e8 41 55 00 00       	callq  408ebc <_D9invariant12_d_invariantFC6ObjectZv>
    {
	return *cast(byte *)p;
  40397b:	48 8b 45 f0          	mov    -0x10(%rbp),%rax
  40397f:	0f b6 00             	movzbl (%rax),%eax
  403982:	48 0f be c0          	movsbq %al,%rax
    }
  403986:	c9                   	leaveq 
  403987:	c3                   	retq   

0000000000403988 <_D3std8typeinfo7ti_byte10TypeInfo_g6equalsMFPvPvZi>:

    int equals(void *p1, void *p2)
  403988:	55                   	push   %rbp
  403989:	48 89 e5             	mov    %rsp,%rbp
  40398c:	48 83 ec 20          	sub    $0x20,%rsp
  403990:	48 89 7d f8          	mov    %rdi,-0x8(%rbp)
  403994:	48 89 75 f0          	mov    %rsi,-0x10(%rbp)
  403998:	48 89 55 e8          	mov    %rdx,-0x18(%rbp)
  40399c:	48 8b 7d f8          	mov    -0x8(%rbp),%rdi
  4039a0:	e8 17 55 00 00       	callq  408ebc <_D9invariant12_d_invariantFC6ObjectZv>
    {
	return *cast(byte *)p1 == *cast(byte *)p2;
  4039a5:	48 8b 45 f0          	mov    -0x10(%rbp),%rax
  4039a9:	0f b6 10             	movzbl (%rax),%edx
  4039ac:	48 8b 45 e8          	mov    -0x18(%rbp),%rax
  4039b0:	0f b6 00             	movzbl (%rax),%eax
  4039b3:	38 c2                	cmp    %al,%dl
  4039b5:	0f 94 c0             	sete   %al
  4039b8:	0f b6 c0             	movzbl %al,%eax
    }
  4039bb:	c9                   	leaveq 
  4039bc:	c3                   	retq   

00000000004039bd <_D3std8typeinfo7ti_byte10TypeInfo_g7compareMFPvPvZi>:

    int compare(void *p1, void *p2)
  4039bd:	55                   	push   %rbp
  4039be:	48 89 e5             	mov    %rsp,%rbp
  4039c1:	48 83 ec 20          	sub    $0x20,%rsp
  4039c5:	48 89 7d f8          	mov    %rdi,-0x8(%rbp)
  4039c9:	48 89 75 f0          	mov    %rsi,-0x10(%rbp)
  4039cd:	48 89 55 e8          	mov    %rdx,-0x18(%rbp)
  4039d1:	48 8b 7d f8          	mov    -0x8(%rbp),%rdi
  4039d5:	e8 e2 54 00 00       	callq  408ebc <_D9invariant12_d_invariantFC6ObjectZv>
    {
	return *cast(byte *)p1 - *cast(byte *)p2;
  4039da:	48 8b 45 f0          	mov    -0x10(%rbp),%rax
  4039de:	0f b6 00             	movzbl (%rax),%eax
  4039e1:	0f be d0             	movsbl %al,%edx
  4039e4:	48 8b 45 e8          	mov    -0x18(%rbp),%rax
  4039e8:	0f b6 00             	movzbl (%rax),%eax
  4039eb:	0f be c0             	movsbl %al,%eax
  4039ee:	89 d1                	mov    %edx,%ecx
  4039f0:	29 c1                	sub    %eax,%ecx
