
application/xsh:     file format elf64-x86-64

Disassembly of section .text:

0000000000400078 <_Dmain>:
import libos.console;

char[] prompt = "$> ";
bool intfic = false;

int main() {
  400078:	55                   	push   %rbp
  400079:	48 89 e5             	mov    %rsp,%rbp
  40007c:	48 81 ec 50 03 00 00 	sub    $0x350,%rsp

  // init the keyboard libOS
  Keyboard.init();
  400083:	e8 38 ec 00 00       	callq  40ecc0 <_D5libos8keyboard8Keyboard4initFZv>
  Console.init();
  400088:	e8 5b ef 00 00       	callq  40efe8 <_D5libos7console7Console4initFZv>

  //Console.clear();
  Console.setColors(Color.White, Color.Black);
  40008d:	be 00 00 00 00       	mov    $0x0,%esi
  400092:	bf 0f 00 00 00       	mov    $0xf,%edi
  400097:	e8 f7 f0 00 00       	callq  40f193 <_D5libos7console7Console9setColorsFE5libos7console5ColorE5libos7console5ColorZv>

  // print the initial text
  Console.printString("xsh: XOmB shell\n\n");
  40009c:	48 c7 85 e0 fe ff ff 	movq   $0x11,-0x120(%rbp)
  4000a3:	11 00 00 00 
  4000a7:	48 c7 85 e8 fe ff ff 	movq   $0x40f560,-0x118(%rbp)
  4000ae:	60 f5 40 00 
  4000b2:	48 8b bd e0 fe ff ff 	mov    -0x120(%rbp),%rdi
  4000b9:	48 8b b5 e8 fe ff ff 	mov    -0x118(%rbp),%rsi
  4000c0:	e8 3c f0 00 00       	callq  40f101 <_D5libos7console7Console11printStringFAaZv>

  // print the prompt
  print(prompt);
  4000c5:	48 8b 15 bc 9c 01 00 	mov    0x19cbc(%rip),%rdx        # 419d88 <_D11application3xsh6promptAa+0x8>
  4000cc:	48 8b 35 ad 9c 01 00 	mov    0x19cad(%rip),%rsi        # 419d80 <_D11application3xsh6promptAa>
  4000d3:	48 c7 c7 a0 9d 41 00 	mov    $0x419da0,%rdi
  4000da:	b8 00 00 00 00       	mov    $0x0,%eax
  4000df:	e8 88 e1 00 00       	callq  40e26c <_D4user7basicio5printFYv>

  // for grabing the key
  short keyCode;
  4000e4:	66 c7 45 d6 00 00    	movw   $0x0,-0x2a(%rbp)
  char key;
  4000ea:	c6 45 d5 ff          	movb   $0xff,-0x2b(%rbp)

  char[1] echoStr;
  4000ee:	48 c7 85 f0 fe ff ff 	movq   $0x1,-0x110(%rbp)
  4000f5:	01 00 00 00 
  4000f9:	48 8d 85 df fe ff ff 	lea    -0x121(%rbp),%rax
  400100:	48 89 85 f8 fe ff ff 	mov    %rax,-0x108(%rbp)
  400107:	48 8b 85 f0 fe ff ff 	mov    -0x110(%rbp),%rax
  40010e:	48 89 45 e0          	mov    %rax,-0x20(%rbp)
  400112:	48 8b 85 f8 fe ff ff 	mov    -0x108(%rbp),%rax
  400119:	48 89 45 d8          	mov    %rax,-0x28(%rbp)
  40011d:	48 83 7d e0 00       	cmpq   $0x0,-0x20(%rbp)
  400122:	0f 95 c0             	setne  %al
  400125:	83 f0 01             	xor    $0x1,%eax
  400128:	84 c0                	test   %al,%al
  40012a:	75 11                	jne    40013d <_Dmain+0xc5>
  40012c:	48 8b 45 d8          	mov    -0x28(%rbp),%rax
  400130:	c6 00 ff             	movb   $0xff,(%rax)
  400133:	48 ff 45 d8          	incq   -0x28(%rbp)
  400137:	48 ff 4d e0          	decq   -0x20(%rbp)
  40013b:	eb e0                	jmp    40011d <_Dmain+0xa5>

  char[512] lineBuffer;
  40013d:	48 c7 85 00 ff ff ff 	movq   $0x200,-0x100(%rbp)
  400144:	00 02 00 00 
  400148:	48 8d 85 d0 fc ff ff 	lea    -0x330(%rbp),%rax
  40014f:	48 89 85 08 ff ff ff 	mov    %rax,-0xf8(%rbp)
  400156:	48 8b 85 00 ff ff ff 	mov    -0x100(%rbp),%rax
  40015d:	48 89 45 f0          	mov    %rax,-0x10(%rbp)
  400161:	48 8b 85 08 ff ff ff 	mov    -0xf8(%rbp),%rax
  400168:	48 89 45 e8          	mov    %rax,-0x18(%rbp)
  40016c:	48 83 7d f0 00       	cmpq   $0x0,-0x10(%rbp)
  400171:	0f 95 c0             	setne  %al
  400174:	83 f0 01             	xor    $0x1,%eax
  400177:	84 c0                	test   %al,%al
  400179:	75 11                	jne    40018c <_Dmain+0x114>
  40017b:	48 8b 45 e8          	mov    -0x18(%rbp),%rax
  40017f:	c6 00 ff             	movb   $0xff,(%rax)
  400182:	48 ff 45 e8          	incq   -0x18(%rbp)
  400186:	48 ff 4d f0          	decq   -0x10(%rbp)
  40018a:	eb e0                	jmp    40016c <_Dmain+0xf4>
  int lineBufferPos = 0;
  40018c:	c7 45 d0 00 00 00 00 	movl   $0x0,-0x30(%rbp)

  void* buff;
  400193:	48 c7 45 c8 00 00 00 	movq   $0x0,-0x38(%rbp)
  40019a:	00 
  40019b:	eb 00                	jmp    40019d <_Dmain+0x125>

  while(true) {
  40019d:	b8 00 00 00 00       	mov    $0x0,%eax
  4001a2:	84 c0                	test   %al,%al
  4001a4:	0f 85 a9 03 00 00    	jne    400553 <_Dmain+0x4db>
    keyCode = Keyboard.grabKey();
  4001aa:	e8 50 eb 00 00       	callq  40ecff <_D5libos8keyboard8Keyboard7grabKeyFZs>
  4001af:	66 89 45 d6          	mov    %ax,-0x2a(%rbp)

    if(keyCode != Key.Null)
  4001b3:	0f bf 45 d6          	movswl -0x2a(%rbp),%eax
  4001b7:	85 c0                	test   %eax,%eax
  4001b9:	74 e2                	je     40019d <_Dmain+0x125>
    {
      key = Keyboard.translateCode(keyCode);
  4001bb:	0f bf 7d d6          	movswl -0x2a(%rbp),%edi
  4001bf:	e8 7b ec 00 00       	callq  40ee3f <_D5libos8keyboard8Keyboard13translateCodeFsZa>
  4001c4:	88 45 d5             	mov    %al,-0x2b(%rbp)

      if (key != '\0')
  4001c7:	0f b6 45 d5          	movzbl -0x2b(%rbp),%eax
  4001cb:	85 c0                	test   %eax,%eax
  4001cd:	74 ce                	je     40019d <_Dmain+0x125>
      {
        // echo the character (should allow this to be turned off by forked apps)
        echoStr[0] = key;
  4001cf:	b8 00 00 00 00       	mov    $0x0,%eax
  4001d4:	48 89 c2             	mov    %rax,%rdx
  4001d7:	48 8d 85 df fe ff ff 	lea    -0x121(%rbp),%rax
  4001de:	48 01 d0             	add    %rdx,%rax
  4001e1:	0f b6 55 d5          	movzbl -0x2b(%rbp),%edx
  4001e5:	88 10                	mov    %dl,(%rax)
        print(echoStr);
  4001e7:	48 c7 85 10 ff ff ff 	movq   $0x1,-0xf0(%rbp)
  4001ee:	01 00 00 00 
  4001f2:	48 8d 85 df fe ff ff 	lea    -0x121(%rbp),%rax
  4001f9:	48 89 85 18 ff ff ff 	mov    %rax,-0xe8(%rbp)
  400200:	48 8b 95 18 ff ff ff 	mov    -0xe8(%rbp),%rdx
  400207:	48 8b b5 10 ff ff ff 	mov    -0xf0(%rbp),%rsi
  40020e:	48 c7 c7 a0 9d 41 00 	mov    $0x419da0,%rdi
  400215:	b8 00 00 00 00       	mov    $0x0,%eax
  40021a:	e8 4d e0 00 00       	callq  40e26c <_D4user7basicio5printFYv>

        if (key == '\n')
  40021f:	0f b6 45 d5          	movzbl -0x2b(%rbp),%eax
  400223:	83 f8 0a             	cmp    $0xa,%eax
  400226:	0f 85 a1 02 00 00    	jne    4004cd <_Dmain+0x455>
        {
          // interpret line
          if (lineBufferPos > 0)
  40022c:	83 7d d0 00          	cmpl   $0x0,-0x30(%rbp)
  400230:	0f 8e 6c 02 00 00    	jle    4004a2 <_Dmain+0x42a>
                print(ret);
                print("\n");
                break;
              default:
              print("Error: Unknown Command\n");
              break;
  400236:	8b 45 d0             	mov    -0x30(%rbp),%eax
  400239:	48 98                	cltq   
  40023b:	48 3d 00 02 00 00    	cmp    $0x200,%rax
  400241:	77 0e                	ja     400251 <_Dmain+0x1d9>
  400243:	8b 45 d0             	mov    -0x30(%rbp),%eax
  400246:	48 98                	cltq   
  400248:	48 89 85 b0 fc ff ff 	mov    %rax,-0x350(%rbp)
  40024f:	eb 2e                	jmp    40027f <_Dmain+0x207>
  400251:	48 c7 85 30 ff ff ff 	movq   $0x11,-0xd0(%rbp)
  400258:	11 00 00 00 
  40025c:	48 c7 85 38 ff ff ff 	movq   $0x40f572,-0xc8(%rbp)
  400263:	72 f5 40 00 
  400267:	48 8b bd 30 ff ff ff 	mov    -0xd0(%rbp),%rdi
  40026e:	48 8b b5 38 ff ff ff 	mov    -0xc8(%rbp),%rsi
  400275:	ba 3a 00 00 00       	mov    $0x3a,%edx
  40027a:	e8 c6 ab 00 00       	callq  40ae45 <_d_array_bounds>
  40027f:	48 8b 85 b0 fc ff ff 	mov    -0x350(%rbp),%rax
  400286:	48 89 85 20 ff ff ff 	mov    %rax,-0xe0(%rbp)
  40028d:	48 8d 85 d0 fc ff ff 	lea    -0x330(%rbp),%rax
  400294:	48 89 85 28 ff ff ff 	mov    %rax,-0xd8(%rbp)
  40029b:	48 c7 85 40 ff ff ff 	movq   $0x6,-0xc0(%rbp)
  4002a2:	06 00 00 00 
  4002a6:	48 c7 85 48 ff ff ff 	movq   $0x40f500,-0xb8(%rbp)
  4002ad:	00 f5 40 00 
  4002b1:	48 8b 95 20 ff ff ff 	mov    -0xe0(%rbp),%rdx
  4002b8:	48 8b 8d 28 ff ff ff 	mov    -0xd8(%rbp),%rcx
  4002bf:	48 8b bd 40 ff ff ff 	mov    -0xc0(%rbp),%rdi
  4002c6:	48 8b b5 48 ff ff ff 	mov    -0xb8(%rbp),%rsi
  4002cd:	e8 42 99 00 00       	callq  409c14 <_d_switch_string>
  4002d2:	89 85 bc fc ff ff    	mov    %eax,-0x344(%rbp)
  4002d8:	83 bd bc fc ff ff 05 	cmpl   $0x5,-0x344(%rbp)
  4002df:	0f 87 94 01 00 00    	ja     400479 <_Dmain+0x401>
  4002e5:	8b 85 bc fc ff ff    	mov    -0x344(%rbp),%eax
  4002eb:	48 8b 04 c5 c8 f5 40 	mov    0x40f5c8(,%rax,8),%rax
  4002f2:	00 
  4002f3:	ff e0                	jmpq   *%rax
          if (lineBufferPos > 0)
          {
            switch (lineBuffer[0..lineBufferPos])
            {
              case "free":
                free(buff);
  4002f5:	48 8b 7d c8          	mov    -0x38(%rbp),%rdi
  4002f9:	e8 35 df 00 00       	callq  40e233 <_D6malloc4freeFPvZv>
                break;
  4002fe:	e9 9f 01 00 00       	jmpq   4004a2 <_Dmain+0x42a>
              case "malloc":
                buff = malloc(100);
  400303:	bf 64 00 00 00       	mov    $0x64,%edi
  400308:	e8 af dd 00 00       	callq  40e0bc <_D6malloc6mallocFmZPv>
  40030d:	48 89 45 c8          	mov    %rax,-0x38(%rbp)
                break;
  400311:	e9 8c 01 00 00       	jmpq   4004a2 <_Dmain+0x42a>
              case "yield":
                yield();
  400316:	e8 2d d8 00 00       	callq  40db48 <_D4user7syscall5yieldFZv>
                break;
  40031b:	e9 82 01 00 00       	jmpq   4004a2 <_Dmain+0x42a>
              case "intfic":
                if(!intfic) {
  400320:	0f b6 05 59 d4 01 00 	movzbl 0x1d459(%rip),%eax        # 41d780 <_D11application3xsh6intficb>
  400327:	83 f0 01             	xor    $0x1,%eax
  40032a:	84 c0                	test   %al,%al
  40032c:	74 16                	je     400344 <_Dmain+0x2cc>
                  makeEnvironment(1); // 1 is intfic
  40032e:	bf 01 00 00 00       	mov    $0x1,%edi
  400333:	e8 b6 d9 00 00       	callq  40dcee <_D4user7syscall15makeEnvironmentFiZv>
                  intfic = true;
  400338:	c6 05 41 d4 01 00 01 	movb   $0x1,0x1d441(%rip)        # 41d780 <_D11application3xsh6intficb>
  40033f:	e9 5e 01 00 00       	jmpq   4004a2 <_Dmain+0x42a>
                } else {
                  print("You've already scheduled it!\n");
  400344:	48 c7 85 50 ff ff ff 	movq   $0x1d,-0xb0(%rbp)
  40034b:	1d 00 00 00 
  40034f:	48 c7 85 58 ff ff ff 	movq   $0x40f584,-0xa8(%rbp)
  400356:	84 f5 40 00 
  40035a:	48 8b 95 58 ff ff ff 	mov    -0xa8(%rbp),%rdx
  400361:	48 8b b5 50 ff ff ff 	mov    -0xb0(%rbp),%rsi
  400368:	48 c7 c7 a0 9d 41 00 	mov    $0x419da0,%rdi
  40036f:	b8 00 00 00 00       	mov    $0x0,%eax
  400374:	e8 f3 de 00 00       	callq  40e26c <_D4user7basicio5printFYv>
                }
                break;
  400379:	e9 24 01 00 00       	jmpq   4004a2 <_Dmain+0x42a>
              case "fork":
                int ret = fork();
  40037e:	e8 a9 d9 00 00       	callq  40dd2c <_D4user7syscall4forkFZi>
  400383:	89 45 f8             	mov    %eax,-0x8(%rbp)
                print("ret was");
  400386:	48 c7 85 60 ff ff ff 	movq   $0x7,-0xa0(%rbp)
  40038d:	07 00 00 00 
  400391:	48 c7 85 68 ff ff ff 	movq   $0x40f5a2,-0x98(%rbp)
  400398:	a2 f5 40 00 
  40039c:	48 8b 95 68 ff ff ff 	mov    -0x98(%rbp),%rdx
  4003a3:	48 8b b5 60 ff ff ff 	mov    -0xa0(%rbp),%rsi
  4003aa:	48 c7 c7 a0 9d 41 00 	mov    $0x419da0,%rdi
  4003b1:	b8 00 00 00 00       	mov    $0x0,%eax
  4003b6:	e8 b1 de 00 00       	callq  40e26c <_D4user7basicio5printFYv>
                print(ret);
  4003bb:	8b 75 f8             	mov    -0x8(%rbp),%esi
  4003be:	48 c7 c7 c0 9d 41 00 	mov    $0x419dc0,%rdi
  4003c5:	b8 00 00 00 00       	mov    $0x0,%eax
  4003ca:	e8 9d de 00 00       	callq  40e26c <_D4user7basicio5printFYv>
                print("\n");
  4003cf:	48 c7 85 70 ff ff ff 	movq   $0x1,-0x90(%rbp)
  4003d6:	01 00 00 00 
  4003da:	48 c7 85 78 ff ff ff 	movq   $0x40f5aa,-0x88(%rbp)
  4003e1:	aa f5 40 00 
  4003e5:	48 8b 95 78 ff ff ff 	mov    -0x88(%rbp),%rdx
  4003ec:	48 8b b5 70 ff ff ff 	mov    -0x90(%rbp),%rsi
  4003f3:	48 c7 c7 a0 9d 41 00 	mov    $0x419da0,%rdi
  4003fa:	b8 00 00 00 00       	mov    $0x0,%eax
  4003ff:	e8 68 de 00 00       	callq  40e26c <_D4user7basicio5printFYv>
                break;
  400404:	e9 99 00 00 00       	jmpq   4004a2 <_Dmain+0x42a>
              case "exec":
                int ret = exec();
  400409:	e8 48 d9 00 00       	callq  40dd56 <_D4user7syscall4execFZi>
  40040e:	89 45 fc             	mov    %eax,-0x4(%rbp)
                print("ret was");
  400411:	48 c7 45 80 07 00 00 	movq   $0x7,-0x80(%rbp)
  400418:	00 
  400419:	48 c7 45 88 a2 f5 40 	movq   $0x40f5a2,-0x78(%rbp)
  400420:	00 
  400421:	48 8b 55 88          	mov    -0x78(%rbp),%rdx
  400425:	48 8b 75 80          	mov    -0x80(%rbp),%rsi
  400429:	48 c7 c7 a0 9d 41 00 	mov    $0x419da0,%rdi
  400430:	b8 00 00 00 00       	mov    $0x0,%eax
  400435:	e8 32 de 00 00       	callq  40e26c <_D4user7basicio5printFYv>
                print(ret);
  40043a:	8b 75 fc             	mov    -0x4(%rbp),%esi
  40043d:	48 c7 c7 c0 9d 41 00 	mov    $0x419dc0,%rdi
  400444:	b8 00 00 00 00       	mov    $0x0,%eax
  400449:	e8 1e de 00 00       	callq  40e26c <_D4user7basicio5printFYv>
                print("\n");
  40044e:	48 c7 45 90 01 00 00 	movq   $0x1,-0x70(%rbp)
  400455:	00 
  400456:	48 c7 45 98 aa f5 40 	movq   $0x40f5aa,-0x68(%rbp)
  40045d:	00 
  40045e:	48 8b 55 98          	mov    -0x68(%rbp),%rdx
  400462:	48 8b 75 90          	mov    -0x70(%rbp),%rsi
  400466:	48 c7 c7 a0 9d 41 00 	mov    $0x419da0,%rdi
  40046d:	b8 00 00 00 00       	mov    $0x0,%eax
  400472:	e8 f5 dd 00 00       	callq  40e26c <_D4user7basicio5printFYv>
                break;
  400477:	eb 29                	jmp    4004a2 <_Dmain+0x42a>
              default:
              print("Error: Unknown Command\n");
  400479:	48 c7 45 a0 17 00 00 	movq   $0x17,-0x60(%rbp)
  400480:	00 
  400481:	48 c7 45 a8 ac f5 40 	movq   $0x40f5ac,-0x58(%rbp)
  400488:	00 
  400489:	48 8b 55 a8          	mov    -0x58(%rbp),%rdx
  40048d:	48 8b 75 a0          	mov    -0x60(%rbp),%rsi
  400491:	48 c7 c7 a0 9d 41 00 	mov    $0x419da0,%rdi
  400498:	b8 00 00 00 00       	mov    $0x0,%eax
  40049d:	e8 ca dd 00 00       	callq  40e26c <_D4user7basicio5printFYv>
              break;
            }
          }

          lineBufferPos = 0;
  4004a2:	c7 45 d0 00 00 00 00 	movl   $0x0,-0x30(%rbp)

          // echo next line
          print(prompt);
  4004a9:	48 8b 15 d8 98 01 00 	mov    0x198d8(%rip),%rdx        # 419d88 <_D11application3xsh6promptAa+0x8>
  4004b0:	48 8b 35 c9 98 01 00 	mov    0x198c9(%rip),%rsi        # 419d80 <_D11application3xsh6promptAa>
  4004b7:	48 c7 c7 a0 9d 41 00 	mov    $0x419da0,%rdi
  4004be:	b8 00 00 00 00       	mov    $0x0,%eax
  4004c3:	e8 a4 dd 00 00       	callq  40e26c <_D4user7basicio5printFYv>
  4004c8:	e9 d0 fc ff ff       	jmpq   40019d <_Dmain+0x125>
        }
        else
        {
          // add to the line buffer
          // note, if we go over the max, the line will be misinterpreted
          lineBuffer[lineBufferPos++] = key;
  4004cd:	8b 45 d0             	mov    -0x30(%rbp),%eax
  4004d0:	48 98                	cltq   
  4004d2:	48 89 85 c8 fc ff ff 	mov    %rax,-0x338(%rbp)
  4004d9:	48 81 bd c8 fc ff ff 	cmpq   $0x1ff,-0x338(%rbp)
  4004e0:	ff 01 00 00 
  4004e4:	0f 96 c0             	setbe  %al
  4004e7:	ff 45 d0             	incl   -0x30(%rbp)
  4004ea:	84 c0                	test   %al,%al
  4004ec:	74 10                	je     4004fe <_Dmain+0x486>
  4004ee:	48 8b 85 c8 fc ff ff 	mov    -0x338(%rbp),%rax
  4004f5:	48 89 85 c0 fc ff ff 	mov    %rax,-0x340(%rbp)
  4004fc:	eb 22                	jmp    400520 <_Dmain+0x4a8>
  4004fe:	48 c7 45 b0 11 00 00 	movq   $0x11,-0x50(%rbp)
  400505:	00 
  400506:	48 c7 45 b8 72 f5 40 	movq   $0x40f572,-0x48(%rbp)
  40050d:	00 
  40050e:	48 8b 7d b0          	mov    -0x50(%rbp),%rdi
  400512:	48 8b 75 b8          	mov    -0x48(%rbp),%rsi
  400516:	ba 68 00 00 00       	mov    $0x68,%edx
  40051b:	e8 25 a9 00 00       	callq  40ae45 <_d_array_bounds>
  400520:	48 8b 85 c0 fc ff ff 	mov    -0x340(%rbp),%rax
  400527:	48 89 c2             	mov    %rax,%rdx
  40052a:	48 8d 85 d0 fc ff ff 	lea    -0x330(%rbp),%rax
  400531:	48 01 d0             	add    %rdx,%rax
  400534:	0f b6 55 d5          	movzbl -0x2b(%rbp),%edx
  400538:	88 10                	mov    %dl,(%rax)
          if (lineBufferPos == lineBuffer.length) { lineBufferPos--; }
  40053a:	8b 45 d0             	mov    -0x30(%rbp),%eax
  40053d:	48 98                	cltq   
  40053f:	48 3d 00 02 00 00    	cmp    $0x200,%rax
  400545:	0f 85 52 fc ff ff    	jne    40019d <_Dmain+0x125>
  40054b:	ff 4d d0             	decl   -0x30(%rbp)
  void* buff;

  while(true) {
    keyCode = Keyboard.grabKey();

    if(keyCode != Key.Null)
  40054e:	e9 4a fc ff ff       	jmpq   40019d <_Dmain+0x125>
        }
      }
    }
  }

  exit(0);
  400553:	bf 00 00 00 00       	mov    $0x0,%edi
  400558:	e8 7f d5 00 00       	callq  40dadc <_D4user7syscall4exitFlZv>

  //d is awesome
  return 0;
  40055d:	b8 00 00 00 00       	mov    $0x0,%eax
}
  400562:	c9                   	leaveq 
  400563:	c3                   	retq   

0000000000400564 <_D3std8typeinfo5ti_AC11TypeInfo_AC7getHashMFPvZm>:

// Object[]

class TypeInfo_AC : TypeInfo
{
    hash_t getHash(void *p)
  400564:	55                   	push   %rbp
  400565:	48 89 e5             	mov    %rsp,%rbp
  400568:	48 83 ec 50          	sub    $0x50,%rsp
  40056c:	48 89 7d c8          	mov    %rdi,-0x38(%rbp)
  400570:	48 89 75 c0          	mov    %rsi,-0x40(%rbp)
  400574:	48 8b 7d c8          	mov    -0x38(%rbp),%rdi
  400578:	e8 ff 8d 00 00       	callq  40937c <_D9invariant12_d_invariantFC6ObjectZv>
    {	Object[] s = *cast(Object[]*)p;
  40057d:	48 8b 55 c0          	mov    -0x40(%rbp),%rdx
  400581:	48 8b 02             	mov    (%rdx),%rax
  400584:	48 89 45 d0          	mov    %rax,-0x30(%rbp)
  400588:	48 8b 42 08          	mov    0x8(%rdx),%rax
  40058c:	48 89 45 d8          	mov    %rax,-0x28(%rbp)
	hash_t hash = 0;
  400590:	48 c7 45 e8 00 00 00 	movq   $0x0,-0x18(%rbp)
  400597:	00 

	foreach (Object o; s)
  400598:	48 8b 45 d8          	mov    -0x28(%rbp),%rax
  40059c:	48 89 45 b8          	mov    %rax,-0x48(%rbp)
  4005a0:	48 8b 45 b8          	mov    -0x48(%rbp),%rax
  4005a4:	48 89 45 f0          	mov    %rax,-0x10(%rbp)
  4005a8:	48 8b 45 d0          	mov    -0x30(%rbp),%rax
  4005ac:	48 c1 e0 03          	shl    $0x3,%rax
  4005b0:	48 03 45 b8          	add    -0x48(%rbp),%rax
  4005b4:	48 39 45 f0          	cmp    %rax,-0x10(%rbp)
  4005b8:	0f 95 c0             	setne  %al
  4005bb:	83 f0 01             	xor    $0x1,%eax
  4005be:	84 c0                	test   %al,%al
  4005c0:	75 31                	jne    4005f3 <_D3std8typeinfo5ti_AC11TypeInfo_AC7getHashMFPvZm+0x8f>
  4005c2:	48 8b 45 f0          	mov    -0x10(%rbp),%rax
  4005c6:	48 8b 00             	mov    (%rax),%rax
  4005c9:	48 89 45 f8          	mov    %rax,-0x8(%rbp)
	{
	    if (o)
  4005cd:	48 83 7d f8 00       	cmpq   $0x0,-0x8(%rbp)
  4005d2:	74 18                	je     4005ec <_D3std8typeinfo5ti_AC11TypeInfo_AC7getHashMFPvZm+0x88>
		hash += o.toHash();
  4005d4:	48 8b 45 f8          	mov    -0x8(%rbp),%rax
  4005d8:	48 8b 00             	mov    (%rax),%rax
  4005db:	48 83 c0 10          	add    $0x10,%rax
  4005df:	48 8b 00             	mov    (%rax),%rax
  4005e2:	48 8b 7d f8          	mov    -0x8(%rbp),%rdi
  4005e6:	ff d0                	callq  *%rax
  4005e8:	48 01 45 e8          	add    %rax,-0x18(%rbp)
    {	Object[] s = *cast(Object[]*)p;
	hash_t hash = 0;

	foreach (Object o; s)
	{
	    if (o)
  4005ec:	48 83 45 f0 08       	addq   $0x8,-0x10(%rbp)
  4005f1:	eb b5                	jmp    4005a8 <_D3std8typeinfo5ti_AC11TypeInfo_AC7getHashMFPvZm+0x44>
		hash += o.toHash();
	}
	return hash;
  4005f3:	48 8b 45 e8          	mov    -0x18(%rbp),%rax
    }
  4005f7:	c9                   	leaveq 
  4005f8:	c3                   	retq   

00000000004005f9 <_D3std8typeinfo5ti_AC11TypeInfo_AC6equalsMFPvPvZi>:

    int equals(void *p1, void *p2)
  4005f9:	55                   	push   %rbp
  4005fa:	48 89 e5             	mov    %rsp,%rbp
  4005fd:	48 81 ec a0 00 00 00 	sub    $0xa0,%rsp
  400604:	48 89 7d 98          	mov    %rdi,-0x68(%rbp)
  400608:	48 89 75 90          	mov    %rsi,-0x70(%rbp)
  40060c:	48 89 55 88          	mov    %rdx,-0x78(%rbp)
  400610:	48 8b 7d 98          	mov    -0x68(%rbp),%rdi
  400614:	e8 63 8d 00 00       	callq  40937c <_D9invariant12_d_invariantFC6ObjectZv>
    {
	Object[] s1 = *cast(Object[]*)p1;
  400619:	48 8b 55 90          	mov    -0x70(%rbp),%rdx
  40061d:	48 8b 02             	mov    (%rdx),%rax
  400620:	48 89 45 a0          	mov    %rax,-0x60(%rbp)
  400624:	48 8b 42 08          	mov    0x8(%rdx),%rax
  400628:	48 89 45 a8          	mov    %rax,-0x58(%rbp)
	Object[] s2 = *cast(Object[]*)p2;
  40062c:	48 8b 55 88          	mov    -0x78(%rbp),%rdx
  400630:	48 8b 02             	mov    (%rdx),%rax
  400633:	48 89 45 b0          	mov    %rax,-0x50(%rbp)
  400637:	48 8b 42 08          	mov    0x8(%rdx),%rax
  40063b:	48 89 45 b8          	mov    %rax,-0x48(%rbp)

	if (s1.length == s2.length)
  40063f:	48 8b 55 a0          	mov    -0x60(%rbp),%rdx
  400643:	48 8b 45 b0          	mov    -0x50(%rbp),%rax
  400647:	48 39 c2             	cmp    %rax,%rdx
  40064a:	0f 85 3d 01 00 00    	jne    40078d <_D3std8typeinfo5ti_AC11TypeInfo_AC6equalsMFPvPvZi+0x194>
	{
	    for (size_t u = 0; u < s1.length; u++)
  400650:	48 c7 45 e8 00 00 00 	movq   $0x0,-0x18(%rbp)
  400657:	00 
  400658:	48 8b 45 a0          	mov    -0x60(%rbp),%rax
  40065c:	48 39 45 e8          	cmp    %rax,-0x18(%rbp)
  400660:	0f 92 c0             	setb   %al
  400663:	83 f0 01             	xor    $0x1,%eax
  400666:	84 c0                	test   %al,%al
  400668:	0f 85 16 01 00 00    	jne    400784 <_D3std8typeinfo5ti_AC11TypeInfo_AC6equalsMFPvPvZi+0x18b>
	    {	Object o1 = s1[u];
  40066e:	48 8b 45 a8          	mov    -0x58(%rbp),%rax
  400672:	48 89 85 60 ff ff ff 	mov    %rax,-0xa0(%rbp)
  400679:	48 8b 45 a0          	mov    -0x60(%rbp),%rax
  40067d:	48 39 45 e8          	cmp    %rax,-0x18(%rbp)
  400681:	73 0d                	jae    400690 <_D3std8typeinfo5ti_AC11TypeInfo_AC6equalsMFPvPvZi+0x97>
  400683:	48 8b 45 e8          	mov    -0x18(%rbp),%rax
  400687:	48 89 85 68 ff ff ff 	mov    %rax,-0x98(%rbp)
  40068e:	eb 22                	jmp    4006b2 <_D3std8typeinfo5ti_AC11TypeInfo_AC6equalsMFPvPvZi+0xb9>
  400690:	48 c7 45 c0 14 00 00 	movq   $0x14,-0x40(%rbp)
  400697:	00 
  400698:	48 c7 45 c8 00 f6 40 	movq   $0x40f600,-0x38(%rbp)
  40069f:	00 
  4006a0:	48 8b 7d c0          	mov    -0x40(%rbp),%rdi
  4006a4:	48 8b 75 c8          	mov    -0x38(%rbp),%rsi
  4006a8:	ba 1b 00 00 00       	mov    $0x1b,%edx
  4006ad:	e8 93 a7 00 00       	callq  40ae45 <_d_array_bounds>
  4006b2:	48 8b 85 68 ff ff ff 	mov    -0x98(%rbp),%rax
  4006b9:	48 c1 e0 03          	shl    $0x3,%rax
  4006bd:	48 03 85 60 ff ff ff 	add    -0xa0(%rbp),%rax
  4006c4:	48 8b 00             	mov    (%rax),%rax
  4006c7:	48 89 45 f8          	mov    %rax,-0x8(%rbp)
		Object o2 = s2[u];
  4006cb:	48 8b 45 b8          	mov    -0x48(%rbp),%rax
  4006cf:	48 89 85 70 ff ff ff 	mov    %rax,-0x90(%rbp)
  4006d6:	48 8b 45 b0          	mov    -0x50(%rbp),%rax
  4006da:	48 39 45 e8          	cmp    %rax,-0x18(%rbp)
  4006de:	73 0d                	jae    4006ed <_D3std8typeinfo5ti_AC11TypeInfo_AC6equalsMFPvPvZi+0xf4>
  4006e0:	48 8b 45 e8          	mov    -0x18(%rbp),%rax
  4006e4:	48 89 85 78 ff ff ff 	mov    %rax,-0x88(%rbp)
  4006eb:	eb 22                	jmp    40070f <_D3std8typeinfo5ti_AC11TypeInfo_AC6equalsMFPvPvZi+0x116>
  4006ed:	48 c7 45 d0 14 00 00 	movq   $0x14,-0x30(%rbp)
  4006f4:	00 
  4006f5:	48 c7 45 d8 00 f6 40 	movq   $0x40f600,-0x28(%rbp)
  4006fc:	00 
  4006fd:	48 8b 7d d0          	mov    -0x30(%rbp),%rdi
  400701:	48 8b 75 d8          	mov    -0x28(%rbp),%rsi
  400705:	ba 1c 00 00 00       	mov    $0x1c,%edx
  40070a:	e8 36 a7 00 00       	callq  40ae45 <_d_array_bounds>
  40070f:	48 8b 85 78 ff ff ff 	mov    -0x88(%rbp),%rax
  400716:	48 c1 e0 03          	shl    $0x3,%rax
  40071a:	48 03 85 70 ff ff ff 	add    -0x90(%rbp),%rax
  400721:	48 8b 00             	mov    (%rax),%rax
  400724:	48 89 45 f0          	mov    %rax,-0x10(%rbp)

		// Do not pass null's to Object.opEquals()
		if (o1 is o2 ||
  400728:	48 8b 45 f8          	mov    -0x8(%rbp),%rax
  40072c:	48 3b 45 f0          	cmp    -0x10(%rbp),%rax
  400730:	74 49                	je     40077b <_D3std8typeinfo5ti_AC11TypeInfo_AC6equalsMFPvPvZi+0x182>
  400732:	48 83 7d f8 00       	cmpq   $0x0,-0x8(%rbp)
  400737:	0f 94 c0             	sete   %al
  40073a:	83 f0 01             	xor    $0x1,%eax
  40073d:	83 f0 01             	xor    $0x1,%eax
  400740:	84 c0                	test   %al,%al
  400742:	75 2e                	jne    400772 <_D3std8typeinfo5ti_AC11TypeInfo_AC6equalsMFPvPvZi+0x179>
  400744:	48 83 7d f0 00       	cmpq   $0x0,-0x10(%rbp)
  400749:	0f 94 c0             	sete   %al
  40074c:	83 f0 01             	xor    $0x1,%eax
  40074f:	83 f0 01             	xor    $0x1,%eax
  400752:	84 c0                	test   %al,%al
  400754:	75 1c                	jne    400772 <_D3std8typeinfo5ti_AC11TypeInfo_AC6equalsMFPvPvZi+0x179>
  400756:	48 8b 45 f8          	mov    -0x8(%rbp),%rax
  40075a:	48 8b 00             	mov    (%rax),%rax
  40075d:	48 83 c0 20          	add    $0x20,%rax
  400761:	48 8b 00             	mov    (%rax),%rax
  400764:	48 8b 75 f0          	mov    -0x10(%rbp),%rsi
  400768:	48 8b 7d f8          	mov    -0x8(%rbp),%rdi
  40076c:	ff d0                	callq  *%rax
  40076e:	85 c0                	test   %eax,%eax
  400770:	75 09                	jne    40077b <_D3std8typeinfo5ti_AC11TypeInfo_AC6equalsMFPvPvZi+0x182>
		    (!(o1 is null) && !(o2 is null) && o1.opEquals(o2)))
		    continue;
		return 0;
  400772:	c7 45 84 00 00 00 00 	movl   $0x0,-0x7c(%rbp)
  400779:	eb 19                	jmp    400794 <_D3std8typeinfo5ti_AC11TypeInfo_AC6equalsMFPvPvZi+0x19b>
  40077b:	48 ff 45 e8          	incq   -0x18(%rbp)
  40077f:	e9 d4 fe ff ff       	jmpq   400658 <_D3std8typeinfo5ti_AC11TypeInfo_AC6equalsMFPvPvZi+0x5f>
	    }
	    return 1;
  400784:	c7 45 84 01 00 00 00 	movl   $0x1,-0x7c(%rbp)
  40078b:	eb 07                	jmp    400794 <_D3std8typeinfo5ti_AC11TypeInfo_AC6equalsMFPvPvZi+0x19b>
	}
	return 0;
  40078d:	c7 45 84 00 00 00 00 	movl   $0x0,-0x7c(%rbp)
  400794:	8b 45 84             	mov    -0x7c(%rbp),%eax
    }
  400797:	c9                   	leaveq 
  400798:	c3                   	retq   

0000000000400799 <_D3std8typeinfo5ti_AC11TypeInfo_AC7compareMFPvPvZi>:

    int compare(void *p1, void *p2)
  400799:	55                   	push   %rbp
  40079a:	48 89 e5             	mov    %rsp,%rbp
  40079d:	48 81 ec a0 00 00 00 	sub    $0xa0,%rsp
  4007a4:	48 89 7d 98          	mov    %rdi,-0x68(%rbp)
  4007a8:	48 89 75 90          	mov    %rsi,-0x70(%rbp)
  4007ac:	48 89 55 88          	mov    %rdx,-0x78(%rbp)
  4007b0:	48 8b 7d 98          	mov    -0x68(%rbp),%rdi
  4007b4:	e8 c3 8b 00 00       	callq  40937c <_D9invariant12_d_invariantFC6ObjectZv>
    {
	Object[] s1 = *cast(Object[]*)p1;
  4007b9:	48 8b 55 90          	mov    -0x70(%rbp),%rdx
  4007bd:	48 8b 02             	mov    (%rdx),%rax
  4007c0:	48 89 45 a0          	mov    %rax,-0x60(%rbp)
  4007c4:	48 8b 42 08          	mov    0x8(%rdx),%rax
  4007c8:	48 89 45 a8          	mov    %rax,-0x58(%rbp)
	Object[] s2 = *cast(Object[]*)p2;
  4007cc:	48 8b 55 88          	mov    -0x78(%rbp),%rdx
  4007d0:	48 8b 02             	mov    (%rdx),%rax
  4007d3:	48 89 45 b0          	mov    %rax,-0x50(%rbp)
  4007d7:	48 8b 42 08          	mov    0x8(%rdx),%rax
  4007db:	48 89 45 b8          	mov    %rax,-0x48(%rbp)
	ptrdiff_t c;
  4007df:	48 c7 45 e0 00 00 00 	movq   $0x0,-0x20(%rbp)
  4007e6:	00 

	c = cast(ptrdiff_t)s1.length - cast(ptrdiff_t)s2.length;
  4007e7:	48 8b 45 a0          	mov    -0x60(%rbp),%rax
  4007eb:	48 89 c2             	mov    %rax,%rdx
  4007ee:	48 8b 45 b0          	mov    -0x50(%rbp),%rax
  4007f2:	48 89 d1             	mov    %rdx,%rcx
  4007f5:	48 29 c1             	sub    %rax,%rcx
  4007f8:	48 89 c8             	mov    %rcx,%rax
  4007fb:	48 89 45 e0          	mov    %rax,-0x20(%rbp)
	if (c == 0)
  4007ff:	48 83 7d e0 00       	cmpq   $0x0,-0x20(%rbp)
  400804:	0f 85 36 01 00 00    	jne    400940 <_D3std8typeinfo5ti_AC11TypeInfo_AC7compareMFPvPvZi+0x1a7>
	{
	    for (size_t u = 0; u < s1.length; u++)
  40080a:	48 c7 45 e8 00 00 00 	movq   $0x0,-0x18(%rbp)
  400811:	00 
  400812:	48 8b 45 a0          	mov    -0x60(%rbp),%rax
  400816:	48 39 45 e8          	cmp    %rax,-0x18(%rbp)
  40081a:	0f 92 c0             	setb   %al
  40081d:	83 f0 01             	xor    $0x1,%eax
  400820:	84 c0                	test   %al,%al
  400822:	0f 85 18 01 00 00    	jne    400940 <_D3std8typeinfo5ti_AC11TypeInfo_AC7compareMFPvPvZi+0x1a7>
	    {	Object o1 = s1[u];
  400828:	48 8b 45 a8          	mov    -0x58(%rbp),%rax
  40082c:	48 89 85 68 ff ff ff 	mov    %rax,-0x98(%rbp)
  400833:	48 8b 45 a0          	mov    -0x60(%rbp),%rax
  400837:	48 39 45 e8          	cmp    %rax,-0x18(%rbp)
  40083b:	73 0d                	jae    40084a <_D3std8typeinfo5ti_AC11TypeInfo_AC7compareMFPvPvZi+0xb1>
  40083d:	48 8b 4d e8          	mov    -0x18(%rbp),%rcx
  400841:	48 89 8d 70 ff ff ff 	mov    %rcx,-0x90(%rbp)
  400848:	eb 22                	jmp    40086c <_D3std8typeinfo5ti_AC11TypeInfo_AC7compareMFPvPvZi+0xd3>
  40084a:	48 c7 45 c0 14 00 00 	movq   $0x14,-0x40(%rbp)
  400851:	00 
  400852:	48 c7 45 c8 00 f6 40 	movq   $0x40f600,-0x38(%rbp)
  400859:	00 
  40085a:	48 8b 7d c0          	mov    -0x40(%rbp),%rdi
  40085e:	48 8b 75 c8          	mov    -0x38(%rbp),%rsi
  400862:	ba 33 00 00 00       	mov    $0x33,%edx
  400867:	e8 d9 a5 00 00       	callq  40ae45 <_d_array_bounds>
  40086c:	48 8b 85 70 ff ff ff 	mov    -0x90(%rbp),%rax
  400873:	48 c1 e0 03          	shl    $0x3,%rax
  400877:	48 03 85 68 ff ff ff 	add    -0x98(%rbp),%rax
  40087e:	48 8b 00             	mov    (%rax),%rax
  400881:	48 89 45 f8          	mov    %rax,-0x8(%rbp)
		Object o2 = s2[u];
  400885:	48 8b 45 b8          	mov    -0x48(%rbp),%rax
  400889:	48 89 85 78 ff ff ff 	mov    %rax,-0x88(%rbp)
  400890:	48 8b 45 b0          	mov    -0x50(%rbp),%rax
  400894:	48 39 45 e8          	cmp    %rax,-0x18(%rbp)
  400898:	73 0a                	jae    4008a4 <_D3std8typeinfo5ti_AC11TypeInfo_AC7compareMFPvPvZi+0x10b>
  40089a:	48 8b 4d e8          	mov    -0x18(%rbp),%rcx
  40089e:	48 89 4d 80          	mov    %rcx,-0x80(%rbp)
  4008a2:	eb 22                	jmp    4008c6 <_D3std8typeinfo5ti_AC11TypeInfo_AC7compareMFPvPvZi+0x12d>
  4008a4:	48 c7 45 d0 14 00 00 	movq   $0x14,-0x30(%rbp)
  4008ab:	00 
  4008ac:	48 c7 45 d8 00 f6 40 	movq   $0x40f600,-0x28(%rbp)
  4008b3:	00 
  4008b4:	48 8b 7d d0          	mov    -0x30(%rbp),%rdi
  4008b8:	48 8b 75 d8          	mov    -0x28(%rbp),%rsi
  4008bc:	ba 34 00 00 00       	mov    $0x34,%edx
  4008c1:	e8 7f a5 00 00       	callq  40ae45 <_d_array_bounds>
  4008c6:	48 8b 45 80          	mov    -0x80(%rbp),%rax
  4008ca:	48 c1 e0 03          	shl    $0x3,%rax
  4008ce:	48 03 85 78 ff ff ff 	add    -0x88(%rbp),%rax
  4008d5:	48 8b 00             	mov    (%rax),%rax
  4008d8:	48 89 45 f0          	mov    %rax,-0x10(%rbp)

		if (o1 is o2)
  4008dc:	48 8b 45 f8          	mov    -0x8(%rbp),%rax
  4008e0:	48 3b 45 f0          	cmp    -0x10(%rbp),%rax
  4008e4:	74 51                	je     400937 <_D3std8typeinfo5ti_AC11TypeInfo_AC7compareMFPvPvZi+0x19e>
		    continue;

		// Regard null references as always being "less than"
		if (o1)
  4008e6:	48 83 7d f8 00       	cmpq   $0x0,-0x8(%rbp)
  4008eb:	74 40                	je     40092d <_D3std8typeinfo5ti_AC11TypeInfo_AC7compareMFPvPvZi+0x194>
		{
		    if (!o2)
  4008ed:	48 83 7d f0 00       	cmpq   $0x0,-0x10(%rbp)
  4008f2:	0f 95 c0             	setne  %al
  4008f5:	83 f0 01             	xor    $0x1,%eax
  4008f8:	84 c0                	test   %al,%al
  4008fa:	74 0a                	je     400906 <_D3std8typeinfo5ti_AC11TypeInfo_AC7compareMFPvPvZi+0x16d>
		    {	c = 1;
  4008fc:	48 c7 45 e0 01 00 00 	movq   $0x1,-0x20(%rbp)
  400903:	00 
			break;
  400904:	eb 3a                	jmp    400940 <_D3std8typeinfo5ti_AC11TypeInfo_AC7compareMFPvPvZi+0x1a7>
		    }
		    c = o1.opCmp(o2);
  400906:	48 8b 45 f8          	mov    -0x8(%rbp),%rax
  40090a:	48 8b 00             	mov    (%rax),%rax
  40090d:	48 83 c0 18          	add    $0x18,%rax
  400911:	48 8b 00             	mov    (%rax),%rax
  400914:	48 8b 75 f0          	mov    -0x10(%rbp),%rsi
  400918:	48 8b 7d f8          	mov    -0x8(%rbp),%rdi
  40091c:	ff d0                	callq  *%rax
  40091e:	48 98                	cltq   
  400920:	48 89 45 e0          	mov    %rax,-0x20(%rbp)
		    if (c)
  400924:	48 83 7d e0 00       	cmpq   $0x0,-0x20(%rbp)
  400929:	75 15                	jne    400940 <_D3std8typeinfo5ti_AC11TypeInfo_AC7compareMFPvPvZi+0x1a7>
			break;
  40092b:	eb 0a                	jmp    400937 <_D3std8typeinfo5ti_AC11TypeInfo_AC7compareMFPvPvZi+0x19e>
		}
		else
		{   c = -1;
  40092d:	48 c7 45 e0 ff ff ff 	movq   $0xffffffffffffffff,-0x20(%rbp)
  400934:	ff 
		    break;
  400935:	eb 09                	jmp    400940 <_D3std8typeinfo5ti_AC11TypeInfo_AC7compareMFPvPvZi+0x1a7>

		if (o1 is o2)
		    continue;

		// Regard null references as always being "less than"
		if (o1)
  400937:	48 ff 45 e8          	incq   -0x18(%rbp)
  40093b:	e9 d2 fe ff ff       	jmpq   400812 <_D3std8typeinfo5ti_AC11TypeInfo_AC7compareMFPvPvZi+0x79>
		{   c = -1;
		    break;
		}
	    }
	}
	if (c < 0)
  400940:	48 83 7d e0 00       	cmpq   $0x0,-0x20(%rbp)
  400945:	79 0a                	jns    400951 <_D3std8typeinfo5ti_AC11TypeInfo_AC7compareMFPvPvZi+0x1b8>
	    c = -1;
  400947:	48 c7 45 e0 ff ff ff 	movq   $0xffffffffffffffff,-0x20(%rbp)
  40094e:	ff 
  40094f:	eb 0f                	jmp    400960 <_D3std8typeinfo5ti_AC11TypeInfo_AC7compareMFPvPvZi+0x1c7>
	else if (c > 0)
  400951:	48 83 7d e0 00       	cmpq   $0x0,-0x20(%rbp)
  400956:	7e 08                	jle    400960 <_D3std8typeinfo5ti_AC11TypeInfo_AC7compareMFPvPvZi+0x1c7>
	    c = 1;
  400958:	48 c7 45 e0 01 00 00 	movq   $0x1,-0x20(%rbp)
  40095f:	00 
	return c;
  400960:	48 8b 45 e0          	mov    -0x20(%rbp),%rax
    }
  400964:	c9                   	leaveq 
  400965:	c3                   	retq   

0000000000400966 <_D3std8typeinfo5ti_AC11TypeInfo_AC5tsizeMFZm>:

    size_t tsize()
  400966:	55                   	push   %rbp
  400967:	48 89 e5             	mov    %rsp,%rbp
  40096a:	48 83 ec 10          	sub    $0x10,%rsp
  40096e:	48 89 7d f8          	mov    %rdi,-0x8(%rbp)
  400972:	48 8b 7d f8          	mov    -0x8(%rbp),%rdi
  400976:	e8 01 8a 00 00       	callq  40937c <_D9invariant12_d_invariantFC6ObjectZv>
    {
	return (Object[]).sizeof;
  40097b:	b8 10 00 00 00       	mov    $0x10,%eax
    }
  400980:	c9                   	leaveq 
  400981:	c3                   	retq   

0000000000400982 <_D3std8typeinfo5ti_AC11TypeInfo_AC5flagsMFZk>:

    uint flags()
  400982:	55                   	push   %rbp
  400983:	48 89 e5             	mov    %rsp,%rbp
  400986:	48 83 ec 10          	sub    $0x10,%rsp
  40098a:	48 89 7d f8          	mov    %rdi,-0x8(%rbp)
  40098e:	48 8b 7d f8          	mov    -0x8(%rbp),%rdi
  400992:	e8 e5 89 00 00       	callq  40937c <_D9invariant12_d_invariantFC6ObjectZv>
    {
	return 1;
  400997:	b8 01 00 00 00       	mov    $0x1,%eax
    }
  40099c:	c9                   	leaveq 
  40099d:	c3                   	retq   

000000000040099e <_D3std8typeinfo5ti_AC11TypeInfo_AC4nextMFZC8TypeInfo>:

    TypeInfo next()
  40099e:	55                   	push   %rbp
  40099f:	48 89 e5             	mov    %rsp,%rbp
  4009a2:	48 83 ec 10          	sub    $0x10,%rsp
  4009a6:	48 89 7d f8          	mov    %rdi,-0x8(%rbp)
  4009aa:	48 8b 7d f8          	mov    -0x8(%rbp),%rdi
  4009ae:	e8 c9 89 00 00       	callq  40937c <_D9invariant12_d_invariantFC6ObjectZv>
    {
	return typeid(Object);
  4009b3:	48 c7 c0 70 9e 41 00 	mov    $0x419e70,%rax
    }
  4009ba:	c9                   	leaveq 
  4009bb:	c3                   	retq   

00000000004009bc <_D3std8typeinfo11ti_Acdouble11TypeInfo_Ar8toStringMFZAa>:

// cdouble[]

class TypeInfo_Ar : TypeInfo
{
    char[] toString() { return "cdouble[]"; }
  4009bc:	55                   	push   %rbp
  4009bd:	48 89 e5             	mov    %rsp,%rbp
  4009c0:	53                   	push   %rbx
  4009c1:	48 83 ec 08          	sub    $0x8,%rsp
  4009c5:	48 89 fb             	mov    %rdi,%rbx
  4009c8:	48 89 75 f0          	mov    %rsi,-0x10(%rbp)
  4009cc:	48 8b 7d f0          	mov    -0x10(%rbp),%rdi
  4009d0:	e8 a7 89 00 00       	callq  40937c <_D9invariant12_d_invariantFC6ObjectZv>
  4009d5:	48 c7 03 09 00 00 00 	movq   $0x9,(%rbx)
  4009dc:	48 c7 43 08 c0 f6 40 	movq   $0x40f6c0,0x8(%rbx)
  4009e3:	00 
  4009e4:	48 89 d8             	mov    %rbx,%rax
  4009e7:	48 83 c4 08          	add    $0x8,%rsp
  4009eb:	5b                   	pop    %rbx
  4009ec:	c9                   	leaveq 
  4009ed:	c3                   	retq   

00000000004009ee <_D3std8typeinfo11ti_Acdouble11TypeInfo_Ar7getHashMFPvZm>:

    hash_t getHash(void *p)
  4009ee:	55                   	push   %rbp
  4009ef:	48 89 e5             	mov    %rsp,%rbp
  4009f2:	48 83 ec 40          	sub    $0x40,%rsp
  4009f6:	48 89 7d c8          	mov    %rdi,-0x38(%rbp)
  4009fa:	48 89 75 c0          	mov    %rsi,-0x40(%rbp)
  4009fe:	48 8b 7d c8          	mov    -0x38(%rbp),%rdi
  400a02:	e8 75 89 00 00       	callq  40937c <_D9invariant12_d_invariantFC6ObjectZv>
    {	cdouble[] s = *cast(cdouble[]*)p;
  400a07:	48 8b 55 c0          	mov    -0x40(%rbp),%rdx
  400a0b:	48 8b 02             	mov    (%rdx),%rax
  400a0e:	48 89 45 d0          	mov    %rax,-0x30(%rbp)
  400a12:	48 8b 42 08          	mov    0x8(%rdx),%rax
  400a16:	48 89 45 d8          	mov    %rax,-0x28(%rbp)
	size_t len = s.length;
  400a1a:	48 8b 45 d0          	mov    -0x30(%rbp),%rax
  400a1e:	48 89 45 f8          	mov    %rax,-0x8(%rbp)
	cdouble *str = s.ptr;
  400a22:	48 8b 45 d8          	mov    -0x28(%rbp),%rax
  400a26:	48 89 45 f0          	mov    %rax,-0x10(%rbp)
	hash_t hash = 0;
  400a2a:	48 c7 45 e8 00 00 00 	movq   $0x0,-0x18(%rbp)
  400a31:	00 

	while (len)
  400a32:	48 83 7d f8 00       	cmpq   $0x0,-0x8(%rbp)
  400a37:	0f 95 c0             	setne  %al
  400a3a:	83 f0 01             	xor    $0x1,%eax
  400a3d:	84 c0                	test   %al,%al
  400a3f:	75 71                	jne    400ab2 <_D3std8typeinfo11ti_Acdouble11TypeInfo_Ar7getHashMFPvZm+0xc4>
	{
	    hash *= 9;
  400a41:	48 8b 55 e8          	mov    -0x18(%rbp),%rdx
  400a45:	48 89 d0             	mov    %rdx,%rax
  400a48:	48 c1 e0 03          	shl    $0x3,%rax
  400a4c:	48 01 d0             	add    %rdx,%rax
  400a4f:	48 89 45 e8          	mov    %rax,-0x18(%rbp)
	    hash += (cast(uint *)str)[0];
  400a53:	48 8b 55 f0          	mov    -0x10(%rbp),%rdx
  400a57:	b8 00 00 00 00       	mov    $0x0,%eax
  400a5c:	48 8d 04 02          	lea    (%rdx,%rax,1),%rax
  400a60:	8b 00                	mov    (%rax),%eax
  400a62:	89 c0                	mov    %eax,%eax
  400a64:	48 01 45 e8          	add    %rax,-0x18(%rbp)
	    hash += (cast(uint *)str)[1];
  400a68:	48 8b 55 f0          	mov    -0x10(%rbp),%rdx
  400a6c:	b8 04 00 00 00       	mov    $0x4,%eax
  400a71:	48 8d 04 02          	lea    (%rdx,%rax,1),%rax
  400a75:	8b 00                	mov    (%rax),%eax
  400a77:	89 c0                	mov    %eax,%eax
  400a79:	48 01 45 e8          	add    %rax,-0x18(%rbp)
	    hash += (cast(uint *)str)[2];
  400a7d:	48 8b 55 f0          	mov    -0x10(%rbp),%rdx
  400a81:	b8 08 00 00 00       	mov    $0x8,%eax
  400a86:	48 8d 04 02          	lea    (%rdx,%rax,1),%rax
  400a8a:	8b 00                	mov    (%rax),%eax
  400a8c:	89 c0                	mov    %eax,%eax
  400a8e:	48 01 45 e8          	add    %rax,-0x18(%rbp)
	    hash += (cast(uint *)str)[3];
  400a92:	48 8b 55 f0          	mov    -0x10(%rbp),%rdx
  400a96:	b8 0c 00 00 00       	mov    $0xc,%eax
  400a9b:	48 8d 04 02          	lea    (%rdx,%rax,1),%rax
  400a9f:	8b 00                	mov    (%rax),%eax
  400aa1:	89 c0                	mov    %eax,%eax
  400aa3:	48 01 45 e8          	add    %rax,-0x18(%rbp)
	    str++;
  400aa7:	48 83 45 f0 10       	addq   $0x10,-0x10(%rbp)
	    len--;
  400aac:	48 ff 4d f8          	decq   -0x8(%rbp)
  400ab0:	eb 80                	jmp    400a32 <_D3std8typeinfo11ti_Acdouble11TypeInfo_Ar7getHashMFPvZm+0x44>
	}

	return hash;
  400ab2:	48 8b 45 e8          	mov    -0x18(%rbp),%rax
    }
  400ab6:	c9                   	leaveq 
  400ab7:	c3                   	retq   

0000000000400ab8 <_D3std8typeinfo11ti_Acdouble11TypeInfo_Ar6equalsMFPvPvZi>:

    int equals(void *p1, void *p2)
  400ab8:	55                   	push   %rbp
  400ab9:	48 89 e5             	mov    %rsp,%rbp
  400abc:	48 81 ec c0 00 00 00 	sub    $0xc0,%rsp
  400ac3:	48 89 7d 98          	mov    %rdi,-0x68(%rbp)
  400ac7:	48 89 75 90          	mov    %rsi,-0x70(%rbp)
  400acb:	48 89 55 88          	mov    %rdx,-0x78(%rbp)
  400acf:	48 8b 7d 98          	mov    -0x68(%rbp),%rdi
  400ad3:	e8 a4 88 00 00       	callq  40937c <_D9invariant12_d_invariantFC6ObjectZv>
    {
	cdouble[] s1 = *cast(cdouble[]*)p1;
  400ad8:	48 8b 55 90          	mov    -0x70(%rbp),%rdx
  400adc:	48 8b 02             	mov    (%rdx),%rax
  400adf:	48 89 45 a0          	mov    %rax,-0x60(%rbp)
  400ae3:	48 8b 42 08          	mov    0x8(%rdx),%rax
  400ae7:	48 89 45 a8          	mov    %rax,-0x58(%rbp)
	cdouble[] s2 = *cast(cdouble[]*)p2;
  400aeb:	48 8b 55 88          	mov    -0x78(%rbp),%rdx
  400aef:	48 8b 02             	mov    (%rdx),%rax
  400af2:	48 89 45 b0          	mov    %rax,-0x50(%rbp)
  400af6:	48 8b 42 08          	mov    0x8(%rdx),%rax
  400afa:	48 89 45 b8          	mov    %rax,-0x48(%rbp)
	size_t len = s1.length;
  400afe:	48 8b 45 a0          	mov    -0x60(%rbp),%rax
  400b02:	48 89 45 e8          	mov    %rax,-0x18(%rbp)

	if (len != s2.length)
  400b06:	48 8b 45 b0          	mov    -0x50(%rbp),%rax
  400b0a:	48 39 45 e8          	cmp    %rax,-0x18(%rbp)
  400b0e:	74 0f                	je     400b1f <_D3std8typeinfo11ti_Acdouble11TypeInfo_Ar6equalsMFPvPvZi+0x67>
	    return 0;
  400b10:	c7 85 54 ff ff ff 00 	movl   $0x0,-0xac(%rbp)
  400b17:	00 00 00 
  400b1a:	e9 53 01 00 00       	jmpq   400c72 <_D3std8typeinfo11ti_Acdouble11TypeInfo_Ar6equalsMFPvPvZi+0x1ba>
	for (size_t u = 0; u < len; u++)
  400b1f:	48 c7 45 f0 00 00 00 	movq   $0x0,-0x10(%rbp)
  400b26:	00 
  400b27:	48 8b 45 f0          	mov    -0x10(%rbp),%rax
  400b2b:	48 3b 45 e8          	cmp    -0x18(%rbp),%rax
  400b2f:	0f 92 c0             	setb   %al
  400b32:	83 f0 01             	xor    $0x1,%eax
  400b35:	84 c0                	test   %al,%al
  400b37:	0f 85 2b 01 00 00    	jne    400c68 <_D3std8typeinfo11ti_Acdouble11TypeInfo_Ar6equalsMFPvPvZi+0x1b0>
	{
	    int c = TypeInfo_r._equals(s1[u], s2[u]);
  400b3d:	48 8b 45 b8          	mov    -0x48(%rbp),%rax
  400b41:	48 89 85 58 ff ff ff 	mov    %rax,-0xa8(%rbp)
  400b48:	48 8b 45 b0          	mov    -0x50(%rbp),%rax
  400b4c:	48 39 45 f0          	cmp    %rax,-0x10(%rbp)
  400b50:	73 0d                	jae    400b5f <_D3std8typeinfo11ti_Acdouble11TypeInfo_Ar6equalsMFPvPvZi+0xa7>
  400b52:	48 8b 45 f0          	mov    -0x10(%rbp),%rax
  400b56:	48 89 85 60 ff ff ff 	mov    %rax,-0xa0(%rbp)
  400b5d:	eb 22                	jmp    400b81 <_D3std8typeinfo11ti_Acdouble11TypeInfo_Ar6equalsMFPvPvZi+0xc9>
  400b5f:	48 c7 45 c0 1a 00 00 	movq   $0x1a,-0x40(%rbp)
  400b66:	00 
  400b67:	48 c7 45 c8 ca f6 40 	movq   $0x40f6ca,-0x38(%rbp)
  400b6e:	00 
  400b6f:	48 8b 7d c0          	mov    -0x40(%rbp),%rdi
  400b73:	48 8b 75 c8          	mov    -0x38(%rbp),%rsi
  400b77:	ba 40 00 00 00       	mov    $0x40,%edx
  400b7c:	e8 c4 a2 00 00       	callq  40ae45 <_d_array_bounds>
  400b81:	48 8b 85 60 ff ff ff 	mov    -0xa0(%rbp),%rax
  400b88:	48 c1 e0 04          	shl    $0x4,%rax
  400b8c:	48 03 85 58 ff ff ff 	add    -0xa8(%rbp),%rax
  400b93:	dd 00                	fldl   (%rax)
  400b95:	dd 9d 70 ff ff ff    	fstpl  -0x90(%rbp)
  400b9b:	dd 40 08             	fldl   0x8(%rax)
  400b9e:	dd 9d 68 ff ff ff    	fstpl  -0x98(%rbp)
  400ba4:	48 8b 45 a8          	mov    -0x58(%rbp),%rax
  400ba8:	48 89 85 78 ff ff ff 	mov    %rax,-0x88(%rbp)
  400baf:	48 8b 45 a0          	mov    -0x60(%rbp),%rax
  400bb3:	48 39 45 f0          	cmp    %rax,-0x10(%rbp)
  400bb7:	73 0a                	jae    400bc3 <_D3std8typeinfo11ti_Acdouble11TypeInfo_Ar6equalsMFPvPvZi+0x10b>
  400bb9:	48 8b 45 f0          	mov    -0x10(%rbp),%rax
  400bbd:	48 89 45 80          	mov    %rax,-0x80(%rbp)
  400bc1:	eb 22                	jmp    400be5 <_D3std8typeinfo11ti_Acdouble11TypeInfo_Ar6equalsMFPvPvZi+0x12d>
  400bc3:	48 c7 45 d0 1a 00 00 	movq   $0x1a,-0x30(%rbp)
  400bca:	00 
  400bcb:	48 c7 45 d8 ca f6 40 	movq   $0x40f6ca,-0x28(%rbp)
  400bd2:	00 
  400bd3:	48 8b 7d d0          	mov    -0x30(%rbp),%rdi
  400bd7:	48 8b 75 d8          	mov    -0x28(%rbp),%rsi
  400bdb:	ba 40 00 00 00       	mov    $0x40,%edx
  400be0:	e8 60 a2 00 00       	callq  40ae45 <_d_array_bounds>
  400be5:	48 8b 45 80          	mov    -0x80(%rbp),%rax
  400be9:	48 c1 e0 04          	shl    $0x4,%rax
  400bed:	48 03 85 78 ff ff ff 	add    -0x88(%rbp),%rax
  400bf4:	48 8b 10             	mov    (%rax),%rdx
  400bf7:	48 8b 40 08          	mov    0x8(%rax),%rax
  400bfb:	48 8b 8d 70 ff ff ff 	mov    -0x90(%rbp),%rcx
  400c02:	48 8b b5 68 ff ff ff 	mov    -0x98(%rbp),%rsi
  400c09:	48 89 8d 48 ff ff ff 	mov    %rcx,-0xb8(%rbp)
  400c10:	66 0f 12 95 48 ff ff 	movlpd -0xb8(%rbp),%xmm2
  400c17:	ff 
  400c18:	48 89 b5 48 ff ff ff 	mov    %rsi,-0xb8(%rbp)
  400c1f:	66 0f 12 9d 48 ff ff 	movlpd -0xb8(%rbp),%xmm3
  400c26:	ff 
  400c27:	48 89 95 48 ff ff ff 	mov    %rdx,-0xb8(%rbp)
  400c2e:	66 0f 12 85 48 ff ff 	movlpd -0xb8(%rbp),%xmm0
  400c35:	ff 
  400c36:	48 89 85 48 ff ff ff 	mov    %rax,-0xb8(%rbp)
  400c3d:	66 0f 12 8d 48 ff ff 	movlpd -0xb8(%rbp),%xmm1
  400c44:	ff 
  400c45:	e8 bc 34 00 00       	callq  404106 <_D3std8typeinfo10ti_cdouble10TypeInfo_r7_equalsFrrZi>
  400c4a:	89 45 fc             	mov    %eax,-0x4(%rbp)
	    if (c == 0)
  400c4d:	83 7d fc 00          	cmpl   $0x0,-0x4(%rbp)
  400c51:	75 0c                	jne    400c5f <_D3std8typeinfo11ti_Acdouble11TypeInfo_Ar6equalsMFPvPvZi+0x1a7>
		return 0;
  400c53:	c7 85 54 ff ff ff 00 	movl   $0x0,-0xac(%rbp)
  400c5a:	00 00 00 
  400c5d:	eb 13                	jmp    400c72 <_D3std8typeinfo11ti_Acdouble11TypeInfo_Ar6equalsMFPvPvZi+0x1ba>
	if (len != s2.length)
	    return 0;
	for (size_t u = 0; u < len; u++)
	{
	    int c = TypeInfo_r._equals(s1[u], s2[u]);
	    if (c == 0)
  400c5f:	48 ff 45 f0          	incq   -0x10(%rbp)
  400c63:	e9 bf fe ff ff       	jmpq   400b27 <_D3std8typeinfo11ti_Acdouble11TypeInfo_Ar6equalsMFPvPvZi+0x6f>
		return 0;
	}
	return 1;
  400c68:	c7 85 54 ff ff ff 01 	movl   $0x1,-0xac(%rbp)
  400c6f:	00 00 00 
  400c72:	8b 85 54 ff ff ff    	mov    -0xac(%rbp),%eax
    }
  400c78:	c9                   	leaveq 
  400c79:	c3                   	retq   

0000000000400c7a <_D3std8typeinfo11ti_Acdouble11TypeInfo_Ar7compareMFPvPvZi>:

    int compare(void *p1, void *p2)
  400c7a:	55                   	push   %rbp
  400c7b:	48 89 e5             	mov    %rsp,%rbp
  400c7e:	48 81 ec c0 00 00 00 	sub    $0xc0,%rsp
  400c85:	48 89 7d 98          	mov    %rdi,-0x68(%rbp)
  400c89:	48 89 75 90          	mov    %rsi,-0x70(%rbp)
  400c8d:	48 89 55 88          	mov    %rdx,-0x78(%rbp)
  400c91:	48 8b 7d 98          	mov    -0x68(%rbp),%rdi
  400c95:	e8 e2 86 00 00       	callq  40937c <_D9invariant12_d_invariantFC6ObjectZv>
    {
	cdouble[] s1 = *cast(cdouble[]*)p1;
  400c9a:	48 8b 55 90          	mov    -0x70(%rbp),%rdx
  400c9e:	48 8b 02             	mov    (%rdx),%rax
  400ca1:	48 89 45 a0          	mov    %rax,-0x60(%rbp)
  400ca5:	48 8b 42 08          	mov    0x8(%rdx),%rax
  400ca9:	48 89 45 a8          	mov    %rax,-0x58(%rbp)
	cdouble[] s2 = *cast(cdouble[]*)p2;
  400cad:	48 8b 55 88          	mov    -0x78(%rbp),%rdx
  400cb1:	48 8b 02             	mov    (%rdx),%rax
  400cb4:	48 89 45 b0          	mov    %rax,-0x50(%rbp)
  400cb8:	48 8b 42 08          	mov    0x8(%rdx),%rax
  400cbc:	48 89 45 b8          	mov    %rax,-0x48(%rbp)
	size_t len = s1.length;
  400cc0:	48 8b 45 a0          	mov    -0x60(%rbp),%rax
  400cc4:	48 89 45 e8          	mov    %rax,-0x18(%rbp)

	if (s2.length < len)
  400cc8:	48 8b 45 b0          	mov    -0x50(%rbp),%rax
  400ccc:	48 3b 45 e8          	cmp    -0x18(%rbp),%rax
  400cd0:	73 08                	jae    400cda <_D3std8typeinfo11ti_Acdouble11TypeInfo_Ar7compareMFPvPvZi+0x60>
	    len = s2.length;
  400cd2:	48 8b 45 b0          	mov    -0x50(%rbp),%rax
  400cd6:	48 89 45 e8          	mov    %rax,-0x18(%rbp)
	for (size_t u = 0; u < len; u++)
  400cda:	48 c7 45 f0 00 00 00 	movq   $0x0,-0x10(%rbp)
  400ce1:	00 
  400ce2:	48 8b 45 f0          	mov    -0x10(%rbp),%rax
  400ce6:	48 3b 45 e8          	cmp    -0x18(%rbp),%rax
  400cea:	0f 92 c0             	setb   %al
  400ced:	83 f0 01             	xor    $0x1,%eax
  400cf0:	84 c0                	test   %al,%al
  400cf2:	0f 85 2d 01 00 00    	jne    400e25 <_D3std8typeinfo11ti_Acdouble11TypeInfo_Ar7compareMFPvPvZi+0x1ab>
	{
	    int c = TypeInfo_r._compare(s1[u], s2[u]);
  400cf8:	48 8b 45 b8          	mov    -0x48(%rbp),%rax
  400cfc:	48 89 85 50 ff ff ff 	mov    %rax,-0xb0(%rbp)
  400d03:	48 8b 45 b0          	mov    -0x50(%rbp),%rax
  400d07:	48 39 45 f0          	cmp    %rax,-0x10(%rbp)
  400d0b:	73 0d                	jae    400d1a <_D3std8typeinfo11ti_Acdouble11TypeInfo_Ar7compareMFPvPvZi+0xa0>
  400d0d:	48 8b 45 f0          	mov    -0x10(%rbp),%rax
  400d11:	48 89 85 58 ff ff ff 	mov    %rax,-0xa8(%rbp)
  400d18:	eb 22                	jmp    400d3c <_D3std8typeinfo11ti_Acdouble11TypeInfo_Ar7compareMFPvPvZi+0xc2>
  400d1a:	48 c7 45 c0 1a 00 00 	movq   $0x1a,-0x40(%rbp)
  400d21:	00 
  400d22:	48 c7 45 c8 ca f6 40 	movq   $0x40f6ca,-0x38(%rbp)
  400d29:	00 
  400d2a:	48 8b 7d c0          	mov    -0x40(%rbp),%rdi
  400d2e:	48 8b 75 c8          	mov    -0x38(%rbp),%rsi
  400d32:	ba 51 00 00 00       	mov    $0x51,%edx
  400d37:	e8 09 a1 00 00       	callq  40ae45 <_d_array_bounds>
  400d3c:	48 8b 85 58 ff ff ff 	mov    -0xa8(%rbp),%rax
  400d43:	48 c1 e0 04          	shl    $0x4,%rax
  400d47:	48 03 85 50 ff ff ff 	add    -0xb0(%rbp),%rax
  400d4e:	dd 00                	fldl   (%rax)
  400d50:	dd 9d 68 ff ff ff    	fstpl  -0x98(%rbp)
  400d56:	dd 40 08             	fldl   0x8(%rax)
  400d59:	dd 9d 60 ff ff ff    	fstpl  -0xa0(%rbp)
  400d5f:	48 8b 45 a8          	mov    -0x58(%rbp),%rax
  400d63:	48 89 85 70 ff ff ff 	mov    %rax,-0x90(%rbp)
  400d6a:	48 8b 45 a0          	mov    -0x60(%rbp),%rax
  400d6e:	48 39 45 f0          	cmp    %rax,-0x10(%rbp)
  400d72:	73 0d                	jae    400d81 <_D3std8typeinfo11ti_Acdouble11TypeInfo_Ar7compareMFPvPvZi+0x107>
  400d74:	48 8b 45 f0          	mov    -0x10(%rbp),%rax
  400d78:	48 89 85 78 ff ff ff 	mov    %rax,-0x88(%rbp)
  400d7f:	eb 22                	jmp    400da3 <_D3std8typeinfo11ti_Acdouble11TypeInfo_Ar7compareMFPvPvZi+0x129>
  400d81:	48 c7 45 d0 1a 00 00 	movq   $0x1a,-0x30(%rbp)
  400d88:	00 
  400d89:	48 c7 45 d8 ca f6 40 	movq   $0x40f6ca,-0x28(%rbp)
  400d90:	00 
  400d91:	48 8b 7d d0          	mov    -0x30(%rbp),%rdi
  400d95:	48 8b 75 d8          	mov    -0x28(%rbp),%rsi
  400d99:	ba 51 00 00 00       	mov    $0x51,%edx
  400d9e:	e8 a2 a0 00 00       	callq  40ae45 <_d_array_bounds>
  400da3:	48 8b 85 78 ff ff ff 	mov    -0x88(%rbp),%rax
  400daa:	48 c1 e0 04          	shl    $0x4,%rax
  400dae:	48 03 85 70 ff ff ff 	add    -0x90(%rbp),%rax
  400db5:	48 8b 10             	mov    (%rax),%rdx
  400db8:	48 8b 40 08          	mov    0x8(%rax),%rax
  400dbc:	48 8b 8d 68 ff ff ff 	mov    -0x98(%rbp),%rcx
  400dc3:	48 8b b5 60 ff ff ff 	mov    -0xa0(%rbp),%rsi
  400dca:	48 89 8d 48 ff ff ff 	mov    %rcx,-0xb8(%rbp)
  400dd1:	66 0f 12 95 48 ff ff 	movlpd -0xb8(%rbp),%xmm2
  400dd8:	ff 
  400dd9:	48 89 b5 48 ff ff ff 	mov    %rsi,-0xb8(%rbp)
  400de0:	66 0f 12 9d 48 ff ff 	movlpd -0xb8(%rbp),%xmm3
  400de7:	ff 
  400de8:	48 89 95 48 ff ff ff 	mov    %rdx,-0xb8(%rbp)
  400def:	66 0f 12 85 48 ff ff 	movlpd -0xb8(%rbp),%xmm0
  400df6:	ff 
  400df7:	48 89 85 48 ff ff ff 	mov    %rax,-0xb8(%rbp)
  400dfe:	66 0f 12 8d 48 ff ff 	movlpd -0xb8(%rbp),%xmm1
  400e05:	ff 
  400e06:	e8 6c 33 00 00       	callq  404177 <_D3std8typeinfo10ti_cdouble10TypeInfo_r8_compareFrrZi>
  400e0b:	89 45 fc             	mov    %eax,-0x4(%rbp)
	    if (c)
  400e0e:	83 7d fc 00          	cmpl   $0x0,-0x4(%rbp)
  400e12:	74 08                	je     400e1c <_D3std8typeinfo11ti_Acdouble11TypeInfo_Ar7compareMFPvPvZi+0x1a2>
		return c;
  400e14:	8b 45 fc             	mov    -0x4(%rbp),%eax
  400e17:	89 45 84             	mov    %eax,-0x7c(%rbp)
  400e1a:	eb 3c                	jmp    400e58 <_D3std8typeinfo11ti_Acdouble11TypeInfo_Ar7compareMFPvPvZi+0x1de>
	if (s2.length < len)
	    len = s2.length;
	for (size_t u = 0; u < len; u++)
	{
	    int c = TypeInfo_r._compare(s1[u], s2[u]);
	    if (c)
  400e1c:	48 ff 45 f0          	incq   -0x10(%rbp)
  400e20:	e9 bd fe ff ff       	jmpq   400ce2 <_D3std8typeinfo11ti_Acdouble11TypeInfo_Ar7compareMFPvPvZi+0x68>
		return c;
	}
	if (s1.length < s2.length)
  400e25:	48 8b 55 a0          	mov    -0x60(%rbp),%rdx
  400e29:	48 8b 45 b0          	mov    -0x50(%rbp),%rax
  400e2d:	48 39 c2             	cmp    %rax,%rdx
  400e30:	73 09                	jae    400e3b <_D3std8typeinfo11ti_Acdouble11TypeInfo_Ar7compareMFPvPvZi+0x1c1>
	    return -1;
  400e32:	c7 45 84 ff ff ff ff 	movl   $0xffffffff,-0x7c(%rbp)
  400e39:	eb 1d                	jmp    400e58 <_D3std8typeinfo11ti_Acdouble11TypeInfo_Ar7compareMFPvPvZi+0x1de>
	else if (s1.length > s2.length)
  400e3b:	48 8b 55 a0          	mov    -0x60(%rbp),%rdx
  400e3f:	48 8b 45 b0          	mov    -0x50(%rbp),%rax
  400e43:	48 39 c2             	cmp    %rax,%rdx
  400e46:	76 09                	jbe    400e51 <_D3std8typeinfo11ti_Acdouble11TypeInfo_Ar7compareMFPvPvZi+0x1d7>
	    return 1;
  400e48:	c7 45 84 01 00 00 00 	movl   $0x1,-0x7c(%rbp)
  400e4f:	eb 07                	jmp    400e58 <_D3std8typeinfo11ti_Acdouble11TypeInfo_Ar7compareMFPvPvZi+0x1de>
	return 0;
  400e51:	c7 45 84 00 00 00 00 	movl   $0x0,-0x7c(%rbp)
  400e58:	8b 45 84             	mov    -0x7c(%rbp),%eax
    }
  400e5b:	c9                   	leaveq 
  400e5c:	c3                   	retq   

0000000000400e5d <_D3std8typeinfo11ti_Acdouble11TypeInfo_Ar5tsizeMFZm>:

    size_t tsize()
  400e5d:	55                   	push   %rbp
  400e5e:	48 89 e5             	mov    %rsp,%rbp
  400e61:	48 83 ec 10          	sub    $0x10,%rsp
  400e65:	48 89 7d f8          	mov    %rdi,-0x8(%rbp)
  400e69:	48 8b 7d f8          	mov    -0x8(%rbp),%rdi
  400e6d:	e8 0a 85 00 00       	callq  40937c <_D9invariant12_d_invariantFC6ObjectZv>
    {
	return (cdouble[]).sizeof;
  400e72:	b8 10 00 00 00       	mov    $0x10,%eax
    }
  400e77:	c9                   	leaveq 
  400e78:	c3                   	retq   

0000000000400e79 <_D3std8typeinfo11ti_Acdouble11TypeInfo_Ar5flagsMFZk>:

    uint flags()
  400e79:	55                   	push   %rbp
  400e7a:	48 89 e5             	mov    %rsp,%rbp
  400e7d:	48 83 ec 10          	sub    $0x10,%rsp
  400e81:	48 89 7d f8          	mov    %rdi,-0x8(%rbp)
  400e85:	48 8b 7d f8          	mov    -0x8(%rbp),%rdi
  400e89:	e8 ee 84 00 00       	callq  40937c <_D9invariant12_d_invariantFC6ObjectZv>
    {
	return 1;
  400e8e:	b8 01 00 00 00       	mov    $0x1,%eax
    }
  400e93:	c9                   	leaveq 
  400e94:	c3                   	retq   

0000000000400e95 <_D3std8typeinfo11ti_Acdouble11TypeInfo_Ar4nextMFZC8TypeInfo>:

    TypeInfo next()
  400e95:	55                   	push   %rbp
  400e96:	48 89 e5             	mov    %rsp,%rbp
  400e99:	48 83 ec 10          	sub    $0x10,%rsp
  400e9d:	48 89 7d f8          	mov    %rdi,-0x8(%rbp)
  400ea1:	48 8b 7d f8          	mov    -0x8(%rbp),%rdi
  400ea5:	e8 d2 84 00 00       	callq  40937c <_D9invariant12_d_invariantFC6ObjectZv>
    {
	return typeid(cdouble);
  400eaa:	48 c7 c0 f0 07 41 00 	mov    $0x4107f0,%rax
    }
  400eb1:	c9                   	leaveq 
  400eb2:	c3                   	retq   
  400eb3:	90                   	nop    

0000000000400eb4 <_D3std8typeinfo10ti_Acfloat11TypeInfo_Aq8toStringMFZAa>:

// cfloat[]

class TypeInfo_Aq : TypeInfo
{
    char[] toString() { return "cfloat[]"; }
  400eb4:	55                   	push   %rbp
  400eb5:	48 89 e5             	mov    %rsp,%rbp
  400eb8:	53                   	push   %rbx
  400eb9:	48 83 ec 08          	sub    $0x8,%rsp
  400ebd:	48 89 fb             	mov    %rdi,%rbx
  400ec0:	48 89 75 f0          	mov    %rsi,-0x10(%rbp)
  400ec4:	48 8b 7d f0          	mov    -0x10(%rbp),%rdi
  400ec8:	e8 af 84 00 00       	callq  40937c <_D9invariant12_d_invariantFC6ObjectZv>
  400ecd:	48 c7 03 08 00 00 00 	movq   $0x8,(%rbx)
  400ed4:	48 c7 43 08 a0 f7 40 	movq   $0x40f7a0,0x8(%rbx)
  400edb:	00 
  400edc:	48 89 d8             	mov    %rbx,%rax
  400edf:	48 83 c4 08          	add    $0x8,%rsp
  400ee3:	5b                   	pop    %rbx
  400ee4:	c9                   	leaveq 
  400ee5:	c3                   	retq   

0000000000400ee6 <_D3std8typeinfo10ti_Acfloat11TypeInfo_Aq7getHashMFPvZm>:

    hash_t getHash(void *p)
  400ee6:	55                   	push   %rbp
  400ee7:	48 89 e5             	mov    %rsp,%rbp
  400eea:	48 83 ec 40          	sub    $0x40,%rsp
  400eee:	48 89 7d c8          	mov    %rdi,-0x38(%rbp)
  400ef2:	48 89 75 c0          	mov    %rsi,-0x40(%rbp)
  400ef6:	48 8b 7d c8          	mov    -0x38(%rbp),%rdi
  400efa:	e8 7d 84 00 00       	callq  40937c <_D9invariant12_d_invariantFC6ObjectZv>
    {	cfloat[] s = *cast(cfloat[]*)p;
  400eff:	48 8b 55 c0          	mov    -0x40(%rbp),%rdx
  400f03:	48 8b 02             	mov    (%rdx),%rax
  400f06:	48 89 45 d0          	mov    %rax,-0x30(%rbp)
  400f0a:	48 8b 42 08          	mov    0x8(%rdx),%rax
  400f0e:	48 89 45 d8          	mov    %rax,-0x28(%rbp)
	size_t len = s.length;
  400f12:	48 8b 45 d0          	mov    -0x30(%rbp),%rax
  400f16:	48 89 45 f8          	mov    %rax,-0x8(%rbp)
	cfloat *str = s.ptr;
  400f1a:	48 8b 45 d8          	mov    -0x28(%rbp),%rax
  400f1e:	48 89 45 f0          	mov    %rax,-0x10(%rbp)
	hash_t hash = 0;
  400f22:	48 c7 45 e8 00 00 00 	movq   $0x0,-0x18(%rbp)
  400f29:	00 

	while (len)
  400f2a:	48 83 7d f8 00       	cmpq   $0x0,-0x8(%rbp)
  400f2f:	0f 95 c0             	setne  %al
  400f32:	83 f0 01             	xor    $0x1,%eax
  400f35:	84 c0                	test   %al,%al
  400f37:	75 47                	jne    400f80 <_D3std8typeinfo10ti_Acfloat11TypeInfo_Aq7getHashMFPvZm+0x9a>
	{
	    hash *= 9;
  400f39:	48 8b 55 e8          	mov    -0x18(%rbp),%rdx
  400f3d:	48 89 d0             	mov    %rdx,%rax
  400f40:	48 c1 e0 03          	shl    $0x3,%rax
  400f44:	48 01 d0             	add    %rdx,%rax
  400f47:	48 89 45 e8          	mov    %rax,-0x18(%rbp)
	    hash += (cast(uint *)str)[0];
  400f4b:	48 8b 55 f0          	mov    -0x10(%rbp),%rdx
  400f4f:	b8 00 00 00 00       	mov    $0x0,%eax
  400f54:	48 8d 04 02          	lea    (%rdx,%rax,1),%rax
  400f58:	8b 00                	mov    (%rax),%eax
  400f5a:	89 c0                	mov    %eax,%eax
  400f5c:	48 01 45 e8          	add    %rax,-0x18(%rbp)
	    hash += (cast(uint *)str)[1];
  400f60:	48 8b 55 f0          	mov    -0x10(%rbp),%rdx
  400f64:	b8 04 00 00 00       	mov    $0x4,%eax
  400f69:	48 8d 04 02          	lea    (%rdx,%rax,1),%rax
  400f6d:	8b 00                	mov    (%rax),%eax
  400f6f:	89 c0                	mov    %eax,%eax
  400f71:	48 01 45 e8          	add    %rax,-0x18(%rbp)
	    str++;
  400f75:	48 83 45 f0 08       	addq   $0x8,-0x10(%rbp)
	    len--;
  400f7a:	48 ff 4d f8          	decq   -0x8(%rbp)
  400f7e:	eb aa                	jmp    400f2a <_D3std8typeinfo10ti_Acfloat11TypeInfo_Aq7getHashMFPvZm+0x44>
	}

	return hash;
  400f80:	48 8b 45 e8          	mov    -0x18(%rbp),%rax
    }
  400f84:	c9                   	leaveq 
  400f85:	c3                   	retq   

0000000000400f86 <_D3std8typeinfo10ti_Acfloat11TypeInfo_Aq6equalsMFPvPvZi>:

    int equals(void *p1, void *p2)
  400f86:	55                   	push   %rbp
  400f87:	48 89 e5             	mov    %rsp,%rbp
  400f8a:	48 81 ec c0 00 00 00 	sub    $0xc0,%rsp
  400f91:	48 89 7d 98          	mov    %rdi,-0x68(%rbp)
  400f95:	48 89 75 90          	mov    %rsi,-0x70(%rbp)
  400f99:	48 89 55 88          	mov    %rdx,-0x78(%rbp)
  400f9d:	48 8b 7d 98          	mov    -0x68(%rbp),%rdi
  400fa1:	e8 d6 83 00 00       	callq  40937c <_D9invariant12_d_invariantFC6ObjectZv>
    {
	cfloat[] s1 = *cast(cfloat[]*)p1;
  400fa6:	48 8b 55 90          	mov    -0x70(%rbp),%rdx
  400faa:	48 8b 02             	mov    (%rdx),%rax
  400fad:	48 89 45 a0          	mov    %rax,-0x60(%rbp)
  400fb1:	48 8b 42 08          	mov    0x8(%rdx),%rax
  400fb5:	48 89 45 a8          	mov    %rax,-0x58(%rbp)
	cfloat[] s2 = *cast(cfloat[]*)p2;
  400fb9:	48 8b 55 88          	mov    -0x78(%rbp),%rdx
  400fbd:	48 8b 02             	mov    (%rdx),%rax
  400fc0:	48 89 45 b0          	mov    %rax,-0x50(%rbp)
  400fc4:	48 8b 42 08          	mov    0x8(%rdx),%rax
  400fc8:	48 89 45 b8          	mov    %rax,-0x48(%rbp)
	size_t len = s1.length;
  400fcc:	48 8b 45 a0          	mov    -0x60(%rbp),%rax
  400fd0:	48 89 45 e8          	mov    %rax,-0x18(%rbp)

	if (len != s2.length)
  400fd4:	48 8b 45 b0          	mov    -0x50(%rbp),%rax
  400fd8:	48 39 45 e8          	cmp    %rax,-0x18(%rbp)
  400fdc:	74 0f                	je     400fed <_D3std8typeinfo10ti_Acfloat11TypeInfo_Aq6equalsMFPvPvZi+0x67>
	    return 0;
  400fde:	c7 85 4c ff ff ff 00 	movl   $0x0,-0xb4(%rbp)
  400fe5:	00 00 00 
  400fe8:	e9 44 01 00 00       	jmpq   401131 <_D3std8typeinfo10ti_Acfloat11TypeInfo_Aq6equalsMFPvPvZi+0x1ab>
	for (size_t u = 0; u < len; u++)
  400fed:	48 c7 45 f0 00 00 00 	movq   $0x0,-0x10(%rbp)
  400ff4:	00 
  400ff5:	48 8b 45 f0          	mov    -0x10(%rbp),%rax
  400ff9:	48 3b 45 e8          	cmp    -0x18(%rbp),%rax
  400ffd:	0f 92 c0             	setb   %al
  401000:	83 f0 01             	xor    $0x1,%eax
  401003:	84 c0                	test   %al,%al
  401005:	0f 85 1c 01 00 00    	jne    401127 <_D3std8typeinfo10ti_Acfloat11TypeInfo_Aq6equalsMFPvPvZi+0x1a1>
	{
	    int c = TypeInfo_q._equals(s1[u], s2[u]);
  40100b:	48 8b 45 b8          	mov    -0x48(%rbp),%rax
  40100f:	48 89 85 50 ff ff ff 	mov    %rax,-0xb0(%rbp)
  401016:	48 8b 45 b0          	mov    -0x50(%rbp),%rax
  40101a:	48 39 45 f0          	cmp    %rax,-0x10(%rbp)
  40101e:	73 0d                	jae    40102d <_D3std8typeinfo10ti_Acfloat11TypeInfo_Aq6equalsMFPvPvZi+0xa7>
  401020:	48 8b 45 f0          	mov    -0x10(%rbp),%rax
  401024:	48 89 85 58 ff ff ff 	mov    %rax,-0xa8(%rbp)
  40102b:	eb 22                	jmp    40104f <_D3std8typeinfo10ti_Acfloat11TypeInfo_Aq6equalsMFPvPvZi+0xc9>
  40102d:	48 c7 45 c0 19 00 00 	movq   $0x19,-0x40(%rbp)
  401034:	00 
  401035:	48 c7 45 c8 a9 f7 40 	movq   $0x40f7a9,-0x38(%rbp)
  40103c:	00 
  40103d:	48 8b 7d c0          	mov    -0x40(%rbp),%rdi
  401041:	48 8b 75 c8          	mov    -0x38(%rbp),%rsi
  401045:	ba 3e 00 00 00       	mov    $0x3e,%edx
  40104a:	e8 f6 9d 00 00       	callq  40ae45 <_d_array_bounds>
  40104f:	48 8b 85 58 ff ff ff 	mov    -0xa8(%rbp),%rax
  401056:	48 c1 e0 03          	shl    $0x3,%rax
  40105a:	48 03 85 50 ff ff ff 	add    -0xb0(%rbp),%rax
  401061:	d9 00                	flds   (%rax)
  401063:	d9 9d 64 ff ff ff    	fstps  -0x9c(%rbp)
  401069:	d9 40 04             	flds   0x4(%rax)
  40106c:	d9 9d 60 ff ff ff    	fstps  -0xa0(%rbp)
  401072:	48 8b 45 a8          	mov    -0x58(%rbp),%rax
  401076:	48 89 85 68 ff ff ff 	mov    %rax,-0x98(%rbp)
  40107d:	48 8b 45 a0          	mov    -0x60(%rbp),%rax
  401081:	48 39 45 f0          	cmp    %rax,-0x10(%rbp)
  401085:	73 0d                	jae    401094 <_D3std8typeinfo10ti_Acfloat11TypeInfo_Aq6equalsMFPvPvZi+0x10e>
  401087:	48 8b 45 f0          	mov    -0x10(%rbp),%rax
  40108b:	48 89 85 70 ff ff ff 	mov    %rax,-0x90(%rbp)
  401092:	eb 22                	jmp    4010b6 <_D3std8typeinfo10ti_Acfloat11TypeInfo_Aq6equalsMFPvPvZi+0x130>
  401094:	48 c7 45 d0 19 00 00 	movq   $0x19,-0x30(%rbp)
  40109b:	00 
  40109c:	48 c7 45 d8 a9 f7 40 	movq   $0x40f7a9,-0x28(%rbp)
  4010a3:	00 
  4010a4:	48 8b 7d d0          	mov    -0x30(%rbp),%rdi
  4010a8:	48 8b 75 d8          	mov    -0x28(%rbp),%rsi
  4010ac:	ba 3e 00 00 00       	mov    $0x3e,%edx
  4010b1:	e8 8f 9d 00 00       	callq  40ae45 <_d_array_bounds>
  4010b6:	48 8b 85 70 ff ff ff 	mov    -0x90(%rbp),%rax
  4010bd:	48 c1 e0 03          	shl    $0x3,%rax
  4010c1:	48 03 85 68 ff ff ff 	add    -0x98(%rbp),%rax
  4010c8:	8b 08                	mov    (%rax),%ecx
  4010ca:	8b 70 04             	mov    0x4(%rax),%esi
  4010cd:	8b 85 64 ff ff ff    	mov    -0x9c(%rbp),%eax
  4010d3:	8b 95 60 ff ff ff    	mov    -0xa0(%rbp),%edx
  4010d9:	89 45 80             	mov    %eax,-0x80(%rbp)
  4010dc:	89 55 84             	mov    %edx,-0x7c(%rbp)
  4010df:	48 8b 7d 80          	mov    -0x80(%rbp),%rdi
  4010e3:	89 c8                	mov    %ecx,%eax
  4010e5:	89 f2                	mov    %esi,%edx
  4010e7:	89 85 78 ff ff ff    	mov    %eax,-0x88(%rbp)
  4010ed:	89 95 7c ff ff ff    	mov    %edx,-0x84(%rbp)
  4010f3:	48 8b 85 78 ff ff ff 	mov    -0x88(%rbp),%rax
  4010fa:	66 48 0f 6e cf       	movq   %rdi,%xmm1
  4010ff:	66 48 0f 6e c0       	movq   %rax,%xmm0
  401104:	e8 3b 33 00 00       	callq  404444 <_D3std8typeinfo9ti_cfloat10TypeInfo_q7_equalsFqqZi>
  401109:	89 45 fc             	mov    %eax,-0x4(%rbp)
	    if (c == 0)
  40110c:	83 7d fc 00          	cmpl   $0x0,-0x4(%rbp)
  401110:	75 0c                	jne    40111e <_D3std8typeinfo10ti_Acfloat11TypeInfo_Aq6equalsMFPvPvZi+0x198>
		return 0;
  401112:	c7 85 4c ff ff ff 00 	movl   $0x0,-0xb4(%rbp)
  401119:	00 00 00 
  40111c:	eb 13                	jmp    401131 <_D3std8typeinfo10ti_Acfloat11TypeInfo_Aq6equalsMFPvPvZi+0x1ab>
	if (len != s2.length)
	    return 0;
	for (size_t u = 0; u < len; u++)
	{
	    int c = TypeInfo_q._equals(s1[u], s2[u]);
	    if (c == 0)
  40111e:	48 ff 45 f0          	incq   -0x10(%rbp)
  401122:	e9 ce fe ff ff       	jmpq   400ff5 <_D3std8typeinfo10ti_Acfloat11TypeInfo_Aq6equalsMFPvPvZi+0x6f>
		return 0;
	}
	return 1;
  401127:	c7 85 4c ff ff ff 01 	movl   $0x1,-0xb4(%rbp)
  40112e:	00 00 00 
  401131:	8b 85 4c ff ff ff    	mov    -0xb4(%rbp),%eax
    }
  401137:	c9                   	leaveq 
  401138:	c3                   	retq   

0000000000401139 <_D3std8typeinfo10ti_Acfloat11TypeInfo_Aq7compareMFPvPvZi>:

    int compare(void *p1, void *p2)
  401139:	55                   	push   %rbp
  40113a:	48 89 e5             	mov    %rsp,%rbp
  40113d:	48 81 ec c0 00 00 00 	sub    $0xc0,%rsp
  401144:	48 89 7d 98          	mov    %rdi,-0x68(%rbp)
  401148:	48 89 75 90          	mov    %rsi,-0x70(%rbp)
  40114c:	48 89 55 88          	mov    %rdx,-0x78(%rbp)
  401150:	48 8b 7d 98          	mov    -0x68(%rbp),%rdi
  401154:	e8 23 82 00 00       	callq  40937c <_D9invariant12_d_invariantFC6ObjectZv>
    {
	cfloat[] s1 = *cast(cfloat[]*)p1;
  401159:	48 8b 55 90          	mov    -0x70(%rbp),%rdx
  40115d:	48 8b 02             	mov    (%rdx),%rax
  401160:	48 89 45 a0          	mov    %rax,-0x60(%rbp)
  401164:	48 8b 42 08          	mov    0x8(%rdx),%rax
  401168:	48 89 45 a8          	mov    %rax,-0x58(%rbp)
	cfloat[] s2 = *cast(cfloat[]*)p2;
  40116c:	48 8b 55 88          	mov    -0x78(%rbp),%rdx
  401170:	48 8b 02             	mov    (%rdx),%rax
  401173:	48 89 45 b0          	mov    %rax,-0x50(%rbp)
  401177:	48 8b 42 08          	mov    0x8(%rdx),%rax
  40117b:	48 89 45 b8          	mov    %rax,-0x48(%rbp)
	size_t len = s1.length;
  40117f:	48 8b 45 a0          	mov    -0x60(%rbp),%rax
  401183:	48 89 45 e8          	mov    %rax,-0x18(%rbp)

	if (s2.length < len)
  401187:	48 8b 45 b0          	mov    -0x50(%rbp),%rax
  40118b:	48 3b 45 e8          	cmp    -0x18(%rbp),%rax
  40118f:	73 08                	jae    401199 <_D3std8typeinfo10ti_Acfloat11TypeInfo_Aq7compareMFPvPvZi+0x60>
	    len = s2.length;
  401191:	48 8b 45 b0          	mov    -0x50(%rbp),%rax
  401195:	48 89 45 e8          	mov    %rax,-0x18(%rbp)
	for (size_t u = 0; u < len; u++)
  401199:	48 c7 45 f0 00 00 00 	movq   $0x0,-0x10(%rbp)
  4011a0:	00 
  4011a1:	48 8b 45 f0          	mov    -0x10(%rbp),%rax
  4011a5:	48 3b 45 e8          	cmp    -0x18(%rbp),%rax
  4011a9:	0f 92 c0             	setb   %al
  4011ac:	83 f0 01             	xor    $0x1,%eax
  4011af:	84 c0                	test   %al,%al
  4011b1:	0f 85 1b 01 00 00    	jne    4012d2 <_D3std8typeinfo10ti_Acfloat11TypeInfo_Aq7compareMFPvPvZi+0x199>
	{
	    int c = TypeInfo_q._compare(s1[u], s2[u]);
  4011b7:	48 8b 45 b8          	mov    -0x48(%rbp),%rax
  4011bb:	48 89 85 48 ff ff ff 	mov    %rax,-0xb8(%rbp)
  4011c2:	48 8b 45 b0          	mov    -0x50(%rbp),%rax
  4011c6:	48 39 45 f0          	cmp    %rax,-0x10(%rbp)
  4011ca:	73 0d                	jae    4011d9 <_D3std8typeinfo10ti_Acfloat11TypeInfo_Aq7compareMFPvPvZi+0xa0>
  4011cc:	48 8b 45 f0          	mov    -0x10(%rbp),%rax
  4011d0:	48 89 85 50 ff ff ff 	mov    %rax,-0xb0(%rbp)
  4011d7:	eb 22                	jmp    4011fb <_D3std8typeinfo10ti_Acfloat11TypeInfo_Aq7compareMFPvPvZi+0xc2>
  4011d9:	48 c7 45 c0 19 00 00 	movq   $0x19,-0x40(%rbp)
  4011e0:	00 
  4011e1:	48 c7 45 c8 a9 f7 40 	movq   $0x40f7a9,-0x38(%rbp)
  4011e8:	00 
  4011e9:	48 8b 7d c0          	mov    -0x40(%rbp),%rdi
  4011ed:	48 8b 75 c8          	mov    -0x38(%rbp),%rsi
  4011f1:	ba 4f 00 00 00       	mov    $0x4f,%edx
  4011f6:	e8 4a 9c 00 00       	callq  40ae45 <_d_array_bounds>
  4011fb:	48 8b 85 50 ff ff ff 	mov    -0xb0(%rbp),%rax
  401202:	48 c1 e0 03          	shl    $0x3,%rax
  401206:	48 03 85 48 ff ff ff 	add    -0xb8(%rbp),%rax
  40120d:	d9 00                	flds   (%rax)
  40120f:	d9 9d 5c ff ff ff    	fstps  -0xa4(%rbp)
  401215:	d9 40 04             	flds   0x4(%rax)
  401218:	d9 9d 58 ff ff ff    	fstps  -0xa8(%rbp)
  40121e:	48 8b 45 a8          	mov    -0x58(%rbp),%rax
  401222:	48 89 85 60 ff ff ff 	mov    %rax,-0xa0(%rbp)
  401229:	48 8b 45 a0          	mov    -0x60(%rbp),%rax
  40122d:	48 39 45 f0          	cmp    %rax,-0x10(%rbp)
  401231:	73 0d                	jae    401240 <_D3std8typeinfo10ti_Acfloat11TypeInfo_Aq7compareMFPvPvZi+0x107>
  401233:	48 8b 45 f0          	mov    -0x10(%rbp),%rax
  401237:	48 89 85 68 ff ff ff 	mov    %rax,-0x98(%rbp)
  40123e:	eb 22                	jmp    401262 <_D3std8typeinfo10ti_Acfloat11TypeInfo_Aq7compareMFPvPvZi+0x129>
  401240:	48 c7 45 d0 19 00 00 	movq   $0x19,-0x30(%rbp)
  401247:	00 
  401248:	48 c7 45 d8 a9 f7 40 	movq   $0x40f7a9,-0x28(%rbp)
  40124f:	00 
  401250:	48 8b 7d d0          	mov    -0x30(%rbp),%rdi
  401254:	48 8b 75 d8          	mov    -0x28(%rbp),%rsi
  401258:	ba 4f 00 00 00       	mov    $0x4f,%edx
  40125d:	e8 e3 9b 00 00       	callq  40ae45 <_d_array_bounds>
  401262:	48 8b 85 68 ff ff ff 	mov    -0x98(%rbp),%rax
  401269:	48 c1 e0 03          	shl    $0x3,%rax
  40126d:	48 03 85 60 ff ff ff 	add    -0xa0(%rbp),%rax
  401274:	8b 08                	mov    (%rax),%ecx
  401276:	8b 70 04             	mov    0x4(%rax),%esi
  401279:	8b 85 5c ff ff ff    	mov    -0xa4(%rbp),%eax
  40127f:	8b 95 58 ff ff ff    	mov    -0xa8(%rbp),%edx
  401285:	89 45 80             	mov    %eax,-0x80(%rbp)
  401288:	89 55 84             	mov    %edx,-0x7c(%rbp)
  40128b:	48 8b 7d 80          	mov    -0x80(%rbp),%rdi
  40128f:	89 c8                	mov    %ecx,%eax
  401291:	89 f2                	mov    %esi,%edx
  401293:	89 85 78 ff ff ff    	mov    %eax,-0x88(%rbp)
  401299:	89 95 7c ff ff ff    	mov    %edx,-0x84(%rbp)
  40129f:	48 8b 85 78 ff ff ff 	mov    -0x88(%rbp),%rax
  4012a6:	66 48 0f 6e cf       	movq   %rdi,%xmm1
  4012ab:	66 48 0f 6e c0       	movq   %rax,%xmm0
  4012b0:	e8 d9 31 00 00       	callq  40448e <_D3std8typeinfo9ti_cfloat10TypeInfo_q8_compareFqqZi>
  4012b5:	89 45 fc             	mov    %eax,-0x4(%rbp)
	    if (c)
  4012b8:	83 7d fc 00          	cmpl   $0x0,-0x4(%rbp)
  4012bc:	74 0b                	je     4012c9 <_D3std8typeinfo10ti_Acfloat11TypeInfo_Aq7compareMFPvPvZi+0x190>
		return c;
  4012be:	8b 45 fc             	mov    -0x4(%rbp),%eax
  4012c1:	89 85 74 ff ff ff    	mov    %eax,-0x8c(%rbp)
  4012c7:	eb 45                	jmp    40130e <_D3std8typeinfo10ti_Acfloat11TypeInfo_Aq7compareMFPvPvZi+0x1d5>
	if (s2.length < len)
	    len = s2.length;
	for (size_t u = 0; u < len; u++)
	{
	    int c = TypeInfo_q._compare(s1[u], s2[u]);
	    if (c)
  4012c9:	48 ff 45 f0          	incq   -0x10(%rbp)
  4012cd:	e9 cf fe ff ff       	jmpq   4011a1 <_D3std8typeinfo10ti_Acfloat11TypeInfo_Aq7compareMFPvPvZi+0x68>
		return c;
	}
	if (s1.length < s2.length)
  4012d2:	48 8b 55 a0          	mov    -0x60(%rbp),%rdx
  4012d6:	48 8b 45 b0          	mov    -0x50(%rbp),%rax
  4012da:	48 39 c2             	cmp    %rax,%rdx
  4012dd:	73 0c                	jae    4012eb <_D3std8typeinfo10ti_Acfloat11TypeInfo_Aq7compareMFPvPvZi+0x1b2>
	    return -1;
  4012df:	c7 85 74 ff ff ff ff 	movl   $0xffffffff,-0x8c(%rbp)
  4012e6:	ff ff ff 
  4012e9:	eb 23                	jmp    40130e <_D3std8typeinfo10ti_Acfloat11TypeInfo_Aq7compareMFPvPvZi+0x1d5>
	else if (s1.length > s2.length)
  4012eb:	48 8b 55 a0          	mov    -0x60(%rbp),%rdx
  4012ef:	48 8b 45 b0          	mov    -0x50(%rbp),%rax
  4012f3:	48 39 c2             	cmp    %rax,%rdx
  4012f6:	76 0c                	jbe    401304 <_D3std8typeinfo10ti_Acfloat11TypeInfo_Aq7compareMFPvPvZi+0x1cb>
	    return 1;
  4012f8:	c7 85 74 ff ff ff 01 	movl   $0x1,-0x8c(%rbp)
  4012ff:	00 00 00 
  401302:	eb 0a                	jmp    40130e <_D3std8typeinfo10ti_Acfloat11TypeInfo_Aq7compareMFPvPvZi+0x1d5>
	return 0;
  401304:	c7 85 74 ff ff ff 00 	movl   $0x0,-0x8c(%rbp)
  40130b:	00 00 00 
  40130e:	8b 85 74 ff ff ff    	mov    -0x8c(%rbp),%eax
    }
  401314:	c9                   	leaveq 
  401315:	c3                   	retq   

0000000000401316 <_D3std8typeinfo10ti_Acfloat11TypeInfo_Aq5tsizeMFZm>:

    size_t tsize()
  401316:	55                   	push   %rbp
  401317:	48 89 e5             	mov    %rsp,%rbp
  40131a:	48 83 ec 10          	sub    $0x10,%rsp
  40131e:	48 89 7d f8          	mov    %rdi,-0x8(%rbp)
  401322:	48 8b 7d f8          	mov    -0x8(%rbp),%rdi
  401326:	e8 51 80 00 00       	callq  40937c <_D9invariant12_d_invariantFC6ObjectZv>
    {
	return (cfloat[]).sizeof;
  40132b:	b8 10 00 00 00       	mov    $0x10,%eax
    }
  401330:	c9                   	leaveq 
  401331:	c3                   	retq   

0000000000401332 <_D3std8typeinfo10ti_Acfloat11TypeInfo_Aq5flagsMFZk>:

    uint flags()
  401332:	55                   	push   %rbp
  401333:	48 89 e5             	mov    %rsp,%rbp
  401336:	48 83 ec 10          	sub    $0x10,%rsp
  40133a:	48 89 7d f8          	mov    %rdi,-0x8(%rbp)
  40133e:	48 8b 7d f8          	mov    -0x8(%rbp),%rdi
  401342:	e8 35 80 00 00       	callq  40937c <_D9invariant12_d_invariantFC6ObjectZv>
    {
	return 1;
  401347:	b8 01 00 00 00       	mov    $0x1,%eax
    }
  40134c:	c9                   	leaveq 
  40134d:	c3                   	retq   

000000000040134e <_D3std8typeinfo10ti_Acfloat11TypeInfo_Aq4nextMFZC8TypeInfo>:

    TypeInfo next()
  40134e:	55                   	push   %rbp
  40134f:	48 89 e5             	mov    %rsp,%rbp
  401352:	48 83 ec 10          	sub    $0x10,%rsp
  401356:	48 89 7d f8          	mov    %rdi,-0x8(%rbp)
  40135a:	48 8b 7d f8          	mov    -0x8(%rbp),%rdi
  40135e:	e8 19 80 00 00       	callq  40937c <_D9invariant12_d_invariantFC6ObjectZv>
    {
	return typeid(cfloat);
  401363:	48 c7 c0 b0 08 41 00 	mov    $0x4108b0,%rax
    }
  40136a:	c9                   	leaveq 
  40136b:	c3                   	retq   

000000000040136c <_D3std8typeinfo9ti_Acreal11TypeInfo_Ac8toStringMFZAa>:

// creal[]

class TypeInfo_Ac : TypeInfo
{
    char[] toString() { return "creal[]"; }
  40136c:	55                   	push   %rbp
  40136d:	48 89 e5             	mov    %rsp,%rbp
  401370:	53                   	push   %rbx
  401371:	48 83 ec 08          	sub    $0x8,%rsp
  401375:	48 89 fb             	mov    %rdi,%rbx
  401378:	48 89 75 f0          	mov    %rsi,-0x10(%rbp)
  40137c:	48 8b 7d f0          	mov    -0x10(%rbp),%rdi
  401380:	e8 f7 7f 00 00       	callq  40937c <_D9invariant12_d_invariantFC6ObjectZv>
  401385:	48 c7 03 07 00 00 00 	movq   $0x7,(%rbx)
  40138c:	48 c7 43 08 80 f8 40 	movq   $0x40f880,0x8(%rbx)
  401393:	00 
  401394:	48 89 d8             	mov    %rbx,%rax
  401397:	48 83 c4 08          	add    $0x8,%rsp
  40139b:	5b                   	pop    %rbx
  40139c:	c9                   	leaveq 
  40139d:	c3                   	retq   

000000000040139e <_D3std8typeinfo9ti_Acreal11TypeInfo_Ac7getHashMFPvZm>:

    hash_t getHash(void *p)
  40139e:	55                   	push   %rbp
  40139f:	48 89 e5             	mov    %rsp,%rbp
  4013a2:	48 83 ec 40          	sub    $0x40,%rsp
  4013a6:	48 89 7d c8          	mov    %rdi,-0x38(%rbp)
  4013aa:	48 89 75 c0          	mov    %rsi,-0x40(%rbp)
  4013ae:	48 8b 7d c8          	mov    -0x38(%rbp),%rdi
  4013b2:	e8 c5 7f 00 00       	callq  40937c <_D9invariant12_d_invariantFC6ObjectZv>
    {	creal[] s = *cast(creal[]*)p;
  4013b7:	48 8b 55 c0          	mov    -0x40(%rbp),%rdx
  4013bb:	48 8b 02             	mov    (%rdx),%rax
  4013be:	48 89 45 d0          	mov    %rax,-0x30(%rbp)
  4013c2:	48 8b 42 08          	mov    0x8(%rdx),%rax
  4013c6:	48 89 45 d8          	mov    %rax,-0x28(%rbp)
	size_t len = s.length;
  4013ca:	48 8b 45 d0          	mov    -0x30(%rbp),%rax
  4013ce:	48 89 45 f8          	mov    %rax,-0x8(%rbp)
	creal *str = s.ptr;
  4013d2:	48 8b 45 d8          	mov    -0x28(%rbp),%rax
  4013d6:	48 89 45 f0          	mov    %rax,-0x10(%rbp)
	hash_t hash = 0;
  4013da:	48 c7 45 e8 00 00 00 	movq   $0x0,-0x18(%rbp)
  4013e1:	00 

	while (len)
  4013e2:	48 83 7d f8 00       	cmpq   $0x0,-0x8(%rbp)
  4013e7:	0f 95 c0             	setne  %al
  4013ea:	83 f0 01             	xor    $0x1,%eax
  4013ed:	84 c0                	test   %al,%al
  4013ef:	0f 85 89 00 00 00    	jne    40147e <_D3std8typeinfo9ti_Acreal11TypeInfo_Ac7getHashMFPvZm+0xe0>
	{
	    hash *= 9;
  4013f5:	48 8b 55 e8          	mov    -0x18(%rbp),%rdx
  4013f9:	48 89 d0             	mov    %rdx,%rax
  4013fc:	48 c1 e0 03          	shl    $0x3,%rax
  401400:	48 01 d0             	add    %rdx,%rax
  401403:	48 89 45 e8          	mov    %rax,-0x18(%rbp)
	    hash += (cast(uint *)str)[0];
  401407:	48 8b 55 f0          	mov    -0x10(%rbp),%rdx
  40140b:	b8 00 00 00 00       	mov    $0x0,%eax
  401410:	48 8d 04 02          	lea    (%rdx,%rax,1),%rax
  401414:	8b 00                	mov    (%rax),%eax
  401416:	89 c0                	mov    %eax,%eax
  401418:	48 01 45 e8          	add    %rax,-0x18(%rbp)
	    hash += (cast(uint *)str)[1];
  40141c:	48 8b 55 f0          	mov    -0x10(%rbp),%rdx
  401420:	b8 04 00 00 00       	mov    $0x4,%eax
  401425:	48 8d 04 02          	lea    (%rdx,%rax,1),%rax
  401429:	8b 00                	mov    (%rax),%eax
  40142b:	89 c0                	mov    %eax,%eax
  40142d:	48 01 45 e8          	add    %rax,-0x18(%rbp)
	    hash += (cast(uint *)str)[2];
  401431:	48 8b 55 f0          	mov    -0x10(%rbp),%rdx
  401435:	b8 08 00 00 00       	mov    $0x8,%eax
  40143a:	48 8d 04 02          	lea    (%rdx,%rax,1),%rax
  40143e:	8b 00                	mov    (%rax),%eax
  401440:	89 c0                	mov    %eax,%eax
  401442:	48 01 45 e8          	add    %rax,-0x18(%rbp)
	    hash += (cast(uint *)str)[3];
  401446:	48 8b 55 f0          	mov    -0x10(%rbp),%rdx
  40144a:	b8 0c 00 00 00       	mov    $0xc,%eax
  40144f:	48 8d 04 02          	lea    (%rdx,%rax,1),%rax
  401453:	8b 00                	mov    (%rax),%eax
  401455:	89 c0                	mov    %eax,%eax
  401457:	48 01 45 e8          	add    %rax,-0x18(%rbp)
	    hash += (cast(uint *)str)[4];
  40145b:	48 8b 55 f0          	mov    -0x10(%rbp),%rdx
  40145f:	b8 10 00 00 00       	mov    $0x10,%eax
  401464:	48 8d 04 02          	lea    (%rdx,%rax,1),%rax
  401468:	8b 00                	mov    (%rax),%eax
  40146a:	89 c0                	mov    %eax,%eax
  40146c:	48 01 45 e8          	add    %rax,-0x18(%rbp)
	    str++;
  401470:	48 83 45 f0 20       	addq   $0x20,-0x10(%rbp)
	    len--;
  401475:	48 ff 4d f8          	decq   -0x8(%rbp)
  401479:	e9 64 ff ff ff       	jmpq   4013e2 <_D3std8typeinfo9ti_Acreal11TypeInfo_Ac7getHashMFPvZm+0x44>
	}

	return hash;
  40147e:	48 8b 45 e8          	mov    -0x18(%rbp),%rax
    }
  401482:	c9                   	leaveq 
  401483:	c3                   	retq   

0000000000401484 <_D3std8typeinfo9ti_Acreal11TypeInfo_Ac6equalsMFPvPvZi>:

    int equals(void *p1, void *p2)
  401484:	55                   	push   %rbp
  401485:	48 89 e5             	mov    %rsp,%rbp
  401488:	48 81 ec 10 01 00 00 	sub    $0x110,%rsp
  40148f:	48 89 7d 98          	mov    %rdi,-0x68(%rbp)
  401493:	48 89 75 90          	mov    %rsi,-0x70(%rbp)
  401497:	48 89 55 88          	mov    %rdx,-0x78(%rbp)
  40149b:	48 8b 7d 98          	mov    -0x68(%rbp),%rdi
  40149f:	e8 d8 7e 00 00       	callq  40937c <_D9invariant12_d_invariantFC6ObjectZv>
    {
	creal[] s1 = *cast(creal[]*)p1;
  4014a4:	48 8b 55 90          	mov    -0x70(%rbp),%rdx
  4014a8:	48 8b 02             	mov    (%rdx),%rax
  4014ab:	48 89 45 a0          	mov    %rax,-0x60(%rbp)
  4014af:	48 8b 42 08          	mov    0x8(%rdx),%rax
  4014b3:	48 89 45 a8          	mov    %rax,-0x58(%rbp)
	creal[] s2 = *cast(creal[]*)p2;
  4014b7:	48 8b 55 88          	mov    -0x78(%rbp),%rdx
  4014bb:	48 8b 02             	mov    (%rdx),%rax
  4014be:	48 89 45 b0          	mov    %rax,-0x50(%rbp)
  4014c2:	48 8b 42 08          	mov    0x8(%rdx),%rax
  4014c6:	48 89 45 b8          	mov    %rax,-0x48(%rbp)
	size_t len = s1.length;
  4014ca:	48 8b 45 a0          	mov    -0x60(%rbp),%rax
  4014ce:	48 89 45 e8          	mov    %rax,-0x18(%rbp)

	if (len != s2.length)
  4014d2:	48 8b 45 b0          	mov    -0x50(%rbp),%rax
  4014d6:	48 39 45 e8          	cmp    %rax,-0x18(%rbp)
  4014da:	74 0f                	je     4014eb <_D3std8typeinfo9ti_Acreal11TypeInfo_Ac6equalsMFPvPvZi+0x67>
	    return 0;
  4014dc:	c7 85 3c ff ff ff 00 	movl   $0x0,-0xc4(%rbp)
  4014e3:	00 00 00 
  4014e6:	e9 34 01 00 00       	jmpq   40161f <_D3std8typeinfo9ti_Acreal11TypeInfo_Ac6equalsMFPvPvZi+0x19b>
	for (size_t u = 0; u < len; u++)
  4014eb:	48 c7 45 f0 00 00 00 	movq   $0x0,-0x10(%rbp)
  4014f2:	00 
  4014f3:	48 8b 45 f0          	mov    -0x10(%rbp),%rax
  4014f7:	48 3b 45 e8          	cmp    -0x18(%rbp),%rax
  4014fb:	0f 92 c0             	setb   %al
  4014fe:	83 f0 01             	xor    $0x1,%eax
  401501:	84 c0                	test   %al,%al
  401503:	0f 85 0c 01 00 00    	jne    401615 <_D3std8typeinfo9ti_Acreal11TypeInfo_Ac6equalsMFPvPvZi+0x191>
	{
	    int c = TypeInfo_c._equals(s1[u], s2[u]);
  401509:	48 8b 45 b8          	mov    -0x48(%rbp),%rax
  40150d:	48 89 85 40 ff ff ff 	mov    %rax,-0xc0(%rbp)
  401514:	48 8b 45 b0          	mov    -0x50(%rbp),%rax
  401518:	48 39 45 f0          	cmp    %rax,-0x10(%rbp)
  40151c:	73 0d                	jae    40152b <_D3std8typeinfo9ti_Acreal11TypeInfo_Ac6equalsMFPvPvZi+0xa7>
  40151e:	48 8b 45 f0          	mov    -0x10(%rbp),%rax
  401522:	48 89 85 48 ff ff ff 	mov    %rax,-0xb8(%rbp)
  401529:	eb 22                	jmp    40154d <_D3std8typeinfo9ti_Acreal11TypeInfo_Ac6equalsMFPvPvZi+0xc9>
  40152b:	48 c7 45 c0 18 00 00 	movq   $0x18,-0x40(%rbp)
  401532:	00 
  401533:	48 c7 45 c8 88 f8 40 	movq   $0x40f888,-0x38(%rbp)
  40153a:	00 
  40153b:	48 8b 7d c0          	mov    -0x40(%rbp),%rdi
  40153f:	48 8b 75 c8          	mov    -0x38(%rbp),%rsi
  401543:	ba 41 00 00 00       	mov    $0x41,%edx
  401548:	e8 f8 98 00 00       	callq  40ae45 <_d_array_bounds>
  40154d:	48 8b 85 48 ff ff ff 	mov    -0xb8(%rbp),%rax
  401554:	48 c1 e0 05          	shl    $0x5,%rax
  401558:	48 03 85 40 ff ff ff 	add    -0xc0(%rbp),%rax
  40155f:	db 28                	fldt   (%rax)
  401561:	db bd 60 ff ff ff    	fstpt  -0xa0(%rbp)
  401567:	db 68 10             	fldt   0x10(%rax)
  40156a:	db bd 50 ff ff ff    	fstpt  -0xb0(%rbp)
  401570:	48 8b 45 a8          	mov    -0x58(%rbp),%rax
  401574:	48 89 85 78 ff ff ff 	mov    %rax,-0x88(%rbp)
  40157b:	48 8b 45 a0          	mov    -0x60(%rbp),%rax
  40157f:	48 39 45 f0          	cmp    %rax,-0x10(%rbp)
  401583:	73 0a                	jae    40158f <_D3std8typeinfo9ti_Acreal11TypeInfo_Ac6equalsMFPvPvZi+0x10b>
  401585:	48 8b 45 f0          	mov    -0x10(%rbp),%rax
  401589:	48 89 45 80          	mov    %rax,-0x80(%rbp)
  40158d:	eb 22                	jmp    4015b1 <_D3std8typeinfo9ti_Acreal11TypeInfo_Ac6equalsMFPvPvZi+0x12d>
  40158f:	48 c7 45 d0 18 00 00 	movq   $0x18,-0x30(%rbp)
  401596:	00 
  401597:	48 c7 45 d8 88 f8 40 	movq   $0x40f888,-0x28(%rbp)
  40159e:	00 
  40159f:	48 8b 7d d0          	mov    -0x30(%rbp),%rdi
  4015a3:	48 8b 75 d8          	mov    -0x28(%rbp),%rsi
  4015a7:	ba 41 00 00 00       	mov    $0x41,%edx
  4015ac:	e8 94 98 00 00       	callq  40ae45 <_d_array_bounds>
  4015b1:	48 8b 45 80          	mov    -0x80(%rbp),%rax
  4015b5:	48 c1 e0 05          	shl    $0x5,%rax
  4015b9:	48 03 85 78 ff ff ff 	add    -0x88(%rbp),%rax
  4015c0:	48 8b 10             	mov    (%rax),%rdx
  4015c3:	8b 48 08             	mov    0x8(%rax),%ecx
  4015c6:	48 8b 70 10          	mov    0x10(%rax),%rsi
  4015ca:	8b 78 18             	mov    0x18(%rax),%edi
  4015cd:	db ad 60 ff ff ff    	fldt   -0xa0(%rbp)
  4015d3:	db 7c 24 20          	fstpt  0x20(%rsp)
  4015d7:	db ad 50 ff ff ff    	fldt   -0xb0(%rbp)
  4015dd:	db 7c 24 30          	fstpt  0x30(%rsp)
  4015e1:	48 89 14 24          	mov    %rdx,(%rsp)
  4015e5:	89 4c 24 08          	mov    %ecx,0x8(%rsp)
  4015e9:	48 89 74 24 10       	mov    %rsi,0x10(%rsp)
  4015ee:	89 7c 24 18          	mov    %edi,0x18(%rsp)
  4015f2:	e8 bc 32 00 00       	callq  4048b3 <_D3std8typeinfo8ti_creal10TypeInfo_c7_equalsFccZi>
  4015f7:	89 45 fc             	mov    %eax,-0x4(%rbp)
	    if (c == 0)
  4015fa:	83 7d fc 00          	cmpl   $0x0,-0x4(%rbp)
  4015fe:	75 0c                	jne    40160c <_D3std8typeinfo9ti_Acreal11TypeInfo_Ac6equalsMFPvPvZi+0x188>
		return 0;
  401600:	c7 85 3c ff ff ff 00 	movl   $0x0,-0xc4(%rbp)
  401607:	00 00 00 
  40160a:	eb 13                	jmp    40161f <_D3std8typeinfo9ti_Acreal11TypeInfo_Ac6equalsMFPvPvZi+0x19b>
	if (len != s2.length)
	    return 0;
	for (size_t u = 0; u < len; u++)
	{
	    int c = TypeInfo_c._equals(s1[u], s2[u]);
	    if (c == 0)
  40160c:	48 ff 45 f0          	incq   -0x10(%rbp)
  401610:	e9 de fe ff ff       	jmpq   4014f3 <_D3std8typeinfo9ti_Acreal11TypeInfo_Ac6equalsMFPvPvZi+0x6f>
		return 0;
	}
	return 1;
  401615:	c7 85 3c ff ff ff 01 	movl   $0x1,-0xc4(%rbp)
  40161c:	00 00 00 
  40161f:	8b 85 3c ff ff ff    	mov    -0xc4(%rbp),%eax
    }
  401625:	c9                   	leaveq 
  401626:	c3                   	retq   

0000000000401627 <_D3std8typeinfo9ti_Acreal11TypeInfo_Ac7compareMFPvPvZi>:

    int compare(void *p1, void *p2)
  401627:	55                   	push   %rbp
  401628:	48 89 e5             	mov    %rsp,%rbp
  40162b:	48 81 ec 00 01 00 00 	sub    $0x100,%rsp
  401632:	48 89 7d 98          	mov    %rdi,-0x68(%rbp)
  401636:	48 89 75 90          	mov    %rsi,-0x70(%rbp)
  40163a:	48 89 55 88          	mov    %rdx,-0x78(%rbp)
  40163e:	48 8b 7d 98          	mov    -0x68(%rbp),%rdi
  401642:	e8 35 7d 00 00       	callq  40937c <_D9invariant12_d_invariantFC6ObjectZv>
    {
	creal[] s1 = *cast(creal[]*)p1;
  401647:	48 8b 55 90          	mov    -0x70(%rbp),%rdx
  40164b:	48 8b 02             	mov    (%rdx),%rax
  40164e:	48 89 45 a0          	mov    %rax,-0x60(%rbp)
  401652:	48 8b 42 08          	mov    0x8(%rdx),%rax
  401656:	48 89 45 a8          	mov    %rax,-0x58(%rbp)
	creal[] s2 = *cast(creal[]*)p2;
  40165a:	48 8b 55 88          	mov    -0x78(%rbp),%rdx
  40165e:	48 8b 02             	mov    (%rdx),%rax
  401661:	48 89 45 b0          	mov    %rax,-0x50(%rbp)
  401665:	48 8b 42 08          	mov    0x8(%rdx),%rax
  401669:	48 89 45 b8          	mov    %rax,-0x48(%rbp)
	size_t len = s1.length;
  40166d:	48 8b 45 a0          	mov    -0x60(%rbp),%rax
  401671:	48 89 45 e8          	mov    %rax,-0x18(%rbp)

	if (s2.length < len)
  401675:	48 8b 45 b0          	mov    -0x50(%rbp),%rax
  401679:	48 3b 45 e8          	cmp    -0x18(%rbp),%rax
  40167d:	73 08                	jae    401687 <_D3std8typeinfo9ti_Acreal11TypeInfo_Ac7compareMFPvPvZi+0x60>
	    len = s2.length;
  40167f:	48 8b 45 b0          	mov    -0x50(%rbp),%rax
  401683:	48 89 45 e8          	mov    %rax,-0x18(%rbp)
	for (size_t u = 0; u < len; u++)
  401687:	48 c7 45 f0 00 00 00 	movq   $0x0,-0x10(%rbp)
  40168e:	00 
  40168f:	48 8b 45 f0          	mov    -0x10(%rbp),%rax
  401693:	48 3b 45 e8          	cmp    -0x18(%rbp),%rax
  401697:	0f 92 c0             	setb   %al
  40169a:	83 f0 01             	xor    $0x1,%eax
  40169d:	84 c0                	test   %al,%al
  40169f:	0f 85 0e 01 00 00    	jne    4017b3 <_D3std8typeinfo9ti_Acreal11TypeInfo_Ac7compareMFPvPvZi+0x18c>
	{
	    int c = TypeInfo_c._compare(s1[u], s2[u]);
  4016a5:	48 8b 45 b8          	mov    -0x48(%rbp),%rax
  4016a9:	48 89 85 40 ff ff ff 	mov    %rax,-0xc0(%rbp)
  4016b0:	48 8b 45 b0          	mov    -0x50(%rbp),%rax
  4016b4:	48 39 45 f0          	cmp    %rax,-0x10(%rbp)
  4016b8:	73 0d                	jae    4016c7 <_D3std8typeinfo9ti_Acreal11TypeInfo_Ac7compareMFPvPvZi+0xa0>
  4016ba:	48 8b 45 f0          	mov    -0x10(%rbp),%rax
  4016be:	48 89 85 48 ff ff ff 	mov    %rax,-0xb8(%rbp)
  4016c5:	eb 22                	jmp    4016e9 <_D3std8typeinfo9ti_Acreal11TypeInfo_Ac7compareMFPvPvZi+0xc2>
  4016c7:	48 c7 45 c0 18 00 00 	movq   $0x18,-0x40(%rbp)
  4016ce:	00 
  4016cf:	48 c7 45 c8 88 f8 40 	movq   $0x40f888,-0x38(%rbp)
  4016d6:	00 
  4016d7:	48 8b 7d c0          	mov    -0x40(%rbp),%rdi
  4016db:	48 8b 75 c8          	mov    -0x38(%rbp),%rsi
  4016df:	ba 52 00 00 00       	mov    $0x52,%edx
  4016e4:	e8 5c 97 00 00       	callq  40ae45 <_d_array_bounds>
  4016e9:	48 8b 85 48 ff ff ff 	mov    -0xb8(%rbp),%rax
  4016f0:	48 c1 e0 05          	shl    $0x5,%rax
  4016f4:	48 03 85 40 ff ff ff 	add    -0xc0(%rbp),%rax
  4016fb:	db 28                	fldt   (%rax)
  4016fd:	db bd 60 ff ff ff    	fstpt  -0xa0(%rbp)
  401703:	db 68 10             	fldt   0x10(%rax)
  401706:	db bd 50 ff ff ff    	fstpt  -0xb0(%rbp)
  40170c:	48 8b 45 a8          	mov    -0x58(%rbp),%rax
  401710:	48 89 85 70 ff ff ff 	mov    %rax,-0x90(%rbp)
  401717:	48 8b 45 a0          	mov    -0x60(%rbp),%rax
  40171b:	48 39 45 f0          	cmp    %rax,-0x10(%rbp)
  40171f:	73 0d                	jae    40172e <_D3std8typeinfo9ti_Acreal11TypeInfo_Ac7compareMFPvPvZi+0x107>
  401721:	48 8b 45 f0          	mov    -0x10(%rbp),%rax
  401725:	48 89 85 78 ff ff ff 	mov    %rax,-0x88(%rbp)
  40172c:	eb 22                	jmp    401750 <_D3std8typeinfo9ti_Acreal11TypeInfo_Ac7compareMFPvPvZi+0x129>
  40172e:	48 c7 45 d0 18 00 00 	movq   $0x18,-0x30(%rbp)
  401735:	00 
  401736:	48 c7 45 d8 88 f8 40 	movq   $0x40f888,-0x28(%rbp)
  40173d:	00 
  40173e:	48 8b 7d d0          	mov    -0x30(%rbp),%rdi
  401742:	48 8b 75 d8          	mov    -0x28(%rbp),%rsi
  401746:	ba 52 00 00 00       	mov    $0x52,%edx
  40174b:	e8 f5 96 00 00       	callq  40ae45 <_d_array_bounds>
  401750:	48 8b 85 78 ff ff ff 	mov    -0x88(%rbp),%rax
  401757:	48 c1 e0 05          	shl    $0x5,%rax
  40175b:	48 03 85 70 ff ff ff 	add    -0x90(%rbp),%rax
  401762:	48 8b 10             	mov    (%rax),%rdx
  401765:	8b 48 08             	mov    0x8(%rax),%ecx
  401768:	48 8b 70 10          	mov    0x10(%rax),%rsi
  40176c:	8b 78 18             	mov    0x18(%rax),%edi
  40176f:	db ad 60 ff ff ff    	fldt   -0xa0(%rbp)
  401775:	db 7c 24 20          	fstpt  0x20(%rsp)
  401779:	db ad 50 ff ff ff    	fldt   -0xb0(%rbp)
  40177f:	db 7c 24 30          	fstpt  0x30(%rsp)
  401783:	48 89 14 24          	mov    %rdx,(%rsp)
  401787:	89 4c 24 08          	mov    %ecx,0x8(%rsp)
  40178b:	48 89 74 24 10       	mov    %rsi,0x10(%rsp)
  401790:	89 7c 24 18          	mov    %edi,0x18(%rsp)
  401794:	e8 4b 31 00 00       	callq  4048e4 <_D3std8typeinfo8ti_creal10TypeInfo_c8_compareFccZi>
  401799:	89 45 fc             	mov    %eax,-0x4(%rbp)
	    if (c)
  40179c:	83 7d fc 00          	cmpl   $0x0,-0x4(%rbp)
  4017a0:	74 08                	je     4017aa <_D3std8typeinfo9ti_Acreal11TypeInfo_Ac7compareMFPvPvZi+0x183>
		return c;
  4017a2:	8b 45 fc             	mov    -0x4(%rbp),%eax
  4017a5:	89 45 84             	mov    %eax,-0x7c(%rbp)
  4017a8:	eb 3c                	jmp    4017e6 <_D3std8typeinfo9ti_Acreal11TypeInfo_Ac7compareMFPvPvZi+0x1bf>
	if (s2.length < len)
	    len = s2.length;
	for (size_t u = 0; u < len; u++)
	{
	    int c = TypeInfo_c._compare(s1[u], s2[u]);
	    if (c)
  4017aa:	48 ff 45 f0          	incq   -0x10(%rbp)
  4017ae:	e9 dc fe ff ff       	jmpq   40168f <_D3std8typeinfo9ti_Acreal11TypeInfo_Ac7compareMFPvPvZi+0x68>
		return c;
	}
	if (s1.length < s2.length)
  4017b3:	48 8b 55 a0          	mov    -0x60(%rbp),%rdx
  4017b7:	48 8b 45 b0          	mov    -0x50(%rbp),%rax
  4017bb:	48 39 c2             	cmp    %rax,%rdx
  4017be:	73 09                	jae    4017c9 <_D3std8typeinfo9ti_Acreal11TypeInfo_Ac7compareMFPvPvZi+0x1a2>
	    return -1;
  4017c0:	c7 45 84 ff ff ff ff 	movl   $0xffffffff,-0x7c(%rbp)
  4017c7:	eb 1d                	jmp    4017e6 <_D3std8typeinfo9ti_Acreal11TypeInfo_Ac7compareMFPvPvZi+0x1bf>
	else if (s1.length > s2.length)
  4017c9:	48 8b 55 a0          	mov    -0x60(%rbp),%rdx
  4017cd:	48 8b 45 b0          	mov    -0x50(%rbp),%rax
  4017d1:	48 39 c2             	cmp    %rax,%rdx
  4017d4:	76 09                	jbe    4017df <_D3std8typeinfo9ti_Acreal11TypeInfo_Ac7compareMFPvPvZi+0x1b8>
	    return 1;
  4017d6:	c7 45 84 01 00 00 00 	movl   $0x1,-0x7c(%rbp)
  4017dd:	eb 07                	jmp    4017e6 <_D3std8typeinfo9ti_Acreal11TypeInfo_Ac7compareMFPvPvZi+0x1bf>
	return 0;
  4017df:	c7 45 84 00 00 00 00 	movl   $0x0,-0x7c(%rbp)
  4017e6:	8b 45 84             	mov    -0x7c(%rbp),%eax
    }
  4017e9:	c9                   	leaveq 
  4017ea:	c3                   	retq   

00000000004017eb <_D3std8typeinfo9ti_Acreal11TypeInfo_Ac5tsizeMFZm>:

    size_t tsize()
  4017eb:	55                   	push   %rbp
  4017ec:	48 89 e5             	mov    %rsp,%rbp
  4017ef:	48 83 ec 10          	sub    $0x10,%rsp
  4017f3:	48 89 7d f8          	mov    %rdi,-0x8(%rbp)
  4017f7:	48 8b 7d f8          	mov    -0x8(%rbp),%rdi
  4017fb:	e8 7c 7b 00 00       	callq  40937c <_D9invariant12_d_invariantFC6ObjectZv>
    {
	return (creal[]).sizeof;
  401800:	b8 10 00 00 00       	mov    $0x10,%eax
    }
  401805:	c9                   	leaveq 
  401806:	c3                   	retq   

0000000000401807 <_D3std8typeinfo9ti_Acreal11TypeInfo_Ac5flagsMFZk>:

    uint flags()
  401807:	55                   	push   %rbp
  401808:	48 89 e5             	mov    %rsp,%rbp
  40180b:	48 83 ec 10          	sub    $0x10,%rsp
  40180f:	48 89 7d f8          	mov    %rdi,-0x8(%rbp)
  401813:	48 8b 7d f8          	mov    -0x8(%rbp),%rdi
  401817:	e8 60 7b 00 00       	callq  40937c <_D9invariant12_d_invariantFC6ObjectZv>
    {
	return 1;
  40181c:	b8 01 00 00 00       	mov    $0x1,%eax
    }
  401821:	c9                   	leaveq 
  401822:	c3                   	retq   

0000000000401823 <_D3std8typeinfo9ti_Acreal11TypeInfo_Ac4nextMFZC8TypeInfo>:

    TypeInfo next()
  401823:	55                   	push   %rbp
  401824:	48 89 e5             	mov    %rsp,%rbp
  401827:	48 83 ec 10          	sub    $0x10,%rsp
  40182b:	48 89 7d f8          	mov    %rdi,-0x8(%rbp)
  40182f:	48 8b 7d f8          	mov    -0x8(%rbp),%rdi
  401833:	e8 44 7b 00 00       	callq  40937c <_D9invariant12_d_invariantFC6ObjectZv>
    {
	return typeid(creal);
  401838:	48 c7 c0 30 0a 41 00 	mov    $0x410a30,%rax
    }
  40183f:	c9                   	leaveq 
  401840:	c3                   	retq   
  401841:	90                   	nop    
  401842:	90                   	nop    
  401843:	90                   	nop    

0000000000401844 <_D3std8typeinfo10ti_Adouble11TypeInfo_Ad8toStringMFZAa>:

// double[]

class TypeInfo_Ad : TypeInfo
{
    char[] toString() { return "double[]"; }
  401844:	55                   	push   %rbp
  401845:	48 89 e5             	mov    %rsp,%rbp
  401848:	53                   	push   %rbx
  401849:	48 83 ec 08          	sub    $0x8,%rsp
  40184d:	48 89 fb             	mov    %rdi,%rbx
  401850:	48 89 75 f0          	mov    %rsi,-0x10(%rbp)
  401854:	48 8b 7d f0          	mov    -0x10(%rbp),%rdi
  401858:	e8 1f 7b 00 00       	callq  40937c <_D9invariant12_d_invariantFC6ObjectZv>
  40185d:	48 c7 03 08 00 00 00 	movq   $0x8,(%rbx)
  401864:	48 c7 43 08 60 f9 40 	movq   $0x40f960,0x8(%rbx)
  40186b:	00 
  40186c:	48 89 d8             	mov    %rbx,%rax
  40186f:	48 83 c4 08          	add    $0x8,%rsp
  401873:	5b                   	pop    %rbx
  401874:	c9                   	leaveq 
  401875:	c3                   	retq   

0000000000401876 <_D3std8typeinfo10ti_Adouble11TypeInfo_Ad7getHashMFPvZm>:

    hash_t getHash(void *p)
  401876:	55                   	push   %rbp
  401877:	48 89 e5             	mov    %rsp,%rbp
  40187a:	48 83 ec 40          	sub    $0x40,%rsp
  40187e:	48 89 7d c8          	mov    %rdi,-0x38(%rbp)
  401882:	48 89 75 c0          	mov    %rsi,-0x40(%rbp)
  401886:	48 8b 7d c8          	mov    -0x38(%rbp),%rdi
  40188a:	e8 ed 7a 00 00       	callq  40937c <_D9invariant12_d_invariantFC6ObjectZv>
    {	double[] s = *cast(double[]*)p;
  40188f:	48 8b 55 c0          	mov    -0x40(%rbp),%rdx
  401893:	48 8b 02             	mov    (%rdx),%rax
  401896:	48 89 45 d0          	mov    %rax,-0x30(%rbp)
  40189a:	48 8b 42 08          	mov    0x8(%rdx),%rax
  40189e:	48 89 45 d8          	mov    %rax,-0x28(%rbp)
	size_t len = s.length;
  4018a2:	48 8b 45 d0          	mov    -0x30(%rbp),%rax
  4018a6:	48 89 45 f8          	mov    %rax,-0x8(%rbp)
	auto str = s.ptr;
  4018aa:	48 8b 45 d8          	mov    -0x28(%rbp),%rax
  4018ae:	48 89 45 f0          	mov    %rax,-0x10(%rbp)
	hash_t hash = 0;
  4018b2:	48 c7 45 e8 00 00 00 	movq   $0x0,-0x18(%rbp)
  4018b9:	00 

	while (len)
  4018ba:	48 83 7d f8 00       	cmpq   $0x0,-0x8(%rbp)
  4018bf:	0f 95 c0             	setne  %al
  4018c2:	83 f0 01             	xor    $0x1,%eax
  4018c5:	84 c0                	test   %al,%al
  4018c7:	75 47                	jne    401910 <_D3std8typeinfo10ti_Adouble11TypeInfo_Ad7getHashMFPvZm+0x9a>
	{
	    hash *= 9;
  4018c9:	48 8b 55 e8          	mov    -0x18(%rbp),%rdx
  4018cd:	48 89 d0             	mov    %rdx,%rax
  4018d0:	48 c1 e0 03          	shl    $0x3,%rax
  4018d4:	48 01 d0             	add    %rdx,%rax
  4018d7:	48 89 45 e8          	mov    %rax,-0x18(%rbp)
	    hash += (cast(uint *)str)[0];
  4018db:	48 8b 55 f0          	mov    -0x10(%rbp),%rdx
  4018df:	b8 00 00 00 00       	mov    $0x0,%eax
  4018e4:	48 8d 04 02          	lea    (%rdx,%rax,1),%rax
  4018e8:	8b 00                	mov    (%rax),%eax
  4018ea:	89 c0                	mov    %eax,%eax
  4018ec:	48 01 45 e8          	add    %rax,-0x18(%rbp)
	    hash += (cast(uint *)str)[1];
  4018f0:	48 8b 55 f0          	mov    -0x10(%rbp),%rdx
  4018f4:	b8 04 00 00 00       	mov    $0x4,%eax
  4018f9:	48 8d 04 02          	lea    (%rdx,%rax,1),%rax
  4018fd:	8b 00                	mov    (%rax),%eax
  4018ff:	89 c0                	mov    %eax,%eax
  401901:	48 01 45 e8          	add    %rax,-0x18(%rbp)
	    str++;
  401905:	48 83 45 f0 08       	addq   $0x8,-0x10(%rbp)
	    len--;
  40190a:	48 ff 4d f8          	decq   -0x8(%rbp)
  40190e:	eb aa                	jmp    4018ba <_D3std8typeinfo10ti_Adouble11TypeInfo_Ad7getHashMFPvZm+0x44>
	}

	return hash;
  401910:	48 8b 45 e8          	mov    -0x18(%rbp),%rax
    }
  401914:	c9                   	leaveq 
  401915:	c3                   	retq   

0000000000401916 <_D3std8typeinfo10ti_Adouble11TypeInfo_Ad6equalsMFPvPvZi>:

    int equals(void *p1, void *p2)
  401916:	55                   	push   %rbp
  401917:	48 89 e5             	mov    %rsp,%rbp
  40191a:	48 81 ec c0 00 00 00 	sub    $0xc0,%rsp
  401921:	48 89 7d 98          	mov    %rdi,-0x68(%rbp)
  401925:	48 89 75 90          	mov    %rsi,-0x70(%rbp)
  401929:	48 89 55 88          	mov    %rdx,-0x78(%rbp)
  40192d:	48 8b 7d 98          	mov    -0x68(%rbp),%rdi
  401931:	e8 46 7a 00 00       	callq  40937c <_D9invariant12_d_invariantFC6ObjectZv>
    {
	double[] s1 = *cast(double[]*)p1;
  401936:	48 8b 55 90          	mov    -0x70(%rbp),%rdx
  40193a:	48 8b 02             	mov    (%rdx),%rax
  40193d:	48 89 45 a0          	mov    %rax,-0x60(%rbp)
  401941:	48 8b 42 08          	mov    0x8(%rdx),%rax
  401945:	48 89 45 a8          	mov    %rax,-0x58(%rbp)
	double[] s2 = *cast(double[]*)p2;
  401949:	48 8b 55 88          	mov    -0x78(%rbp),%rdx
  40194d:	48 8b 02             	mov    (%rdx),%rax
  401950:	48 89 45 b0          	mov    %rax,-0x50(%rbp)
  401954:	48 8b 42 08          	mov    0x8(%rdx),%rax
  401958:	48 89 45 b8          	mov    %rax,-0x48(%rbp)
	size_t len = s1.length;
  40195c:	48 8b 45 a0          	mov    -0x60(%rbp),%rax
  401960:	48 89 45 e8          	mov    %rax,-0x18(%rbp)

	if (len != s2.length)
  401964:	48 8b 45 b0          	mov    -0x50(%rbp),%rax
  401968:	48 39 45 e8          	cmp    %rax,-0x18(%rbp)
  40196c:	74 0f                	je     40197d <_D3std8typeinfo10ti_Adouble11TypeInfo_Ad6equalsMFPvPvZi+0x67>
	    return 0;
  40196e:	c7 85 5c ff ff ff 00 	movl   $0x0,-0xa4(%rbp)
  401975:	00 00 00 
  401978:	e9 13 01 00 00       	jmpq   401a90 <_D3std8typeinfo10ti_Adouble11TypeInfo_Ad6equalsMFPvPvZi+0x17a>
	for (size_t u = 0; u < len; u++)
  40197d:	48 c7 45 f0 00 00 00 	movq   $0x0,-0x10(%rbp)
  401984:	00 
  401985:	48 8b 45 f0          	mov    -0x10(%rbp),%rax
  401989:	48 3b 45 e8          	cmp    -0x18(%rbp),%rax
  40198d:	0f 92 c0             	setb   %al
  401990:	83 f0 01             	xor    $0x1,%eax
  401993:	84 c0                	test   %al,%al
  401995:	0f 85 eb 00 00 00    	jne    401a86 <_D3std8typeinfo10ti_Adouble11TypeInfo_Ad6equalsMFPvPvZi+0x170>
	{
	    int c = TypeInfo_d._equals(s1[u], s2[u]);
  40199b:	48 8b 45 b8          	mov    -0x48(%rbp),%rax
  40199f:	48 89 85 60 ff ff ff 	mov    %rax,-0xa0(%rbp)
  4019a6:	48 8b 45 b0          	mov    -0x50(%rbp),%rax
  4019aa:	48 39 45 f0          	cmp    %rax,-0x10(%rbp)
  4019ae:	73 0d                	jae    4019bd <_D3std8typeinfo10ti_Adouble11TypeInfo_Ad6equalsMFPvPvZi+0xa7>
  4019b0:	48 8b 45 f0          	mov    -0x10(%rbp),%rax
  4019b4:	48 89 85 68 ff ff ff 	mov    %rax,-0x98(%rbp)
  4019bb:	eb 22                	jmp    4019df <_D3std8typeinfo10ti_Adouble11TypeInfo_Ad6equalsMFPvPvZi+0xc9>
  4019bd:	48 c7 45 c0 19 00 00 	movq   $0x19,-0x40(%rbp)
  4019c4:	00 
  4019c5:	48 c7 45 c8 69 f9 40 	movq   $0x40f969,-0x38(%rbp)
  4019cc:	00 
  4019cd:	48 8b 7d c0          	mov    -0x40(%rbp),%rdi
  4019d1:	48 8b 75 c8          	mov    -0x38(%rbp),%rsi
  4019d5:	ba 3e 00 00 00       	mov    $0x3e,%edx
  4019da:	e8 66 94 00 00       	callq  40ae45 <_d_array_bounds>
  4019df:	48 8b 85 68 ff ff ff 	mov    -0x98(%rbp),%rax
  4019e6:	48 c1 e0 03          	shl    $0x3,%rax
  4019ea:	48 03 85 60 ff ff ff 	add    -0xa0(%rbp),%rax
  4019f1:	dd 00                	fldl   (%rax)
  4019f3:	dd 9d 70 ff ff ff    	fstpl  -0x90(%rbp)
  4019f9:	48 8b 45 a8          	mov    -0x58(%rbp),%rax
  4019fd:	48 89 85 78 ff ff ff 	mov    %rax,-0x88(%rbp)
  401a04:	48 8b 45 a0          	mov    -0x60(%rbp),%rax
  401a08:	48 39 45 f0          	cmp    %rax,-0x10(%rbp)
  401a0c:	73 0a                	jae    401a18 <_D3std8typeinfo10ti_Adouble11TypeInfo_Ad6equalsMFPvPvZi+0x102>
  401a0e:	48 8b 45 f0          	mov    -0x10(%rbp),%rax
  401a12:	48 89 45 80          	mov    %rax,-0x80(%rbp)
  401a16:	eb 22                	jmp    401a3a <_D3std8typeinfo10ti_Adouble11TypeInfo_Ad6equalsMFPvPvZi+0x124>
  401a18:	48 c7 45 d0 19 00 00 	movq   $0x19,-0x30(%rbp)
  401a1f:	00 
  401a20:	48 c7 45 d8 69 f9 40 	movq   $0x40f969,-0x28(%rbp)
  401a27:	00 
  401a28:	48 8b 7d d0          	mov    -0x30(%rbp),%rdi
  401a2c:	48 8b 75 d8          	mov    -0x28(%rbp),%rsi
  401a30:	ba 3e 00 00 00       	mov    $0x3e,%edx
  401a35:	e8 0b 94 00 00       	callq  40ae45 <_d_array_bounds>
  401a3a:	48 8b 45 80          	mov    -0x80(%rbp),%rax
  401a3e:	48 c1 e0 03          	shl    $0x3,%rax
  401a42:	48 03 85 78 ff ff ff 	add    -0x88(%rbp),%rax
  401a49:	48 8b 00             	mov    (%rax),%rax
  401a4c:	66 0f 12 8d 70 ff ff 	movlpd -0x90(%rbp),%xmm1
  401a53:	ff 
  401a54:	48 89 85 48 ff ff ff 	mov    %rax,-0xb8(%rbp)
  401a5b:	66 0f 12 85 48 ff ff 	movlpd -0xb8(%rbp),%xmm0
  401a62:	ff 
  401a63:	e8 04 34 00 00       	callq  404e6c <_D3std8typeinfo9ti_double10TypeInfo_d7_equalsFddZi>
  401a68:	89 45 fc             	mov    %eax,-0x4(%rbp)
	    if (c == 0)
  401a6b:	83 7d fc 00          	cmpl   $0x0,-0x4(%rbp)
  401a6f:	75 0c                	jne    401a7d <_D3std8typeinfo10ti_Adouble11TypeInfo_Ad6equalsMFPvPvZi+0x167>
		return 0;
  401a71:	c7 85 5c ff ff ff 00 	movl   $0x0,-0xa4(%rbp)
  401a78:	00 00 00 
  401a7b:	eb 13                	jmp    401a90 <_D3std8typeinfo10ti_Adouble11TypeInfo_Ad6equalsMFPvPvZi+0x17a>
	if (len != s2.length)
	    return 0;
	for (size_t u = 0; u < len; u++)
	{
	    int c = TypeInfo_d._equals(s1[u], s2[u]);
	    if (c == 0)
  401a7d:	48 ff 45 f0          	incq   -0x10(%rbp)
  401a81:	e9 ff fe ff ff       	jmpq   401985 <_D3std8typeinfo10ti_Adouble11TypeInfo_Ad6equalsMFPvPvZi+0x6f>
		return 0;
	}
	return 1;
  401a86:	c7 85 5c ff ff ff 01 	movl   $0x1,-0xa4(%rbp)
  401a8d:	00 00 00 
  401a90:	8b 85 5c ff ff ff    	mov    -0xa4(%rbp),%eax
    }
  401a96:	c9                   	leaveq 
  401a97:	c3                   	retq   

0000000000401a98 <_D3std8typeinfo10ti_Adouble11TypeInfo_Ad7compareMFPvPvZi>:

    int compare(void *p1, void *p2)
  401a98:	55                   	push   %rbp
  401a99:	48 89 e5             	mov    %rsp,%rbp
  401a9c:	48 81 ec c0 00 00 00 	sub    $0xc0,%rsp
  401aa3:	48 89 7d 98          	mov    %rdi,-0x68(%rbp)
  401aa7:	48 89 75 90          	mov    %rsi,-0x70(%rbp)
  401aab:	48 89 55 88          	mov    %rdx,-0x78(%rbp)
  401aaf:	48 8b 7d 98          	mov    -0x68(%rbp),%rdi
  401ab3:	e8 c4 78 00 00       	callq  40937c <_D9invariant12_d_invariantFC6ObjectZv>
    {
	double[] s1 = *cast(double[]*)p1;
  401ab8:	48 8b 55 90          	mov    -0x70(%rbp),%rdx
  401abc:	48 8b 02             	mov    (%rdx),%rax
  401abf:	48 89 45 a0          	mov    %rax,-0x60(%rbp)
  401ac3:	48 8b 42 08          	mov    0x8(%rdx),%rax
  401ac7:	48 89 45 a8          	mov    %rax,-0x58(%rbp)
	double[] s2 = *cast(double[]*)p2;
  401acb:	48 8b 55 88          	mov    -0x78(%rbp),%rdx
  401acf:	48 8b 02             	mov    (%rdx),%rax
  401ad2:	48 89 45 b0          	mov    %rax,-0x50(%rbp)
  401ad6:	48 8b 42 08          	mov    0x8(%rdx),%rax
  401ada:	48 89 45 b8          	mov    %rax,-0x48(%rbp)
	size_t len = s1.length;
  401ade:	48 8b 45 a0          	mov    -0x60(%rbp),%rax
  401ae2:	48 89 45 e8          	mov    %rax,-0x18(%rbp)

	if (s2.length < len)
  401ae6:	48 8b 45 b0          	mov    -0x50(%rbp),%rax
  401aea:	48 3b 45 e8          	cmp    -0x18(%rbp),%rax
  401aee:	73 08                	jae    401af8 <_D3std8typeinfo10ti_Adouble11TypeInfo_Ad7compareMFPvPvZi+0x60>
	    len = s2.length;
  401af0:	48 8b 45 b0          	mov    -0x50(%rbp),%rax
  401af4:	48 89 45 e8          	mov    %rax,-0x18(%rbp)
	for (size_t u = 0; u < len; u++)
  401af8:	48 c7 45 f0 00 00 00 	movq   $0x0,-0x10(%rbp)
  401aff:	00 
  401b00:	48 8b 45 f0          	mov    -0x10(%rbp),%rax
  401b04:	48 3b 45 e8          	cmp    -0x18(%rbp),%rax
  401b08:	0f 92 c0             	setb   %al
  401b0b:	83 f0 01             	xor    $0x1,%eax
  401b0e:	84 c0                	test   %al,%al
  401b10:	0f 85 ed 00 00 00    	jne    401c03 <_D3std8typeinfo10ti_Adouble11TypeInfo_Ad7compareMFPvPvZi+0x16b>
	{
	    int c = TypeInfo_d._compare(s1[u], s2[u]);
  401b16:	48 8b 45 b8          	mov    -0x48(%rbp),%rax
  401b1a:	48 89 85 58 ff ff ff 	mov    %rax,-0xa8(%rbp)
  401b21:	48 8b 45 b0          	mov    -0x50(%rbp),%rax
  401b25:	48 39 45 f0          	cmp    %rax,-0x10(%rbp)
  401b29:	73 0d                	jae    401b38 <_D3std8typeinfo10ti_Adouble11TypeInfo_Ad7compareMFPvPvZi+0xa0>
  401b2b:	48 8b 45 f0          	mov    -0x10(%rbp),%rax
  401b2f:	48 89 85 60 ff ff ff 	mov    %rax,-0xa0(%rbp)
  401b36:	eb 22                	jmp    401b5a <_D3std8typeinfo10ti_Adouble11TypeInfo_Ad7compareMFPvPvZi+0xc2>
  401b38:	48 c7 45 c0 19 00 00 	movq   $0x19,-0x40(%rbp)
  401b3f:	00 
  401b40:	48 c7 45 c8 69 f9 40 	movq   $0x40f969,-0x38(%rbp)
  401b47:	00 
  401b48:	48 8b 7d c0          	mov    -0x40(%rbp),%rdi
  401b4c:	48 8b 75 c8          	mov    -0x38(%rbp),%rsi
  401b50:	ba 4f 00 00 00       	mov    $0x4f,%edx
  401b55:	e8 eb 92 00 00       	callq  40ae45 <_d_array_bounds>
  401b5a:	48 8b 85 60 ff ff ff 	mov    -0xa0(%rbp),%rax
  401b61:	48 c1 e0 03          	shl    $0x3,%rax
  401b65:	48 03 85 58 ff ff ff 	add    -0xa8(%rbp),%rax
  401b6c:	dd 00                	fldl   (%rax)
  401b6e:	dd 9d 68 ff ff ff    	fstpl  -0x98(%rbp)
  401b74:	48 8b 45 a8          	mov    -0x58(%rbp),%rax
  401b78:	48 89 85 70 ff ff ff 	mov    %rax,-0x90(%rbp)
  401b7f:	48 8b 45 a0          	mov    -0x60(%rbp),%rax
  401b83:	48 39 45 f0          	cmp    %rax,-0x10(%rbp)
  401b87:	73 0d                	jae    401b96 <_D3std8typeinfo10ti_Adouble11TypeInfo_Ad7compareMFPvPvZi+0xfe>
  401b89:	48 8b 45 f0          	mov    -0x10(%rbp),%rax
  401b8d:	48 89 85 78 ff ff ff 	mov    %rax,-0x88(%rbp)
  401b94:	eb 22                	jmp    401bb8 <_D3std8typeinfo10ti_Adouble11TypeInfo_Ad7compareMFPvPvZi+0x120>
  401b96:	48 c7 45 d0 19 00 00 	movq   $0x19,-0x30(%rbp)
  401b9d:	00 
  401b9e:	48 c7 45 d8 69 f9 40 	movq   $0x40f969,-0x28(%rbp)
  401ba5:	00 
  401ba6:	48 8b 7d d0          	mov    -0x30(%rbp),%rdi
  401baa:	48 8b 75 d8          	mov    -0x28(%rbp),%rsi
  401bae:	ba 4f 00 00 00       	mov    $0x4f,%edx
  401bb3:	e8 8d 92 00 00       	callq  40ae45 <_d_array_bounds>
  401bb8:	48 8b 85 78 ff ff ff 	mov    -0x88(%rbp),%rax
  401bbf:	48 c1 e0 03          	shl    $0x3,%rax
  401bc3:	48 03 85 70 ff ff ff 	add    -0x90(%rbp),%rax
  401bca:	48 8b 00             	mov    (%rax),%rax
  401bcd:	66 0f 12 8d 68 ff ff 	movlpd -0x98(%rbp),%xmm1
  401bd4:	ff 
  401bd5:	48 89 85 48 ff ff ff 	mov    %rax,-0xb8(%rbp)
  401bdc:	66 0f 12 85 48 ff ff 	movlpd -0xb8(%rbp),%xmm0
  401be3:	ff 
  401be4:	e8 d1 32 00 00       	callq  404eba <_D3std8typeinfo9ti_double10TypeInfo_d8_compareFddZi>
  401be9:	89 45 fc             	mov    %eax,-0x4(%rbp)
	    if (c)
  401bec:	83 7d fc 00          	cmpl   $0x0,-0x4(%rbp)
  401bf0:	74 08                	je     401bfa <_D3std8typeinfo10ti_Adouble11TypeInfo_Ad7compareMFPvPvZi+0x162>
		return c;
  401bf2:	8b 45 fc             	mov    -0x4(%rbp),%eax
  401bf5:	89 45 84             	mov    %eax,-0x7c(%rbp)
  401bf8:	eb 3c                	jmp    401c36 <_D3std8typeinfo10ti_Adouble11TypeInfo_Ad7compareMFPvPvZi+0x19e>
	if (s2.length < len)
	    len = s2.length;
	for (size_t u = 0; u < len; u++)
	{
	    int c = TypeInfo_d._compare(s1[u], s2[u]);
	    if (c)
  401bfa:	48 ff 45 f0          	incq   -0x10(%rbp)
  401bfe:	e9 fd fe ff ff       	jmpq   401b00 <_D3std8typeinfo10ti_Adouble11TypeInfo_Ad7compareMFPvPvZi+0x68>
		return c;
	}
	if (s1.length < s2.length)
  401c03:	48 8b 55 a0          	mov    -0x60(%rbp),%rdx
  401c07:	48 8b 45 b0          	mov    -0x50(%rbp),%rax
  401c0b:	48 39 c2             	cmp    %rax,%rdx
  401c0e:	73 09                	jae    401c19 <_D3std8typeinfo10ti_Adouble11TypeInfo_Ad7compareMFPvPvZi+0x181>
	    return -1;
  401c10:	c7 45 84 ff ff ff ff 	movl   $0xffffffff,-0x7c(%rbp)
  401c17:	eb 1d                	jmp    401c36 <_D3std8typeinfo10ti_Adouble11TypeInfo_Ad7compareMFPvPvZi+0x19e>
	else if (s1.length > s2.length)
  401c19:	48 8b 55 a0          	mov    -0x60(%rbp),%rdx
  401c1d:	48 8b 45 b0          	mov    -0x50(%rbp),%rax
  401c21:	48 39 c2             	cmp    %rax,%rdx
  401c24:	76 09                	jbe    401c2f <_D3std8typeinfo10ti_Adouble11TypeInfo_Ad7compareMFPvPvZi+0x197>
	    return 1;
  401c26:	c7 45 84 01 00 00 00 	movl   $0x1,-0x7c(%rbp)
  401c2d:	eb 07                	jmp    401c36 <_D3std8typeinfo10ti_Adouble11TypeInfo_Ad7compareMFPvPvZi+0x19e>
	return 0;
  401c2f:	c7 45 84 00 00 00 00 	movl   $0x0,-0x7c(%rbp)
  401c36:	8b 45 84             	mov    -0x7c(%rbp),%eax
    }
  401c39:	c9                   	leaveq 
  401c3a:	c3                   	retq   

0000000000401c3b <_D3std8typeinfo10ti_Adouble11TypeInfo_Ad5tsizeMFZm>:

    size_t tsize()
  401c3b:	55                   	push   %rbp
  401c3c:	48 89 e5             	mov    %rsp,%rbp
  401c3f:	48 83 ec 10          	sub    $0x10,%rsp
  401c43:	48 89 7d f8          	mov    %rdi,-0x8(%rbp)
  401c47:	48 8b 7d f8          	mov    -0x8(%rbp),%rdi
  401c4b:	e8 2c 77 00 00       	callq  40937c <_D9invariant12_d_invariantFC6ObjectZv>
    {
	return (double[]).sizeof;
  401c50:	b8 10 00 00 00       	mov    $0x10,%eax
    }
  401c55:	c9                   	leaveq 
  401c56:	c3                   	retq   

0000000000401c57 <_D3std8typeinfo10ti_Adouble11TypeInfo_Ad5flagsMFZk>:

    uint flags()
  401c57:	55                   	push   %rbp
  401c58:	48 89 e5             	mov    %rsp,%rbp
  401c5b:	48 83 ec 10          	sub    $0x10,%rsp
  401c5f:	48 89 7d f8          	mov    %rdi,-0x8(%rbp)
  401c63:	48 8b 7d f8          	mov    -0x8(%rbp),%rdi
  401c67:	e8 10 77 00 00       	callq  40937c <_D9invariant12_d_invariantFC6ObjectZv>
    {
	return 1;
  401c6c:	b8 01 00 00 00       	mov    $0x1,%eax
    }
  401c71:	c9                   	leaveq 
  401c72:	c3                   	retq   

0000000000401c73 <_D3std8typeinfo10ti_Adouble11TypeInfo_Ad4nextMFZC8TypeInfo>:

    TypeInfo next()
  401c73:	55                   	push   %rbp
  401c74:	48 89 e5             	mov    %rsp,%rbp
  401c77:	48 83 ec 10          	sub    $0x10,%rsp
  401c7b:	48 89 7d f8          	mov    %rdi,-0x8(%rbp)
  401c7f:	48 8b 7d f8          	mov    -0x8(%rbp),%rdi
  401c83:	e8 f4 76 00 00       	callq  40937c <_D9invariant12_d_invariantFC6ObjectZv>
    {
	return typeid(double);
  401c88:	48 c7 c0 50 0c 41 00 	mov    $0x410c50,%rax
    }
  401c8f:	c9                   	leaveq 
  401c90:	c3                   	retq   

0000000000401c91 <_D3std8typeinfo10ti_Adouble11TypeInfo_Ap8toStringMFZAa>:

// idouble[]

class TypeInfo_Ap : TypeInfo_Ad
{
    char[] toString() { return "idouble[]"; }
  401c91:	55                   	push   %rbp
  401c92:	48 89 e5             	mov    %rsp,%rbp
  401c95:	53                   	push   %rbx
  401c96:	48 83 ec 08          	sub    $0x8,%rsp
  401c9a:	48 89 fb             	mov    %rdi,%rbx
  401c9d:	48 89 75 f0          	mov    %rsi,-0x10(%rbp)
  401ca1:	48 8b 7d f0          	mov    -0x10(%rbp),%rdi
  401ca5:	e8 d2 76 00 00       	callq  40937c <_D9invariant12_d_invariantFC6ObjectZv>
  401caa:	48 c7 03 09 00 00 00 	movq   $0x9,(%rbx)
  401cb1:	48 c7 43 08 30 fa 40 	movq   $0x40fa30,0x8(%rbx)
  401cb8:	00 
  401cb9:	48 89 d8             	mov    %rbx,%rax
  401cbc:	48 83 c4 08          	add    $0x8,%rsp
  401cc0:	5b                   	pop    %rbx
  401cc1:	c9                   	leaveq 
  401cc2:	c3                   	retq   

0000000000401cc3 <_D3std8typeinfo10ti_Adouble11TypeInfo_Ap4nextMFZC8TypeInfo>:

    TypeInfo next()
  401cc3:	55                   	push   %rbp
  401cc4:	48 89 e5             	mov    %rsp,%rbp
  401cc7:	48 83 ec 10          	sub    $0x10,%rsp
  401ccb:	48 89 7d f8          	mov    %rdi,-0x8(%rbp)
  401ccf:	48 8b 7d f8          	mov    -0x8(%rbp),%rdi
  401cd3:	e8 a4 76 00 00       	callq  40937c <_D9invariant12_d_invariantFC6ObjectZv>
    {
	return typeid(idouble);
  401cd8:	48 c7 c0 d0 0d 41 00 	mov    $0x410dd0,%rax
    }
  401cdf:	c9                   	leaveq 
  401ce0:	c3                   	retq   
  401ce1:	90                   	nop    
  401ce2:	90                   	nop    
  401ce3:	90                   	nop    

0000000000401ce4 <_D3std8typeinfo9ti_Afloat11TypeInfo_Af8toStringMFZAa>:

// float[]

class TypeInfo_Af : TypeInfo
{
    char[] toString() { return "float[]"; }
  401ce4:	55                   	push   %rbp
  401ce5:	48 89 e5             	mov    %rsp,%rbp
  401ce8:	53                   	push   %rbx
  401ce9:	48 83 ec 08          	sub    $0x8,%rsp
  401ced:	48 89 fb             	mov    %rdi,%rbx
  401cf0:	48 89 75 f0          	mov    %rsi,-0x10(%rbp)
  401cf4:	48 8b 7d f0          	mov    -0x10(%rbp),%rdi
  401cf8:	e8 7f 76 00 00       	callq  40937c <_D9invariant12_d_invariantFC6ObjectZv>
  401cfd:	48 c7 03 07 00 00 00 	movq   $0x7,(%rbx)
  401d04:	48 c7 43 08 e0 fa 40 	movq   $0x40fae0,0x8(%rbx)
  401d0b:	00 
  401d0c:	48 89 d8             	mov    %rbx,%rax
  401d0f:	48 83 c4 08          	add    $0x8,%rsp
  401d13:	5b                   	pop    %rbx
  401d14:	c9                   	leaveq 
  401d15:	c3                   	retq   

0000000000401d16 <_D3std8typeinfo9ti_Afloat11TypeInfo_Af7getHashMFPvZm>:

    hash_t getHash(void *p)
  401d16:	55                   	push   %rbp
  401d17:	48 89 e5             	mov    %rsp,%rbp
  401d1a:	48 83 ec 40          	sub    $0x40,%rsp
  401d1e:	48 89 7d c8          	mov    %rdi,-0x38(%rbp)
  401d22:	48 89 75 c0          	mov    %rsi,-0x40(%rbp)
  401d26:	48 8b 7d c8          	mov    -0x38(%rbp),%rdi
  401d2a:	e8 4d 76 00 00       	callq  40937c <_D9invariant12_d_invariantFC6ObjectZv>
    {	float[] s = *cast(float[]*)p;
  401d2f:	48 8b 55 c0          	mov    -0x40(%rbp),%rdx
  401d33:	48 8b 02             	mov    (%rdx),%rax
  401d36:	48 89 45 d0          	mov    %rax,-0x30(%rbp)
  401d3a:	48 8b 42 08          	mov    0x8(%rdx),%rax
  401d3e:	48 89 45 d8          	mov    %rax,-0x28(%rbp)
	size_t len = s.length;
  401d42:	48 8b 45 d0          	mov    -0x30(%rbp),%rax
  401d46:	48 89 45 f8          	mov    %rax,-0x8(%rbp)
	auto str = s.ptr;
  401d4a:	48 8b 45 d8          	mov    -0x28(%rbp),%rax
  401d4e:	48 89 45 f0          	mov    %rax,-0x10(%rbp)
	hash_t hash = 0;
  401d52:	48 c7 45 e8 00 00 00 	movq   $0x0,-0x18(%rbp)
  401d59:	00 

	while (len)
  401d5a:	48 83 7d f8 00       	cmpq   $0x0,-0x8(%rbp)
  401d5f:	0f 95 c0             	setne  %al
  401d62:	83 f0 01             	xor    $0x1,%eax
  401d65:	84 c0                	test   %al,%al
  401d67:	75 29                	jne    401d92 <_D3std8typeinfo9ti_Afloat11TypeInfo_Af7getHashMFPvZm+0x7c>
	{
	    hash *= 9;
  401d69:	48 8b 55 e8          	mov    -0x18(%rbp),%rdx
  401d6d:	48 89 d0             	mov    %rdx,%rax
  401d70:	48 c1 e0 03          	shl    $0x3,%rax
  401d74:	48 01 d0             	add    %rdx,%rax
  401d77:	48 89 45 e8          	mov    %rax,-0x18(%rbp)
	    hash += *cast(uint *)str;
  401d7b:	48 8b 45 f0          	mov    -0x10(%rbp),%rax
  401d7f:	8b 00                	mov    (%rax),%eax
  401d81:	89 c0                	mov    %eax,%eax
  401d83:	48 01 45 e8          	add    %rax,-0x18(%rbp)
	    str++;
  401d87:	48 83 45 f0 04       	addq   $0x4,-0x10(%rbp)
	    len--;
  401d8c:	48 ff 4d f8          	decq   -0x8(%rbp)
  401d90:	eb c8                	jmp    401d5a <_D3std8typeinfo9ti_Afloat11TypeInfo_Af7getHashMFPvZm+0x44>
	}

	return hash;
  401d92:	48 8b 45 e8          	mov    -0x18(%rbp),%rax
    }
  401d96:	c9                   	leaveq 
  401d97:	c3                   	retq   

0000000000401d98 <_D3std8typeinfo9ti_Afloat11TypeInfo_Af6equalsMFPvPvZi>:

    int equals(void *p1, void *p2)
  401d98:	55                   	push   %rbp
  401d99:	48 89 e5             	mov    %rsp,%rbp
  401d9c:	48 81 ec c0 00 00 00 	sub    $0xc0,%rsp
  401da3:	48 89 7d 98          	mov    %rdi,-0x68(%rbp)
  401da7:	48 89 75 90          	mov    %rsi,-0x70(%rbp)
  401dab:	48 89 55 88          	mov    %rdx,-0x78(%rbp)
  401daf:	48 8b 7d 98          	mov    -0x68(%rbp),%rdi
  401db3:	e8 c4 75 00 00       	callq  40937c <_D9invariant12_d_invariantFC6ObjectZv>
    {
	float[] s1 = *cast(float[]*)p1;
  401db8:	48 8b 55 90          	mov    -0x70(%rbp),%rdx
  401dbc:	48 8b 02             	mov    (%rdx),%rax
  401dbf:	48 89 45 a0          	mov    %rax,-0x60(%rbp)
  401dc3:	48 8b 42 08          	mov    0x8(%rdx),%rax
  401dc7:	48 89 45 a8          	mov    %rax,-0x58(%rbp)
	float[] s2 = *cast(float[]*)p2;
  401dcb:	48 8b 55 88          	mov    -0x78(%rbp),%rdx
  401dcf:	48 8b 02             	mov    (%rdx),%rax
  401dd2:	48 89 45 b0          	mov    %rax,-0x50(%rbp)
  401dd6:	48 8b 42 08          	mov    0x8(%rdx),%rax
  401dda:	48 89 45 b8          	mov    %rax,-0x48(%rbp)
	size_t len = s1.length;
  401dde:	48 8b 45 a0          	mov    -0x60(%rbp),%rax
  401de2:	48 89 45 e8          	mov    %rax,-0x18(%rbp)

	if (len != s2.length)
  401de6:	48 8b 45 b0          	mov    -0x50(%rbp),%rax
  401dea:	48 39 45 e8          	cmp    %rax,-0x18(%rbp)
  401dee:	74 0f                	je     401dff <_D3std8typeinfo9ti_Afloat11TypeInfo_Af6equalsMFPvPvZi+0x67>
	    return 0;
  401df0:	c7 85 5c ff ff ff 00 	movl   $0x0,-0xa4(%rbp)
  401df7:	00 00 00 
  401dfa:	e9 11 01 00 00       	jmpq   401f10 <_D3std8typeinfo9ti_Afloat11TypeInfo_Af6equalsMFPvPvZi+0x178>
	for (size_t u = 0; u < len; u++)
  401dff:	48 c7 45 f0 00 00 00 	movq   $0x0,-0x10(%rbp)
  401e06:	00 
  401e07:	48 8b 45 f0          	mov    -0x10(%rbp),%rax
  401e0b:	48 3b 45 e8          	cmp    -0x18(%rbp),%rax
  401e0f:	0f 92 c0             	setb   %al
  401e12:	83 f0 01             	xor    $0x1,%eax
  401e15:	84 c0                	test   %al,%al
  401e17:	0f 85 e9 00 00 00    	jne    401f06 <_D3std8typeinfo9ti_Afloat11TypeInfo_Af6equalsMFPvPvZi+0x16e>
	{
	    int c = TypeInfo_f._equals(s1[u], s2[u]);
  401e1d:	48 8b 45 b8          	mov    -0x48(%rbp),%rax
  401e21:	48 89 85 60 ff ff ff 	mov    %rax,-0xa0(%rbp)
  401e28:	48 8b 45 b0          	mov    -0x50(%rbp),%rax
  401e2c:	48 39 45 f0          	cmp    %rax,-0x10(%rbp)
  401e30:	73 0d                	jae    401e3f <_D3std8typeinfo9ti_Afloat11TypeInfo_Af6equalsMFPvPvZi+0xa7>
  401e32:	48 8b 45 f0          	mov    -0x10(%rbp),%rax
  401e36:	48 89 85 68 ff ff ff 	mov    %rax,-0x98(%rbp)
  401e3d:	eb 22                	jmp    401e61 <_D3std8typeinfo9ti_Afloat11TypeInfo_Af6equalsMFPvPvZi+0xc9>
  401e3f:	48 c7 45 c0 18 00 00 	movq   $0x18,-0x40(%rbp)
  401e46:	00 
  401e47:	48 c7 45 c8 e8 fa 40 	movq   $0x40fae8,-0x38(%rbp)
  401e4e:	00 
  401e4f:	48 8b 7d c0          	mov    -0x40(%rbp),%rdi
  401e53:	48 8b 75 c8          	mov    -0x38(%rbp),%rsi
  401e57:	ba 3d 00 00 00       	mov    $0x3d,%edx
  401e5c:	e8 e4 8f 00 00       	callq  40ae45 <_d_array_bounds>
  401e61:	48 8b 85 68 ff ff ff 	mov    -0x98(%rbp),%rax
  401e68:	48 c1 e0 02          	shl    $0x2,%rax
  401e6c:	48 03 85 60 ff ff ff 	add    -0xa0(%rbp),%rax
  401e73:	d9 00                	flds   (%rax)
  401e75:	d9 9d 74 ff ff ff    	fstps  -0x8c(%rbp)
  401e7b:	48 8b 45 a8          	mov    -0x58(%rbp),%rax
  401e7f:	48 89 85 78 ff ff ff 	mov    %rax,-0x88(%rbp)
  401e86:	48 8b 45 a0          	mov    -0x60(%rbp),%rax
  401e8a:	48 39 45 f0          	cmp    %rax,-0x10(%rbp)
  401e8e:	73 0a                	jae    401e9a <_D3std8typeinfo9ti_Afloat11TypeInfo_Af6equalsMFPvPvZi+0x102>
  401e90:	48 8b 45 f0          	mov    -0x10(%rbp),%rax
  401e94:	48 89 45 80          	mov    %rax,-0x80(%rbp)
  401e98:	eb 22                	jmp    401ebc <_D3std8typeinfo9ti_Afloat11TypeInfo_Af6equalsMFPvPvZi+0x124>
  401e9a:	48 c7 45 d0 18 00 00 	movq   $0x18,-0x30(%rbp)
  401ea1:	00 
  401ea2:	48 c7 45 d8 e8 fa 40 	movq   $0x40fae8,-0x28(%rbp)
  401ea9:	00 
  401eaa:	48 8b 7d d0          	mov    -0x30(%rbp),%rdi
  401eae:	48 8b 75 d8          	mov    -0x28(%rbp),%rsi
  401eb2:	ba 3d 00 00 00       	mov    $0x3d,%edx
  401eb7:	e8 89 8f 00 00       	callq  40ae45 <_d_array_bounds>
  401ebc:	48 8b 45 80          	mov    -0x80(%rbp),%rax
  401ec0:	48 c1 e0 02          	shl    $0x2,%rax
  401ec4:	48 03 85 78 ff ff ff 	add    -0x88(%rbp),%rax
  401ecb:	8b 00                	mov    (%rax),%eax
  401ecd:	f3 0f 10 8d 74 ff ff 	movss  -0x8c(%rbp),%xmm1
  401ed4:	ff 
  401ed5:	89 85 4c ff ff ff    	mov    %eax,-0xb4(%rbp)
  401edb:	f3 0f 10 85 4c ff ff 	movss  -0xb4(%rbp),%xmm0
  401ee2:	ff 
  401ee3:	e8 15 32 00 00       	callq  4050fd <_D3std8typeinfo8ti_float10TypeInfo_f7_equalsFffZi>
  401ee8:	89 45 fc             	mov    %eax,-0x4(%rbp)
	    if (c == 0)
  401eeb:	83 7d fc 00          	cmpl   $0x0,-0x4(%rbp)
  401eef:	75 0c                	jne    401efd <_D3std8typeinfo9ti_Afloat11TypeInfo_Af6equalsMFPvPvZi+0x165>
		return 0;
  401ef1:	c7 85 5c ff ff ff 00 	movl   $0x0,-0xa4(%rbp)
  401ef8:	00 00 00 
  401efb:	eb 13                	jmp    401f10 <_D3std8typeinfo9ti_Afloat11TypeInfo_Af6equalsMFPvPvZi+0x178>
	if (len != s2.length)
	    return 0;
	for (size_t u = 0; u < len; u++)
	{
	    int c = TypeInfo_f._equals(s1[u], s2[u]);
	    if (c == 0)
  401efd:	48 ff 45 f0          	incq   -0x10(%rbp)
  401f01:	e9 01 ff ff ff       	jmpq   401e07 <_D3std8typeinfo9ti_Afloat11TypeInfo_Af6equalsMFPvPvZi+0x6f>
		return 0;
	}
	return 1;
  401f06:	c7 85 5c ff ff ff 01 	movl   $0x1,-0xa4(%rbp)
  401f0d:	00 00 00 
  401f10:	8b 85 5c ff ff ff    	mov    -0xa4(%rbp),%eax
    }
  401f16:	c9                   	leaveq 
  401f17:	c3                   	retq   

0000000000401f18 <_D3std8typeinfo9ti_Afloat11TypeInfo_Af7compareMFPvPvZi>:

    int compare(void *p1, void *p2)
  401f18:	55                   	push   %rbp
  401f19:	48 89 e5             	mov    %rsp,%rbp
  401f1c:	48 81 ec c0 00 00 00 	sub    $0xc0,%rsp
  401f23:	48 89 7d 98          	mov    %rdi,-0x68(%rbp)
  401f27:	48 89 75 90          	mov    %rsi,-0x70(%rbp)
  401f2b:	48 89 55 88          	mov    %rdx,-0x78(%rbp)
  401f2f:	48 8b 7d 98          	mov    -0x68(%rbp),%rdi
  401f33:	e8 44 74 00 00       	callq  40937c <_D9invariant12_d_invariantFC6ObjectZv>
    {
	float[] s1 = *cast(float[]*)p1;
  401f38:	48 8b 55 90          	mov    -0x70(%rbp),%rdx
  401f3c:	48 8b 02             	mov    (%rdx),%rax
  401f3f:	48 89 45 a0          	mov    %rax,-0x60(%rbp)
  401f43:	48 8b 42 08          	mov    0x8(%rdx),%rax
  401f47:	48 89 45 a8          	mov    %rax,-0x58(%rbp)
	float[] s2 = *cast(float[]*)p2;
  401f4b:	48 8b 55 88          	mov    -0x78(%rbp),%rdx
  401f4f:	48 8b 02             	mov    (%rdx),%rax
  401f52:	48 89 45 b0          	mov    %rax,-0x50(%rbp)
  401f56:	48 8b 42 08          	mov    0x8(%rdx),%rax
  401f5a:	48 89 45 b8          	mov    %rax,-0x48(%rbp)
	size_t len = s1.length;
  401f5e:	48 8b 45 a0          	mov    -0x60(%rbp),%rax
  401f62:	48 89 45 e8          	mov    %rax,-0x18(%rbp)

	if (s2.length < len)
  401f66:	48 8b 45 b0          	mov    -0x50(%rbp),%rax
  401f6a:	48 3b 45 e8          	cmp    -0x18(%rbp),%rax
  401f6e:	73 08                	jae    401f78 <_D3std8typeinfo9ti_Afloat11TypeInfo_Af7compareMFPvPvZi+0x60>
	    len = s2.length;
  401f70:	48 8b 45 b0          	mov    -0x50(%rbp),%rax
  401f74:	48 89 45 e8          	mov    %rax,-0x18(%rbp)
	for (size_t u = 0; u < len; u++)
  401f78:	48 c7 45 f0 00 00 00 	movq   $0x0,-0x10(%rbp)
  401f7f:	00 
  401f80:	48 8b 45 f0          	mov    -0x10(%rbp),%rax
  401f84:	48 3b 45 e8          	cmp    -0x18(%rbp),%rax
  401f88:	0f 92 c0             	setb   %al
  401f8b:	83 f0 01             	xor    $0x1,%eax
  401f8e:	84 c0                	test   %al,%al
  401f90:	0f 85 eb 00 00 00    	jne    402081 <_D3std8typeinfo9ti_Afloat11TypeInfo_Af7compareMFPvPvZi+0x169>
	{
	    int c = TypeInfo_f._compare(s1[u], s2[u]);
  401f96:	48 8b 45 b8          	mov    -0x48(%rbp),%rax
  401f9a:	48 89 85 58 ff ff ff 	mov    %rax,-0xa8(%rbp)
  401fa1:	48 8b 45 b0          	mov    -0x50(%rbp),%rax
  401fa5:	48 39 45 f0          	cmp    %rax,-0x10(%rbp)
  401fa9:	73 0d                	jae    401fb8 <_D3std8typeinfo9ti_Afloat11TypeInfo_Af7compareMFPvPvZi+0xa0>
  401fab:	48 8b 45 f0          	mov    -0x10(%rbp),%rax
  401faf:	48 89 85 60 ff ff ff 	mov    %rax,-0xa0(%rbp)
  401fb6:	eb 22                	jmp    401fda <_D3std8typeinfo9ti_Afloat11TypeInfo_Af7compareMFPvPvZi+0xc2>
  401fb8:	48 c7 45 c0 18 00 00 	movq   $0x18,-0x40(%rbp)
  401fbf:	00 
  401fc0:	48 c7 45 c8 e8 fa 40 	movq   $0x40fae8,-0x38(%rbp)
  401fc7:	00 
  401fc8:	48 8b 7d c0          	mov    -0x40(%rbp),%rdi
  401fcc:	48 8b 75 c8          	mov    -0x38(%rbp),%rsi
  401fd0:	ba 4e 00 00 00       	mov    $0x4e,%edx
  401fd5:	e8 6b 8e 00 00       	callq  40ae45 <_d_array_bounds>
  401fda:	48 8b 85 60 ff ff ff 	mov    -0xa0(%rbp),%rax
  401fe1:	48 c1 e0 02          	shl    $0x2,%rax
  401fe5:	48 03 85 58 ff ff ff 	add    -0xa8(%rbp),%rax
  401fec:	d9 00                	flds   (%rax)
  401fee:	d9 9d 6c ff ff ff    	fstps  -0x94(%rbp)
  401ff4:	48 8b 45 a8          	mov    -0x58(%rbp),%rax
  401ff8:	48 89 85 70 ff ff ff 	mov    %rax,-0x90(%rbp)
  401fff:	48 8b 45 a0          	mov    -0x60(%rbp),%rax
  402003:	48 39 45 f0          	cmp    %rax,-0x10(%rbp)
  402007:	73 0d                	jae    402016 <_D3std8typeinfo9ti_Afloat11TypeInfo_Af7compareMFPvPvZi+0xfe>
  402009:	48 8b 45 f0          	mov    -0x10(%rbp),%rax
  40200d:	48 89 85 78 ff ff ff 	mov    %rax,-0x88(%rbp)
  402014:	eb 22                	jmp    402038 <_D3std8typeinfo9ti_Afloat11TypeInfo_Af7compareMFPvPvZi+0x120>
  402016:	48 c7 45 d0 18 00 00 	movq   $0x18,-0x30(%rbp)
  40201d:	00 
  40201e:	48 c7 45 d8 e8 fa 40 	movq   $0x40fae8,-0x28(%rbp)
  402025:	00 
  402026:	48 8b 7d d0          	mov    -0x30(%rbp),%rdi
  40202a:	48 8b 75 d8          	mov    -0x28(%rbp),%rsi
  40202e:	ba 4e 00 00 00       	mov    $0x4e,%edx
  402033:	e8 0d 8e 00 00       	callq  40ae45 <_d_array_bounds>
  402038:	48 8b 85 78 ff ff ff 	mov    -0x88(%rbp),%rax
  40203f:	48 c1 e0 02          	shl    $0x2,%rax
  402043:	48 03 85 70 ff ff ff 	add    -0x90(%rbp),%rax
  40204a:	8b 00                	mov    (%rax),%eax
  40204c:	f3 0f 10 8d 6c ff ff 	movss  -0x94(%rbp),%xmm1
  402053:	ff 
  402054:	89 85 4c ff ff ff    	mov    %eax,-0xb4(%rbp)
  40205a:	f3 0f 10 85 4c ff ff 	movss  -0xb4(%rbp),%xmm0
  402061:	ff 
  402062:	e8 e3 30 00 00       	callq  40514a <_D3std8typeinfo8ti_float10TypeInfo_f8_compareFffZi>
  402067:	89 45 fc             	mov    %eax,-0x4(%rbp)
	    if (c)
  40206a:	83 7d fc 00          	cmpl   $0x0,-0x4(%rbp)
  40206e:	74 08                	je     402078 <_D3std8typeinfo9ti_Afloat11TypeInfo_Af7compareMFPvPvZi+0x160>
		return c;
  402070:	8b 45 fc             	mov    -0x4(%rbp),%eax
  402073:	89 45 84             	mov    %eax,-0x7c(%rbp)
  402076:	eb 3c                	jmp    4020b4 <_D3std8typeinfo9ti_Afloat11TypeInfo_Af7compareMFPvPvZi+0x19c>
	if (s2.length < len)
	    len = s2.length;
	for (size_t u = 0; u < len; u++)
	{
	    int c = TypeInfo_f._compare(s1[u], s2[u]);
	    if (c)
  402078:	48 ff 45 f0          	incq   -0x10(%rbp)
  40207c:	e9 ff fe ff ff       	jmpq   401f80 <_D3std8typeinfo9ti_Afloat11TypeInfo_Af7compareMFPvPvZi+0x68>
		return c;
	}
	if (s1.length < s2.length)
  402081:	48 8b 55 a0          	mov    -0x60(%rbp),%rdx
  402085:	48 8b 45 b0          	mov    -0x50(%rbp),%rax
  402089:	48 39 c2             	cmp    %rax,%rdx
  40208c:	73 09                	jae    402097 <_D3std8typeinfo9ti_Afloat11TypeInfo_Af7compareMFPvPvZi+0x17f>
	    return -1;
  40208e:	c7 45 84 ff ff ff ff 	movl   $0xffffffff,-0x7c(%rbp)
  402095:	eb 1d                	jmp    4020b4 <_D3std8typeinfo9ti_Afloat11TypeInfo_Af7compareMFPvPvZi+0x19c>
	else if (s1.length > s2.length)
  402097:	48 8b 55 a0          	mov    -0x60(%rbp),%rdx
  40209b:	48 8b 45 b0          	mov    -0x50(%rbp),%rax
  40209f:	48 39 c2             	cmp    %rax,%rdx
  4020a2:	76 09                	jbe    4020ad <_D3std8typeinfo9ti_Afloat11TypeInfo_Af7compareMFPvPvZi+0x195>
	    return 1;
  4020a4:	c7 45 84 01 00 00 00 	movl   $0x1,-0x7c(%rbp)
  4020ab:	eb 07                	jmp    4020b4 <_D3std8typeinfo9ti_Afloat11TypeInfo_Af7compareMFPvPvZi+0x19c>
	return 0;
  4020ad:	c7 45 84 00 00 00 00 	movl   $0x0,-0x7c(%rbp)
  4020b4:	8b 45 84             	mov    -0x7c(%rbp),%eax
    }
  4020b7:	c9                   	leaveq 
  4020b8:	c3                   	retq   

00000000004020b9 <_D3std8typeinfo9ti_Afloat11TypeInfo_Af5tsizeMFZm>:

    size_t tsize()
  4020b9:	55                   	push   %rbp
  4020ba:	48 89 e5             	mov    %rsp,%rbp
  4020bd:	48 83 ec 10          	sub    $0x10,%rsp
  4020c1:	48 89 7d f8          	mov    %rdi,-0x8(%rbp)
  4020c5:	48 8b 7d f8          	mov    -0x8(%rbp),%rdi
  4020c9:	e8 ae 72 00 00       	callq  40937c <_D9invariant12_d_invariantFC6ObjectZv>
    {
	return (float[]).sizeof;
  4020ce:	b8 10 00 00 00       	mov    $0x10,%eax
    }
  4020d3:	c9                   	leaveq 
  4020d4:	c3                   	retq   

00000000004020d5 <_D3std8typeinfo9ti_Afloat11TypeInfo_Af5flagsMFZk>:

    uint flags()
  4020d5:	55                   	push   %rbp
  4020d6:	48 89 e5             	mov    %rsp,%rbp
  4020d9:	48 83 ec 10          	sub    $0x10,%rsp
  4020dd:	48 89 7d f8          	mov    %rdi,-0x8(%rbp)
  4020e1:	48 8b 7d f8          	mov    -0x8(%rbp),%rdi
  4020e5:	e8 92 72 00 00       	callq  40937c <_D9invariant12_d_invariantFC6ObjectZv>
    {
	return 1;
  4020ea:	b8 01 00 00 00       	mov    $0x1,%eax
    }
  4020ef:	c9                   	leaveq 
  4020f0:	c3                   	retq   

00000000004020f1 <_D3std8typeinfo9ti_Afloat11TypeInfo_Af4nextMFZC8TypeInfo>:

    TypeInfo next()
  4020f1:	55                   	push   %rbp
  4020f2:	48 89 e5             	mov    %rsp,%rbp
  4020f5:	48 83 ec 10          	sub    $0x10,%rsp
  4020f9:	48 89 7d f8          	mov    %rdi,-0x8(%rbp)
  4020fd:	48 8b 7d f8          	mov    -0x8(%rbp),%rdi
  402101:	e8 76 72 00 00       	callq  40937c <_D9invariant12_d_invariantFC6ObjectZv>
    {
	return typeid(float);
  402106:	48 c7 c0 10 0d 41 00 	mov    $0x410d10,%rax
    }
  40210d:	c9                   	leaveq 
  40210e:	c3                   	retq   

000000000040210f <_D3std8typeinfo9ti_Afloat11TypeInfo_Ao8toStringMFZAa>:

// ifloat[]

class TypeInfo_Ao : TypeInfo_Af
{
    char[] toString() { return "ifloat[]"; }
  40210f:	55                   	push   %rbp
  402110:	48 89 e5             	mov    %rsp,%rbp
  402113:	53                   	push   %rbx
  402114:	48 83 ec 08          	sub    $0x8,%rsp
  402118:	48 89 fb             	mov    %rdi,%rbx
  40211b:	48 89 75 f0          	mov    %rsi,-0x10(%rbp)
  40211f:	48 8b 7d f0          	mov    -0x10(%rbp),%rdi
  402123:	e8 54 72 00 00       	callq  40937c <_D9invariant12_d_invariantFC6ObjectZv>
  402128:	48 c7 03 08 00 00 00 	movq   $0x8,(%rbx)
  40212f:	48 c7 43 08 b0 fb 40 	movq   $0x40fbb0,0x8(%rbx)
  402136:	00 
  402137:	48 89 d8             	mov    %rbx,%rax
  40213a:	48 83 c4 08          	add    $0x8,%rsp
  40213e:	5b                   	pop    %rbx
  40213f:	c9                   	leaveq 
  402140:	c3                   	retq   

0000000000402141 <_D3std8typeinfo9ti_Afloat11TypeInfo_Ao4nextMFZC8TypeInfo>:

    TypeInfo next()
  402141:	55                   	push   %rbp
  402142:	48 89 e5             	mov    %rsp,%rbp
  402145:	48 83 ec 10          	sub    $0x10,%rsp
  402149:	48 89 7d f8          	mov    %rdi,-0x8(%rbp)
  40214d:	48 8b 7d f8          	mov    -0x8(%rbp),%rdi
  402151:	e8 26 72 00 00       	callq  40937c <_D9invariant12_d_invariantFC6ObjectZv>
    {
	return typeid(ifloat);
  402156:	48 c7 c0 90 0e 41 00 	mov    $0x410e90,%rax
    }
  40215d:	c9                   	leaveq 
  40215e:	c3                   	retq   
  40215f:	90                   	nop    

0000000000402160 <_D3std8typeinfo5ti_Ag11TypeInfo_Ag8toStringMFZAa>:
import kernel.core.system;
// byte[]

class TypeInfo_Ag : TypeInfo
{
    char[] toString() { return "byte[]"; }
  402160:	55                   	push   %rbp
  402161:	48 89 e5             	mov    %rsp,%rbp
  402164:	53                   	push   %rbx
  402165:	48 83 ec 08          	sub    $0x8,%rsp
  402169:	48 89 fb             	mov    %rdi,%rbx
  40216c:	48 89 75 f0          	mov    %rsi,-0x10(%rbp)
  402170:	48 8b 7d f0          	mov    -0x10(%rbp),%rdi
  402174:	e8 03 72 00 00       	callq  40937c <_D9invariant12_d_invariantFC6ObjectZv>
  402179:	48 c7 03 06 00 00 00 	movq   $0x6,(%rbx)
  402180:	48 c7 43 08 60 fc 40 	movq   $0x40fc60,0x8(%rbx)
  402187:	00 
  402188:	48 89 d8             	mov    %rbx,%rax
  40218b:	48 83 c4 08          	add    $0x8,%rsp
  40218f:	5b                   	pop    %rbx
  402190:	c9                   	leaveq 
  402191:	c3                   	retq   

0000000000402192 <_D3std8typeinfo5ti_Ag11TypeInfo_Ag7getHashMFPvZm>:

    hash_t getHash(void *p)
  402192:	55                   	push   %rbp
  402193:	48 89 e5             	mov    %rsp,%rbp
  402196:	48 83 ec 50          	sub    $0x50,%rsp
  40219a:	48 89 7d c8          	mov    %rdi,-0x38(%rbp)
  40219e:	48 89 75 c0          	mov    %rsi,-0x40(%rbp)
  4021a2:	48 8b 7d c8          	mov    -0x38(%rbp),%rdi
  4021a6:	e8 d1 71 00 00       	callq  40937c <_D9invariant12_d_invariantFC6ObjectZv>
    {	byte[] s = *cast(byte[]*)p;
  4021ab:	48 8b 55 c0          	mov    -0x40(%rbp),%rdx
  4021af:	48 8b 02             	mov    (%rdx),%rax
  4021b2:	48 89 45 d0          	mov    %rax,-0x30(%rbp)
  4021b6:	48 8b 42 08          	mov    0x8(%rdx),%rax
  4021ba:	48 89 45 d8          	mov    %rax,-0x28(%rbp)
	size_t len = s.length;
  4021be:	48 8b 45 d0          	mov    -0x30(%rbp),%rax
  4021c2:	48 89 45 f8          	mov    %rax,-0x8(%rbp)
	byte *str = s.ptr;
  4021c6:	48 8b 45 d8          	mov    -0x28(%rbp),%rax
  4021ca:	48 89 45 f0          	mov    %rax,-0x10(%rbp)
	hash_t hash = 0;
  4021ce:	48 c7 45 e8 00 00 00 	movq   $0x0,-0x18(%rbp)
  4021d5:	00 

	while (1)
  4021d6:	b8 00 00 00 00       	mov    $0x0,%eax
  4021db:	84 c0                	test   %al,%al
  4021dd:	0f 85 01 01 00 00    	jne    4022e4 <_D3std8typeinfo5ti_Ag11TypeInfo_Ag7getHashMFPvZm+0x152>
		default:
		    hash *= 9;
		    hash += *cast(uint *)str;
		    str += 4;
		    len -= 4;
		    break;
  4021e3:	48 8b 45 f8          	mov    -0x8(%rbp),%rax
  4021e7:	48 89 45 b0          	mov    %rax,-0x50(%rbp)
  4021eb:	48 83 7d b0 01       	cmpq   $0x1,-0x50(%rbp)
  4021f0:	74 27                	je     402219 <_D3std8typeinfo5ti_Ag11TypeInfo_Ag7getHashMFPvZm+0x87>
  4021f2:	48 83 7d b0 01       	cmpq   $0x1,-0x50(%rbp)
  4021f7:	72 13                	jb     40220c <_D3std8typeinfo5ti_Ag11TypeInfo_Ag7getHashMFPvZm+0x7a>
  4021f9:	48 83 7d b0 02       	cmpq   $0x2,-0x50(%rbp)
  4021fe:	74 46                	je     402246 <_D3std8typeinfo5ti_Ag11TypeInfo_Ag7getHashMFPvZm+0xb4>
  402200:	48 83 7d b0 03       	cmpq   $0x3,-0x50(%rbp)
  402205:	74 69                	je     402270 <_D3std8typeinfo5ti_Ag11TypeInfo_Ag7getHashMFPvZm+0xde>
  402207:	e9 ab 00 00 00       	jmpq   4022b7 <_D3std8typeinfo5ti_Ag11TypeInfo_Ag7getHashMFPvZm+0x125>
	while (1)
	{
	    switch (len)
	    {
		case 0:
		    return hash;
  40220c:	48 8b 45 e8          	mov    -0x18(%rbp),%rax
  402210:	48 89 45 b8          	mov    %rax,-0x48(%rbp)
  402214:	e9 d3 00 00 00       	jmpq   4022ec <_D3std8typeinfo5ti_Ag11TypeInfo_Ag7getHashMFPvZm+0x15a>

		case 1:
		    hash *= 9;
  402219:	48 8b 55 e8          	mov    -0x18(%rbp),%rdx
  40221d:	48 89 d0             	mov    %rdx,%rax
  402220:	48 c1 e0 03          	shl    $0x3,%rax
  402224:	48 01 d0             	add    %rdx,%rax
  402227:	48 89 45 e8          	mov    %rax,-0x18(%rbp)
		    hash += *cast(ubyte *)str;
  40222b:	48 8b 45 f0          	mov    -0x10(%rbp),%rax
  40222f:	0f b6 00             	movzbl (%rax),%eax
  402232:	0f b6 c0             	movzbl %al,%eax
  402235:	48 01 45 e8          	add    %rax,-0x18(%rbp)
		    return hash;
  402239:	48 8b 45 e8          	mov    -0x18(%rbp),%rax
  40223d:	48 89 45 b8          	mov    %rax,-0x48(%rbp)
  402241:	e9 a6 00 00 00       	jmpq   4022ec <_D3std8typeinfo5ti_Ag11TypeInfo_Ag7getHashMFPvZm+0x15a>

		case 2:
		    hash *= 9;
  402246:	48 8b 55 e8          	mov    -0x18(%rbp),%rdx
  40224a:	48 89 d0             	mov    %rdx,%rax
  40224d:	48 c1 e0 03          	shl    $0x3,%rax
  402251:	48 01 d0             	add    %rdx,%rax
  402254:	48 89 45 e8          	mov    %rax,-0x18(%rbp)
		    hash += *cast(ushort *)str;
  402258:	48 8b 45 f0          	mov    -0x10(%rbp),%rax
  40225c:	0f b7 00             	movzwl (%rax),%eax
  40225f:	0f b7 c0             	movzwl %ax,%eax
  402262:	48 01 45 e8          	add    %rax,-0x18(%rbp)
		    return hash;
  402266:	48 8b 45 e8          	mov    -0x18(%rbp),%rax
  40226a:	48 89 45 b8          	mov    %rax,-0x48(%rbp)
  40226e:	eb 7c                	jmp    4022ec <_D3std8typeinfo5ti_Ag11TypeInfo_Ag7getHashMFPvZm+0x15a>

		case 3:
		    hash *= 9;
  402270:	48 8b 55 e8          	mov    -0x18(%rbp),%rdx
  402274:	48 89 d0             	mov    %rdx,%rax
  402277:	48 c1 e0 03          	shl    $0x3,%rax
  40227b:	48 01 d0             	add    %rdx,%rax
  40227e:	48 89 45 e8          	mov    %rax,-0x18(%rbp)
		    hash += (*cast(ushort *)str << 8) +
  402282:	48 8b 45 f0          	mov    -0x10(%rbp),%rax
  402286:	0f b7 00             	movzwl (%rax),%eax
  402289:	0f b7 c0             	movzwl %ax,%eax
  40228c:	89 c1                	mov    %eax,%ecx
  40228e:	c1 e1 08             	shl    $0x8,%ecx
  402291:	48 8b 55 f0          	mov    -0x10(%rbp),%rdx
  402295:	b8 02 00 00 00       	mov    $0x2,%eax
  40229a:	48 8d 04 02          	lea    (%rdx,%rax,1),%rax
  40229e:	0f b6 00             	movzbl (%rax),%eax
  4022a1:	0f b6 c0             	movzbl %al,%eax
  4022a4:	8d 04 01             	lea    (%rcx,%rax,1),%eax
  4022a7:	48 98                	cltq   
  4022a9:	48 01 45 e8          	add    %rax,-0x18(%rbp)
			    (cast(ubyte *)str)[2];
		    return hash;
  4022ad:	48 8b 45 e8          	mov    -0x18(%rbp),%rax
  4022b1:	48 89 45 b8          	mov    %rax,-0x48(%rbp)
  4022b5:	eb 35                	jmp    4022ec <_D3std8typeinfo5ti_Ag11TypeInfo_Ag7getHashMFPvZm+0x15a>

		default:
		    hash *= 9;
  4022b7:	48 8b 55 e8          	mov    -0x18(%rbp),%rdx
  4022bb:	48 89 d0             	mov    %rdx,%rax
  4022be:	48 c1 e0 03          	shl    $0x3,%rax
  4022c2:	48 01 d0             	add    %rdx,%rax
  4022c5:	48 89 45 e8          	mov    %rax,-0x18(%rbp)
		    hash += *cast(uint *)str;
  4022c9:	48 8b 45 f0          	mov    -0x10(%rbp),%rax
  4022cd:	8b 00                	mov    (%rax),%eax
  4022cf:	89 c0                	mov    %eax,%eax
  4022d1:	48 01 45 e8          	add    %rax,-0x18(%rbp)
		    str += 4;
  4022d5:	48 83 45 f0 04       	addq   $0x4,-0x10(%rbp)
		    len -= 4;
  4022da:	48 83 6d f8 04       	subq   $0x4,-0x8(%rbp)
		    break;
  4022df:	e9 f2 fe ff ff       	jmpq   4021d6 <_D3std8typeinfo5ti_Ag11TypeInfo_Ag7getHashMFPvZm+0x44>
	    }
	}

	return hash;
  4022e4:	48 8b 45 e8          	mov    -0x18(%rbp),%rax
  4022e8:	48 89 45 b8          	mov    %rax,-0x48(%rbp)
  4022ec:	48 8b 45 b8          	mov    -0x48(%rbp),%rax
    }
  4022f0:	c9                   	leaveq 
  4022f1:	c3                   	retq   

00000000004022f2 <_D3std8typeinfo5ti_Ag11TypeInfo_Ag6equalsMFPvPvZi>:

    int equals(void *p1, void *p2)
  4022f2:	55                   	push   %rbp
  4022f3:	48 89 e5             	mov    %rsp,%rbp
  4022f6:	48 83 ec 40          	sub    $0x40,%rsp
  4022fa:	48 89 7d d8          	mov    %rdi,-0x28(%rbp)
  4022fe:	48 89 75 d0          	mov    %rsi,-0x30(%rbp)
  402302:	48 89 55 c8          	mov    %rdx,-0x38(%rbp)
  402306:	48 8b 7d d8          	mov    -0x28(%rbp),%rdi
  40230a:	e8 6d 70 00 00       	callq  40937c <_D9invariant12_d_invariantFC6ObjectZv>
    {
	ubyte[] s1 = *cast(ubyte[]*)p1;
  40230f:	48 8b 55 d0          	mov    -0x30(%rbp),%rdx
  402313:	48 8b 02             	mov    (%rdx),%rax
  402316:	48 89 45 e0          	mov    %rax,-0x20(%rbp)
  40231a:	48 8b 42 08          	mov    0x8(%rdx),%rax
  40231e:	48 89 45 e8          	mov    %rax,-0x18(%rbp)
	ubyte[] s2 = *cast(ubyte[]*)p2;
  402322:	48 8b 55 c8          	mov    -0x38(%rbp),%rdx
  402326:	48 8b 02             	mov    (%rdx),%rax
  402329:	48 89 45 f0          	mov    %rax,-0x10(%rbp)
  40232d:	48 8b 42 08          	mov    0x8(%rdx),%rax
  402331:	48 89 45 f8          	mov    %rax,-0x8(%rbp)

	return s1.length == s2.length &&
  402335:	48 8b 55 e0          	mov    -0x20(%rbp),%rdx
  402339:	48 8b 45 f0          	mov    -0x10(%rbp),%rax
  40233d:	48 39 c2             	cmp    %rax,%rdx
  402340:	75 1c                	jne    40235e <_D3std8typeinfo5ti_Ag11TypeInfo_Ag6equalsMFPvPvZi+0x6c>
  402342:	48 8b 55 e0          	mov    -0x20(%rbp),%rdx
  402346:	48 8b 75 f8          	mov    -0x8(%rbp),%rsi
  40234a:	48 8b 7d e8          	mov    -0x18(%rbp),%rdi
  40234e:	e8 61 b5 00 00       	callq  40d8b4 <_D6kernel4core6system6memcmpFPvPvmZl>
  402353:	48 85 c0             	test   %rax,%rax
  402356:	75 06                	jne    40235e <_D3std8typeinfo5ti_Ag11TypeInfo_Ag6equalsMFPvPvZi+0x6c>
  402358:	c6 45 c7 01          	movb   $0x1,-0x39(%rbp)
  40235c:	eb 04                	jmp    402362 <_D3std8typeinfo5ti_Ag11TypeInfo_Ag6equalsMFPvPvZi+0x70>
  40235e:	c6 45 c7 00          	movb   $0x0,-0x39(%rbp)
  402362:	0f b6 45 c7          	movzbl -0x39(%rbp),%eax
	       memcmp(s1.ptr, s2.ptr, s1.length) == 0;
    }
  402366:	c9                   	leaveq 
  402367:	c3                   	retq   

0000000000402368 <_D3std8typeinfo5ti_Ag11TypeInfo_Ag7compareMFPvPvZi>:

    int compare(void *p1, void *p2)
  402368:	55                   	push   %rbp
  402369:	48 89 e5             	mov    %rsp,%rbp
  40236c:	48 81 ec b0 00 00 00 	sub    $0xb0,%rsp
  402373:	48 89 7d 98          	mov    %rdi,-0x68(%rbp)
  402377:	48 89 75 90          	mov    %rsi,-0x70(%rbp)
  40237b:	48 89 55 88          	mov    %rdx,-0x78(%rbp)
  40237f:	48 8b 7d 98          	mov    -0x68(%rbp),%rdi
  402383:	e8 f4 6f 00 00       	callq  40937c <_D9invariant12_d_invariantFC6ObjectZv>
    {
	byte[] s1 = *cast(byte[]*)p1;
  402388:	48 8b 55 90          	mov    -0x70(%rbp),%rdx
  40238c:	48 8b 02             	mov    (%rdx),%rax
  40238f:	48 89 45 a0          	mov    %rax,-0x60(%rbp)
  402393:	48 8b 42 08          	mov    0x8(%rdx),%rax
  402397:	48 89 45 a8          	mov    %rax,-0x58(%rbp)
	byte[] s2 = *cast(byte[]*)p2;
  40239b:	48 8b 55 88          	mov    -0x78(%rbp),%rdx
  40239f:	48 8b 02             	mov    (%rdx),%rax
  4023a2:	48 89 45 b0          	mov    %rax,-0x50(%rbp)
  4023a6:	48 8b 42 08          	mov    0x8(%rdx),%rax
  4023aa:	48 89 45 b8          	mov    %rax,-0x48(%rbp)
	size_t len = s1.length;
  4023ae:	48 8b 45 a0          	mov    -0x60(%rbp),%rax
  4023b2:	48 89 45 e8          	mov    %rax,-0x18(%rbp)

	if (s2.length < len)
  4023b6:	48 8b 45 b0          	mov    -0x50(%rbp),%rax
  4023ba:	48 3b 45 e8          	cmp    -0x18(%rbp),%rax
  4023be:	73 08                	jae    4023c8 <_D3std8typeinfo5ti_Ag11TypeInfo_Ag7compareMFPvPvZi+0x60>
	    len = s2.length;
  4023c0:	48 8b 45 b0          	mov    -0x50(%rbp),%rax
  4023c4:	48 89 45 e8          	mov    %rax,-0x18(%rbp)
	for (size_t u = 0; u < len; u++)
  4023c8:	48 c7 45 f0 00 00 00 	movq   $0x0,-0x10(%rbp)
  4023cf:	00 
  4023d0:	48 8b 45 f0          	mov    -0x10(%rbp),%rax
  4023d4:	48 3b 45 e8          	cmp    -0x18(%rbp),%rax
  4023d8:	0f 92 c0             	setb   %al
  4023db:	83 f0 01             	xor    $0x1,%eax
  4023de:	84 c0                	test   %al,%al
  4023e0:	0f 85 da 00 00 00    	jne    4024c0 <_D3std8typeinfo5ti_Ag11TypeInfo_Ag7compareMFPvPvZi+0x158>
	{
	    int result = s1[u] - s2[u];
  4023e6:	48 8b 45 a8          	mov    -0x58(%rbp),%rax
  4023ea:	48 89 85 58 ff ff ff 	mov    %rax,-0xa8(%rbp)
  4023f1:	48 8b 45 a0          	mov    -0x60(%rbp),%rax
  4023f5:	48 39 45 f0          	cmp    %rax,-0x10(%rbp)
  4023f9:	73 0d                	jae    402408 <_D3std8typeinfo5ti_Ag11TypeInfo_Ag7compareMFPvPvZi+0xa0>
  4023fb:	48 8b 55 f0          	mov    -0x10(%rbp),%rdx
  4023ff:	48 89 95 60 ff ff ff 	mov    %rdx,-0xa0(%rbp)
  402406:	eb 22                	jmp    40242a <_D3std8typeinfo5ti_Ag11TypeInfo_Ag7compareMFPvPvZi+0xc2>
  402408:	48 c7 45 c0 14 00 00 	movq   $0x14,-0x40(%rbp)
  40240f:	00 
  402410:	48 c7 45 c8 67 fc 40 	movq   $0x40fc67,-0x38(%rbp)
  402417:	00 
  402418:	48 8b 7d c0          	mov    -0x40(%rbp),%rdi
  40241c:	48 8b 75 c8          	mov    -0x38(%rbp),%rsi
  402420:	ba 46 00 00 00       	mov    $0x46,%edx
  402425:	e8 1b 8a 00 00       	callq  40ae45 <_d_array_bounds>
  40242a:	48 8b 85 60 ff ff ff 	mov    -0xa0(%rbp),%rax
  402431:	48 03 85 58 ff ff ff 	add    -0xa8(%rbp),%rax
  402438:	0f b6 00             	movzbl (%rax),%eax
  40243b:	0f be c0             	movsbl %al,%eax
  40243e:	89 85 6c ff ff ff    	mov    %eax,-0x94(%rbp)
  402444:	48 8b 45 b8          	mov    -0x48(%rbp),%rax
  402448:	48 89 85 70 ff ff ff 	mov    %rax,-0x90(%rbp)
  40244f:	48 8b 45 b0          	mov    -0x50(%rbp),%rax
  402453:	48 39 45 f0          	cmp    %rax,-0x10(%rbp)
  402457:	73 0d                	jae    402466 <_D3std8typeinfo5ti_Ag11TypeInfo_Ag7compareMFPvPvZi+0xfe>
  402459:	48 8b 55 f0          	mov    -0x10(%rbp),%rdx
  40245d:	48 89 95 78 ff ff ff 	mov    %rdx,-0x88(%rbp)
  402464:	eb 22                	jmp    402488 <_D3std8typeinfo5ti_Ag11TypeInfo_Ag7compareMFPvPvZi+0x120>
  402466:	48 c7 45 d0 14 00 00 	movq   $0x14,-0x30(%rbp)
  40246d:	00 
  40246e:	48 c7 45 d8 67 fc 40 	movq   $0x40fc67,-0x28(%rbp)
  402475:	00 
  402476:	48 8b 7d d0          	mov    -0x30(%rbp),%rdi
  40247a:	48 8b 75 d8          	mov    -0x28(%rbp),%rsi
  40247e:	ba 46 00 00 00       	mov    $0x46,%edx
  402483:	e8 bd 89 00 00       	callq  40ae45 <_d_array_bounds>
  402488:	48 8b 85 78 ff ff ff 	mov    -0x88(%rbp),%rax
  40248f:	48 03 85 70 ff ff ff 	add    -0x90(%rbp),%rax
  402496:	0f b6 00             	movzbl (%rax),%eax
  402499:	0f be c0             	movsbl %al,%eax
  40249c:	8b 95 6c ff ff ff    	mov    -0x94(%rbp),%edx
  4024a2:	29 c2                	sub    %eax,%edx
  4024a4:	89 d0                	mov    %edx,%eax
  4024a6:	89 45 fc             	mov    %eax,-0x4(%rbp)
	    if (result)
  4024a9:	83 7d fc 00          	cmpl   $0x0,-0x4(%rbp)
  4024ad:	74 08                	je     4024b7 <_D3std8typeinfo5ti_Ag11TypeInfo_Ag7compareMFPvPvZi+0x14f>
		return result;
  4024af:	8b 45 fc             	mov    -0x4(%rbp),%eax
  4024b2:	89 45 84             	mov    %eax,-0x7c(%rbp)
  4024b5:	eb 3c                	jmp    4024f3 <_D3std8typeinfo5ti_Ag11TypeInfo_Ag7compareMFPvPvZi+0x18b>
	if (s2.length < len)
	    len = s2.length;
	for (size_t u = 0; u < len; u++)
	{
	    int result = s1[u] - s2[u];
	    if (result)
  4024b7:	48 ff 45 f0          	incq   -0x10(%rbp)
  4024bb:	e9 10 ff ff ff       	jmpq   4023d0 <_D3std8typeinfo5ti_Ag11TypeInfo_Ag7compareMFPvPvZi+0x68>
		return result;
	}
	if (s1.length < s2.length)
  4024c0:	48 8b 55 a0          	mov    -0x60(%rbp),%rdx
  4024c4:	48 8b 45 b0          	mov    -0x50(%rbp),%rax
  4024c8:	48 39 c2             	cmp    %rax,%rdx
  4024cb:	73 09                	jae    4024d6 <_D3std8typeinfo5ti_Ag11TypeInfo_Ag7compareMFPvPvZi+0x16e>
	    return -1;
  4024cd:	c7 45 84 ff ff ff ff 	movl   $0xffffffff,-0x7c(%rbp)
  4024d4:	eb 1d                	jmp    4024f3 <_D3std8typeinfo5ti_Ag11TypeInfo_Ag7compareMFPvPvZi+0x18b>
	else if (s1.length > s2.length)
  4024d6:	48 8b 55 a0          	mov    -0x60(%rbp),%rdx
  4024da:	48 8b 45 b0          	mov    -0x50(%rbp),%rax
  4024de:	48 39 c2             	cmp    %rax,%rdx
  4024e1:	76 09                	jbe    4024ec <_D3std8typeinfo5ti_Ag11TypeInfo_Ag7compareMFPvPvZi+0x184>
	    return 1;
  4024e3:	c7 45 84 01 00 00 00 	movl   $0x1,-0x7c(%rbp)
  4024ea:	eb 07                	jmp    4024f3 <_D3std8typeinfo5ti_Ag11TypeInfo_Ag7compareMFPvPvZi+0x18b>
	return 0;
  4024ec:	c7 45 84 00 00 00 00 	movl   $0x0,-0x7c(%rbp)
  4024f3:	8b 45 84             	mov    -0x7c(%rbp),%eax
    }
  4024f6:	c9                   	leaveq 
  4024f7:	c3                   	retq   

00000000004024f8 <_D3std8typeinfo5ti_Ag11TypeInfo_Ag5tsizeMFZm>:

    size_t tsize()
  4024f8:	55                   	push   %rbp
  4024f9:	48 89 e5             	mov    %rsp,%rbp
  4024fc:	48 83 ec 10          	sub    $0x10,%rsp
  402500:	48 89 7d f8          	mov    %rdi,-0x8(%rbp)
  402504:	48 8b 7d f8          	mov    -0x8(%rbp),%rdi
  402508:	e8 6f 6e 00 00       	callq  40937c <_D9invariant12_d_invariantFC6ObjectZv>
    {
	return (byte[]).sizeof;
  40250d:	b8 10 00 00 00       	mov    $0x10,%eax
    }
  402512:	c9                   	leaveq 
  402513:	c3                   	retq   

0000000000402514 <_D3std8typeinfo5ti_Ag11TypeInfo_Ag5flagsMFZk>:

    uint flags()
  402514:	55                   	push   %rbp
  402515:	48 89 e5             	mov    %rsp,%rbp
  402518:	48 83 ec 10          	sub    $0x10,%rsp
  40251c:	48 89 7d f8          	mov    %rdi,-0x8(%rbp)
  402520:	48 8b 7d f8          	mov    -0x8(%rbp),%rdi
  402524:	e8 53 6e 00 00       	callq  40937c <_D9invariant12_d_invariantFC6ObjectZv>
    {
	return 1;
  402529:	b8 01 00 00 00       	mov    $0x1,%eax
    }
  40252e:	c9                   	leaveq 
  40252f:	c3                   	retq   

0000000000402530 <_D3std8typeinfo5ti_Ag11TypeInfo_Ag4nextMFZC8TypeInfo>:

    TypeInfo next()
  402530:	55                   	push   %rbp
  402531:	48 89 e5             	mov    %rsp,%rbp
  402534:	48 83 ec 10          	sub    $0x10,%rsp
  402538:	48 89 7d f8          	mov    %rdi,-0x8(%rbp)
  40253c:	48 8b 7d f8          	mov    -0x8(%rbp),%rdi
  402540:	e8 37 6e 00 00       	callq  40937c <_D9invariant12_d_invariantFC6ObjectZv>
    {
	return typeid(byte);
  402545:	48 c7 c0 90 06 41 00 	mov    $0x410690,%rax
    }
  40254c:	c9                   	leaveq 
  40254d:	c3                   	retq   

000000000040254e <_D3std8typeinfo5ti_Ag11TypeInfo_Ah8toStringMFZAa>:

// ubyte[]

class TypeInfo_Ah : TypeInfo_Ag
{
    char[] toString() { return "ubyte[]"; }
  40254e:	55                   	push   %rbp
  40254f:	48 89 e5             	mov    %rsp,%rbp
  402552:	53                   	push   %rbx
  402553:	48 83 ec 08          	sub    $0x8,%rsp
  402557:	48 89 fb             	mov    %rdi,%rbx
  40255a:	48 89 75 f0          	mov    %rsi,-0x10(%rbp)
  40255e:	48 8b 7d f0          	mov    -0x10(%rbp),%rdi
  402562:	e8 15 6e 00 00       	callq  40937c <_D9invariant12_d_invariantFC6ObjectZv>
  402567:	48 c7 03 07 00 00 00 	movq   $0x7,(%rbx)
  40256e:	48 c7 43 08 10 fd 40 	movq   $0x40fd10,0x8(%rbx)
  402575:	00 
  402576:	48 89 d8             	mov    %rbx,%rax
  402579:	48 83 c4 08          	add    $0x8,%rsp
  40257d:	5b                   	pop    %rbx
  40257e:	c9                   	leaveq 
  40257f:	c3                   	retq   

0000000000402580 <_D3std8typeinfo5ti_Ag11TypeInfo_Ah7compareMFPvPvZi>:

    int compare(void *p1, void *p2)
  402580:	55                   	push   %rbp
  402581:	48 89 e5             	mov    %rsp,%rbp
  402584:	48 83 ec 40          	sub    $0x40,%rsp
  402588:	48 89 7d d8          	mov    %rdi,-0x28(%rbp)
  40258c:	48 89 75 d0          	mov    %rsi,-0x30(%rbp)
  402590:	48 89 55 c8          	mov    %rdx,-0x38(%rbp)
  402594:	48 8b 7d d8          	mov    -0x28(%rbp),%rdi
  402598:	e8 df 6d 00 00       	callq  40937c <_D9invariant12_d_invariantFC6ObjectZv>
    {
	ubyte[] s1 = *cast(ubyte[]*)p1;
  40259d:	48 8b 55 d0          	mov    -0x30(%rbp),%rdx
  4025a1:	48 8b 02             	mov    (%rdx),%rax
  4025a4:	48 89 45 e0          	mov    %rax,-0x20(%rbp)
  4025a8:	48 8b 42 08          	mov    0x8(%rdx),%rax
  4025ac:	48 89 45 e8          	mov    %rax,-0x18(%rbp)
	ubyte[] s2 = *cast(ubyte[]*)p2;
  4025b0:	48 8b 55 c8          	mov    -0x38(%rbp),%rdx
  4025b4:	48 8b 02             	mov    (%rdx),%rax
  4025b7:	48 89 45 f0          	mov    %rax,-0x10(%rbp)
  4025bb:	48 8b 42 08          	mov    0x8(%rdx),%rax
  4025bf:	48 89 45 f8          	mov    %rax,-0x8(%rbp)

	return memcmp(s1.ptr, s2.ptr, s1.length);
  4025c3:	48 8b 55 e0          	mov    -0x20(%rbp),%rdx
  4025c7:	48 8b 75 f8          	mov    -0x8(%rbp),%rsi
  4025cb:	48 8b 7d e8          	mov    -0x18(%rbp),%rdi
  4025cf:	e8 e0 b2 00 00       	callq  40d8b4 <_D6kernel4core6system6memcmpFPvPvmZl>
    }
  4025d4:	c9                   	leaveq 
  4025d5:	c3                   	retq   

00000000004025d6 <_D3std8typeinfo5ti_Ag11TypeInfo_Ah4nextMFZC8TypeInfo>:

    TypeInfo next()
  4025d6:	55                   	push   %rbp
  4025d7:	48 89 e5             	mov    %rsp,%rbp
  4025da:	48 83 ec 10          	sub    $0x10,%rsp
  4025de:	48 89 7d f8          	mov    %rdi,-0x8(%rbp)
  4025e2:	48 8b 7d f8          	mov    -0x8(%rbp),%rdi
  4025e6:	e8 91 6d 00 00       	callq  40937c <_D9invariant12_d_invariantFC6ObjectZv>
    {
	return typeid(ubyte);
  4025eb:	48 c7 c0 b0 13 41 00 	mov    $0x4113b0,%rax
    }
  4025f2:	c9                   	leaveq 
  4025f3:	c3                   	retq   

00000000004025f4 <_D3std8typeinfo5ti_Ag11TypeInfo_Av8toStringMFZAa>:

// void[]

class TypeInfo_Av : TypeInfo_Ah
{
    char[] toString() { return "void[]"; }
  4025f4:	55                   	push   %rbp
  4025f5:	48 89 e5             	mov    %rsp,%rbp
  4025f8:	53                   	push   %rbx
  4025f9:	48 83 ec 08          	sub    $0x8,%rsp
  4025fd:	48 89 fb             	mov    %rdi,%rbx
  402600:	48 89 75 f0          	mov    %rsi,-0x10(%rbp)
  402604:	48 8b 7d f0          	mov    -0x10(%rbp),%rdi
  402608:	e8 6f 6d 00 00       	callq  40937c <_D9invariant12_d_invariantFC6ObjectZv>
  40260d:	48 c7 03 06 00 00 00 	movq   $0x6,(%rbx)
  402614:	48 c7 43 08 b0 fd 40 	movq   $0x40fdb0,0x8(%rbx)
  40261b:	00 
  40261c:	48 89 d8             	mov    %rbx,%rax
  40261f:	48 83 c4 08          	add    $0x8,%rsp
  402623:	5b                   	pop    %rbx
  402624:	c9                   	leaveq 
  402625:	c3                   	retq   

0000000000402626 <_D3std8typeinfo5ti_Ag11TypeInfo_Av4nextMFZC8TypeInfo>:

    TypeInfo next()
  402626:	55                   	push   %rbp
  402627:	48 89 e5             	mov    %rsp,%rbp
  40262a:	48 83 ec 10          	sub    $0x10,%rsp
  40262e:	48 89 7d f8          	mov    %rdi,-0x8(%rbp)
  402632:	48 8b 7d f8          	mov    -0x8(%rbp),%rdi
  402636:	e8 41 6d 00 00       	callq  40937c <_D9invariant12_d_invariantFC6ObjectZv>
    {
	return typeid(void);
  40263b:	48 c7 c0 60 17 41 00 	mov    $0x411760,%rax
    }
  402642:	c9                   	leaveq 
  402643:	c3                   	retq   

0000000000402644 <_D3std8typeinfo5ti_Ag11TypeInfo_Ab8toStringMFZAa>:

// bool[]

class TypeInfo_Ab : TypeInfo_Ah
{
    char[] toString() { return "bool[]"; }
  402644:	55                   	push   %rbp
  402645:	48 89 e5             	mov    %rsp,%rbp
  402648:	53                   	push   %rbx
  402649:	48 83 ec 08          	sub    $0x8,%rsp
  40264d:	48 89 fb             	mov    %rdi,%rbx
  402650:	48 89 75 f0          	mov    %rsi,-0x10(%rbp)
  402654:	48 8b 7d f0          	mov    -0x10(%rbp),%rdi
  402658:	e8 1f 6d 00 00       	callq  40937c <_D9invariant12_d_invariantFC6ObjectZv>
  40265d:	48 c7 03 06 00 00 00 	movq   $0x6,(%rbx)
  402664:	48 c7 43 08 50 fe 40 	movq   $0x40fe50,0x8(%rbx)
  40266b:	00 
  40266c:	48 89 d8             	mov    %rbx,%rax
  40266f:	48 83 c4 08          	add    $0x8,%rsp
  402673:	5b                   	pop    %rbx
  402674:	c9                   	leaveq 
  402675:	c3                   	retq   

0000000000402676 <_D3std8typeinfo5ti_Ag11TypeInfo_Ab4nextMFZC8TypeInfo>:

    TypeInfo next()
  402676:	55                   	push   %rbp
  402677:	48 89 e5             	mov    %rsp,%rbp
  40267a:	48 83 ec 10          	sub    $0x10,%rsp
  40267e:	48 89 7d f8          	mov    %rdi,-0x8(%rbp)
  402682:	48 8b 7d f8          	mov    -0x8(%rbp),%rdi
  402686:	e8 f1 6c 00 00       	callq  40937c <_D9invariant12_d_invariantFC6ObjectZv>
    {
	return typeid(bool);
  40268b:	48 c7 c0 60 14 41 00 	mov    $0x411460,%rax
    }
  402692:	c9                   	leaveq 
  402693:	c3                   	retq   

0000000000402694 <_D3std8typeinfo5ti_Ag11TypeInfo_Aa8toStringMFZAa>:

// char[]

class TypeInfo_Aa : TypeInfo_Ag
{
    char[] toString() { return "char[]"; }
  402694:	55                   	push   %rbp
  402695:	48 89 e5             	mov    %rsp,%rbp
  402698:	53                   	push   %rbx
  402699:	48 83 ec 08          	sub    $0x8,%rsp
  40269d:	48 89 fb             	mov    %rdi,%rbx
  4026a0:	48 89 75 f0          	mov    %rsi,-0x10(%rbp)
  4026a4:	48 8b 7d f0          	mov    -0x10(%rbp),%rdi
  4026a8:	e8 cf 6c 00 00       	callq  40937c <_D9invariant12_d_invariantFC6ObjectZv>
  4026ad:	48 c7 03 06 00 00 00 	movq   $0x6,(%rbx)
  4026b4:	48 c7 43 08 f0 fe 40 	movq   $0x40fef0,0x8(%rbx)
  4026bb:	00 
  4026bc:	48 89 d8             	mov    %rbx,%rax
  4026bf:	48 83 c4 08          	add    $0x8,%rsp
  4026c3:	5b                   	pop    %rbx
  4026c4:	c9                   	leaveq 
  4026c5:	c3                   	retq   

00000000004026c6 <_D3std8typeinfo5ti_Ag11TypeInfo_Aa7getHashMFPvZm>:

    hash_t getHash(void *p)
  4026c6:	55                   	push   %rbp
  4026c7:	48 89 e5             	mov    %rsp,%rbp
  4026ca:	48 83 ec 50          	sub    $0x50,%rsp
  4026ce:	48 89 7d c8          	mov    %rdi,-0x38(%rbp)
  4026d2:	48 89 75 c0          	mov    %rsi,-0x40(%rbp)
  4026d6:	48 8b 7d c8          	mov    -0x38(%rbp),%rdi
  4026da:	e8 9d 6c 00 00       	callq  40937c <_D9invariant12_d_invariantFC6ObjectZv>
    {	char[] s = *cast(char[]*)p;
  4026df:	48 8b 55 c0          	mov    -0x40(%rbp),%rdx
  4026e3:	48 8b 02             	mov    (%rdx),%rax
  4026e6:	48 89 45 d0          	mov    %rax,-0x30(%rbp)
  4026ea:	48 8b 42 08          	mov    0x8(%rdx),%rax
  4026ee:	48 89 45 d8          	mov    %rax,-0x28(%rbp)
	hash_t hash = 0;
  4026f2:	48 c7 45 e8 00 00 00 	movq   $0x0,-0x18(%rbp)
  4026f9:	00 

version (all)
{
	foreach (char c; s)
  4026fa:	48 8b 45 d8          	mov    -0x28(%rbp),%rax
  4026fe:	48 89 45 b8          	mov    %rax,-0x48(%rbp)
  402702:	48 8b 45 b8          	mov    -0x48(%rbp),%rax
  402706:	48 89 45 f0          	mov    %rax,-0x10(%rbp)
  40270a:	48 8b 45 d0          	mov    -0x30(%rbp),%rax
  40270e:	48 03 45 b8          	add    -0x48(%rbp),%rax
  402712:	48 39 45 f0          	cmp    %rax,-0x10(%rbp)
  402716:	0f 95 c0             	setne  %al
  402719:	83 f0 01             	xor    $0x1,%eax
  40271c:	84 c0                	test   %al,%al
  40271e:	75 3c                	jne    40275c <_D3std8typeinfo5ti_Ag11TypeInfo_Aa7getHashMFPvZm+0x96>
  402720:	48 8b 45 f0          	mov    -0x10(%rbp),%rax
  402724:	0f b6 00             	movzbl (%rax),%eax
  402727:	88 45 ff             	mov    %al,-0x1(%rbp)
	    hash = hash * 11 + c;
  40272a:	48 8b 4d e8          	mov    -0x18(%rbp),%rcx
  40272e:	48 89 c8             	mov    %rcx,%rax
  402731:	48 8d 14 85 00 00 00 	lea    0x0(,%rax,4),%rdx
  402738:	00 
  402739:	48 8d 04 95 00 00 00 	lea    0x0(,%rdx,4),%rax
  402740:	00 
  402741:	48 29 d0             	sub    %rdx,%rax
  402744:	48 89 c2             	mov    %rax,%rdx
  402747:	48 29 ca             	sub    %rcx,%rdx
  40274a:	0f b6 45 ff          	movzbl -0x1(%rbp),%eax
  40274e:	48 8d 04 02          	lea    (%rdx,%rax,1),%rax
  402752:	48 89 45 e8          	mov    %rax,-0x18(%rbp)
  402756:	48 ff 45 f0          	incq   -0x10(%rbp)
  40275a:	eb ae                	jmp    40270a <_D3std8typeinfo5ti_Ag11TypeInfo_Aa7getHashMFPvZm+0x44>
		    len -= 4;
		    break;
	    }
	}
}
	return hash;
  40275c:	48 8b 45 e8          	mov    -0x18(%rbp),%rax
    }
  402760:	c9                   	leaveq 
  402761:	c3                   	retq   

0000000000402762 <_D3std8typeinfo5ti_Ag11TypeInfo_Aa4nextMFZC8TypeInfo>:

    TypeInfo next()
  402762:	55                   	push   %rbp
  402763:	48 89 e5             	mov    %rsp,%rbp
  402766:	48 83 ec 10          	sub    $0x10,%rsp
  40276a:	48 89 7d f8          	mov    %rdi,-0x8(%rbp)
  40276e:	48 8b 7d f8          	mov    -0x8(%rbp),%rdi
  402772:	e8 05 6c 00 00       	callq  40937c <_D9invariant12_d_invariantFC6ObjectZv>
    {
	return typeid(char);
  402777:	48 c7 c0 70 09 41 00 	mov    $0x410970,%rax
    }
  40277e:	c9                   	leaveq 
  40277f:	c3                   	retq   

0000000000402780 <_D3std8typeinfo7ti_Aint11TypeInfo_Ai8toStringMFZAa>:

// int[]

class TypeInfo_Ai : TypeInfo
{
    char[] toString() { return "int[]"; }
  402780:	55                   	push   %rbp
  402781:	48 89 e5             	mov    %rsp,%rbp
  402784:	53                   	push   %rbx
  402785:	48 83 ec 08          	sub    $0x8,%rsp
  402789:	48 89 fb             	mov    %rdi,%rbx
  40278c:	48 89 75 f0          	mov    %rsi,-0x10(%rbp)
  402790:	48 8b 7d f0          	mov    -0x10(%rbp),%rdi
  402794:	e8 e3 6b 00 00       	callq  40937c <_D9invariant12_d_invariantFC6ObjectZv>
  402799:	48 c7 03 05 00 00 00 	movq   $0x5,(%rbx)
  4027a0:	48 c7 43 08 a0 ff 40 	movq   $0x40ffa0,0x8(%rbx)
  4027a7:	00 
  4027a8:	48 89 d8             	mov    %rbx,%rax
  4027ab:	48 83 c4 08          	add    $0x8,%rsp
  4027af:	5b                   	pop    %rbx
  4027b0:	c9                   	leaveq 
  4027b1:	c3                   	retq   

00000000004027b2 <_D3std8typeinfo7ti_Aint11TypeInfo_Ai7getHashMFPvZm>:

    hash_t getHash(void *p)
  4027b2:	55                   	push   %rbp
  4027b3:	48 89 e5             	mov    %rsp,%rbp
  4027b6:	48 83 ec 40          	sub    $0x40,%rsp
  4027ba:	48 89 7d c8          	mov    %rdi,-0x38(%rbp)
  4027be:	48 89 75 c0          	mov    %rsi,-0x40(%rbp)
  4027c2:	48 8b 7d c8          	mov    -0x38(%rbp),%rdi
  4027c6:	e8 b1 6b 00 00       	callq  40937c <_D9invariant12_d_invariantFC6ObjectZv>
    {	int[] s = *cast(int[]*)p;
  4027cb:	48 8b 55 c0          	mov    -0x40(%rbp),%rdx
  4027cf:	48 8b 02             	mov    (%rdx),%rax
  4027d2:	48 89 45 d0          	mov    %rax,-0x30(%rbp)
  4027d6:	48 8b 42 08          	mov    0x8(%rdx),%rax
  4027da:	48 89 45 d8          	mov    %rax,-0x28(%rbp)
	auto len = s.length;
  4027de:	48 8b 45 d0          	mov    -0x30(%rbp),%rax
  4027e2:	48 89 45 f8          	mov    %rax,-0x8(%rbp)
	auto str = s.ptr;
  4027e6:	48 8b 45 d8          	mov    -0x28(%rbp),%rax
  4027ea:	48 89 45 f0          	mov    %rax,-0x10(%rbp)
	hash_t hash = 0;
  4027ee:	48 c7 45 e8 00 00 00 	movq   $0x0,-0x18(%rbp)
  4027f5:	00 

	while (len)
  4027f6:	48 83 7d f8 00       	cmpq   $0x0,-0x8(%rbp)
  4027fb:	0f 95 c0             	setne  %al
  4027fe:	83 f0 01             	xor    $0x1,%eax
  402801:	84 c0                	test   %al,%al
  402803:	75 29                	jne    40282e <_D3std8typeinfo7ti_Aint11TypeInfo_Ai7getHashMFPvZm+0x7c>
	{
	    hash *= 9;
  402805:	48 8b 55 e8          	mov    -0x18(%rbp),%rdx
  402809:	48 89 d0             	mov    %rdx,%rax
  40280c:	48 c1 e0 03          	shl    $0x3,%rax
  402810:	48 01 d0             	add    %rdx,%rax
  402813:	48 89 45 e8          	mov    %rax,-0x18(%rbp)
	    hash += *cast(uint *)str;
  402817:	48 8b 45 f0          	mov    -0x10(%rbp),%rax
  40281b:	8b 00                	mov    (%rax),%eax
  40281d:	89 c0                	mov    %eax,%eax
  40281f:	48 01 45 e8          	add    %rax,-0x18(%rbp)
	    str++;
  402823:	48 83 45 f0 04       	addq   $0x4,-0x10(%rbp)
	    len--;
  402828:	48 ff 4d f8          	decq   -0x8(%rbp)
  40282c:	eb c8                	jmp    4027f6 <_D3std8typeinfo7ti_Aint11TypeInfo_Ai7getHashMFPvZm+0x44>
	}

	return hash;
  40282e:	48 8b 45 e8          	mov    -0x18(%rbp),%rax
    }
  402832:	c9                   	leaveq 
  402833:	c3                   	retq   

0000000000402834 <_D3std8typeinfo7ti_Aint11TypeInfo_Ai6equalsMFPvPvZi>:

    int equals(void *p1, void *p2)
  402834:	55                   	push   %rbp
  402835:	48 89 e5             	mov    %rsp,%rbp
  402838:	48 83 ec 40          	sub    $0x40,%rsp
  40283c:	48 89 7d d8          	mov    %rdi,-0x28(%rbp)
  402840:	48 89 75 d0          	mov    %rsi,-0x30(%rbp)
  402844:	48 89 55 c8          	mov    %rdx,-0x38(%rbp)
  402848:	48 8b 7d d8          	mov    -0x28(%rbp),%rdi
  40284c:	e8 2b 6b 00 00       	callq  40937c <_D9invariant12_d_invariantFC6ObjectZv>
    {
	int[] s1 = *cast(int[]*)p1;
  402851:	48 8b 55 d0          	mov    -0x30(%rbp),%rdx
  402855:	48 8b 02             	mov    (%rdx),%rax
  402858:	48 89 45 e0          	mov    %rax,-0x20(%rbp)
  40285c:	48 8b 42 08          	mov    0x8(%rdx),%rax
  402860:	48 89 45 e8          	mov    %rax,-0x18(%rbp)
	int[] s2 = *cast(int[]*)p2;
  402864:	48 8b 55 c8          	mov    -0x38(%rbp),%rdx
  402868:	48 8b 02             	mov    (%rdx),%rax
  40286b:	48 89 45 f0          	mov    %rax,-0x10(%rbp)
  40286f:	48 8b 42 08          	mov    0x8(%rdx),%rax
  402873:	48 89 45 f8          	mov    %rax,-0x8(%rbp)

	return s1.length == s2.length &&
  402877:	48 8b 55 e0          	mov    -0x20(%rbp),%rdx
  40287b:	48 8b 45 f0          	mov    -0x10(%rbp),%rax
  40287f:	48 39 c2             	cmp    %rax,%rdx
  402882:	75 2a                	jne    4028ae <_D3std8typeinfo7ti_Aint11TypeInfo_Ai6equalsMFPvPvZi+0x7a>
  402884:	48 8b 45 e0          	mov    -0x20(%rbp),%rax
  402888:	48 8d 14 85 00 00 00 	lea    0x0(,%rax,4),%rdx
  40288f:	00 
  402890:	48 8b 45 f8          	mov    -0x8(%rbp),%rax
  402894:	48 89 c6             	mov    %rax,%rsi
  402897:	48 8b 45 e8          	mov    -0x18(%rbp),%rax
  40289b:	48 89 c7             	mov    %rax,%rdi
  40289e:	e8 11 b0 00 00       	callq  40d8b4 <_D6kernel4core6system6memcmpFPvPvmZl>
  4028a3:	48 85 c0             	test   %rax,%rax
  4028a6:	75 06                	jne    4028ae <_D3std8typeinfo7ti_Aint11TypeInfo_Ai6equalsMFPvPvZi+0x7a>
  4028a8:	c6 45 c7 01          	movb   $0x1,-0x39(%rbp)
  4028ac:	eb 04                	jmp    4028b2 <_D3std8typeinfo7ti_Aint11TypeInfo_Ai6equalsMFPvPvZi+0x7e>
  4028ae:	c6 45 c7 00          	movb   $0x0,-0x39(%rbp)
  4028b2:	0f b6 45 c7          	movzbl -0x39(%rbp),%eax
	       memcmp(cast(ubyte*)s1.ptr, cast(ubyte*)s2.ptr, s1.length * int.sizeof) == 0;
    }
  4028b6:	c9                   	leaveq 
  4028b7:	c3                   	retq   

00000000004028b8 <_D3std8typeinfo7ti_Aint11TypeInfo_Ai7compareMFPvPvZi>:

    int compare(void *p1, void *p2)
  4028b8:	55                   	push   %rbp
  4028b9:	48 89 e5             	mov    %rsp,%rbp
  4028bc:	48 81 ec b0 00 00 00 	sub    $0xb0,%rsp
  4028c3:	48 89 7d 98          	mov    %rdi,-0x68(%rbp)
  4028c7:	48 89 75 90          	mov    %rsi,-0x70(%rbp)
  4028cb:	48 89 55 88          	mov    %rdx,-0x78(%rbp)
  4028cf:	48 8b 7d 98          	mov    -0x68(%rbp),%rdi
  4028d3:	e8 a4 6a 00 00       	callq  40937c <_D9invariant12_d_invariantFC6ObjectZv>
    {
	int[] s1 = *cast(int[]*)p1;
  4028d8:	48 8b 55 90          	mov    -0x70(%rbp),%rdx
  4028dc:	48 8b 02             	mov    (%rdx),%rax
  4028df:	48 89 45 a0          	mov    %rax,-0x60(%rbp)
  4028e3:	48 8b 42 08          	mov    0x8(%rdx),%rax
  4028e7:	48 89 45 a8          	mov    %rax,-0x58(%rbp)
	int[] s2 = *cast(int[]*)p2;
  4028eb:	48 8b 55 88          	mov    -0x78(%rbp),%rdx
  4028ef:	48 8b 02             	mov    (%rdx),%rax
  4028f2:	48 89 45 b0          	mov    %rax,-0x50(%rbp)
  4028f6:	48 8b 42 08          	mov    0x8(%rdx),%rax
  4028fa:	48 89 45 b8          	mov    %rax,-0x48(%rbp)
	size_t len = s1.length;
  4028fe:	48 8b 45 a0          	mov    -0x60(%rbp),%rax
  402902:	48 89 45 e8          	mov    %rax,-0x18(%rbp)

	if (s2.length < len)
  402906:	48 8b 45 b0          	mov    -0x50(%rbp),%rax
  40290a:	48 3b 45 e8          	cmp    -0x18(%rbp),%rax
  40290e:	73 08                	jae    402918 <_D3std8typeinfo7ti_Aint11TypeInfo_Ai7compareMFPvPvZi+0x60>
	    len = s2.length;
  402910:	48 8b 45 b0          	mov    -0x50(%rbp),%rax
  402914:	48 89 45 e8          	mov    %rax,-0x18(%rbp)
	for (size_t u = 0; u < len; u++)
  402918:	48 c7 45 f0 00 00 00 	movq   $0x0,-0x10(%rbp)
  40291f:	00 
  402920:	48 8b 45 f0          	mov    -0x10(%rbp),%rax
  402924:	48 3b 45 e8          	cmp    -0x18(%rbp),%rax
  402928:	0f 92 c0             	setb   %al
  40292b:	83 f0 01             	xor    $0x1,%eax
  40292e:	84 c0                	test   %al,%al
  402930:	0f 85 da 00 00 00    	jne    402a10 <_D3std8typeinfo7ti_Aint11TypeInfo_Ai7compareMFPvPvZi+0x158>
	{
	    int result = s1[u] - s2[u];
  402936:	48 8b 45 a8          	mov    -0x58(%rbp),%rax
  40293a:	48 89 85 58 ff ff ff 	mov    %rax,-0xa8(%rbp)
  402941:	48 8b 45 a0          	mov    -0x60(%rbp),%rax
  402945:	48 39 45 f0          	cmp    %rax,-0x10(%rbp)
  402949:	73 0d                	jae    402958 <_D3std8typeinfo7ti_Aint11TypeInfo_Ai7compareMFPvPvZi+0xa0>
  40294b:	48 8b 55 f0          	mov    -0x10(%rbp),%rdx
  40294f:	48 89 95 60 ff ff ff 	mov    %rdx,-0xa0(%rbp)
  402956:	eb 22                	jmp    40297a <_D3std8typeinfo7ti_Aint11TypeInfo_Ai7compareMFPvPvZi+0xc2>
  402958:	48 c7 45 c0 16 00 00 	movq   $0x16,-0x40(%rbp)
  40295f:	00 
  402960:	48 c7 45 c8 a6 ff 40 	movq   $0x40ffa6,-0x38(%rbp)
  402967:	00 
  402968:	48 8b 7d c0          	mov    -0x40(%rbp),%rdi
  40296c:	48 8b 75 c8          	mov    -0x38(%rbp),%rsi
  402970:	ba 30 00 00 00       	mov    $0x30,%edx
  402975:	e8 cb 84 00 00       	callq  40ae45 <_d_array_bounds>
  40297a:	48 8b 85 60 ff ff ff 	mov    -0xa0(%rbp),%rax
  402981:	48 c1 e0 02          	shl    $0x2,%rax
  402985:	48 03 85 58 ff ff ff 	add    -0xa8(%rbp),%rax
  40298c:	8b 00                	mov    (%rax),%eax
  40298e:	89 85 6c ff ff ff    	mov    %eax,-0x94(%rbp)
  402994:	48 8b 45 b8          	mov    -0x48(%rbp),%rax
  402998:	48 89 85 70 ff ff ff 	mov    %rax,-0x90(%rbp)
  40299f:	48 8b 45 b0          	mov    -0x50(%rbp),%rax
  4029a3:	48 39 45 f0          	cmp    %rax,-0x10(%rbp)
  4029a7:	73 0d                	jae    4029b6 <_D3std8typeinfo7ti_Aint11TypeInfo_Ai7compareMFPvPvZi+0xfe>
  4029a9:	48 8b 55 f0          	mov    -0x10(%rbp),%rdx
  4029ad:	48 89 95 78 ff ff ff 	mov    %rdx,-0x88(%rbp)
  4029b4:	eb 22                	jmp    4029d8 <_D3std8typeinfo7ti_Aint11TypeInfo_Ai7compareMFPvPvZi+0x120>
  4029b6:	48 c7 45 d0 16 00 00 	movq   $0x16,-0x30(%rbp)
  4029bd:	00 
  4029be:	48 c7 45 d8 a6 ff 40 	movq   $0x40ffa6,-0x28(%rbp)
  4029c5:	00 
  4029c6:	48 8b 7d d0          	mov    -0x30(%rbp),%rdi
  4029ca:	48 8b 75 d8          	mov    -0x28(%rbp),%rsi
  4029ce:	ba 30 00 00 00       	mov    $0x30,%edx
  4029d3:	e8 6d 84 00 00       	callq  40ae45 <_d_array_bounds>
  4029d8:	48 8b 85 78 ff ff ff 	mov    -0x88(%rbp),%rax
  4029df:	48 c1 e0 02          	shl    $0x2,%rax
  4029e3:	48 03 85 70 ff ff ff 	add    -0x90(%rbp),%rax
  4029ea:	8b 00                	mov    (%rax),%eax
  4029ec:	8b 95 6c ff ff ff    	mov    -0x94(%rbp),%edx
  4029f2:	29 c2                	sub    %eax,%edx
  4029f4:	89 d0                	mov    %edx,%eax
  4029f6:	89 45 fc             	mov    %eax,-0x4(%rbp)
	    if (result)
  4029f9:	83 7d fc 00          	cmpl   $0x0,-0x4(%rbp)
  4029fd:	74 08                	je     402a07 <_D3std8typeinfo7ti_Aint11TypeInfo_Ai7compareMFPvPvZi+0x14f>
		return result;
  4029ff:	8b 45 fc             	mov    -0x4(%rbp),%eax
  402a02:	89 45 84             	mov    %eax,-0x7c(%rbp)
  402a05:	eb 3c                	jmp    402a43 <_D3std8typeinfo7ti_Aint11TypeInfo_Ai7compareMFPvPvZi+0x18b>
	if (s2.length < len)
	    len = s2.length;
	for (size_t u = 0; u < len; u++)
	{
	    int result = s1[u] - s2[u];
	    if (result)
  402a07:	48 ff 45 f0          	incq   -0x10(%rbp)
  402a0b:	e9 10 ff ff ff       	jmpq   402920 <_D3std8typeinfo7ti_Aint11TypeInfo_Ai7compareMFPvPvZi+0x68>
		return result;
	}
	if (s1.length < s2.length)
  402a10:	48 8b 55 a0          	mov    -0x60(%rbp),%rdx
  402a14:	48 8b 45 b0          	mov    -0x50(%rbp),%rax
  402a18:	48 39 c2             	cmp    %rax,%rdx
  402a1b:	73 09                	jae    402a26 <_D3std8typeinfo7ti_Aint11TypeInfo_Ai7compareMFPvPvZi+0x16e>
	    return -1;
  402a1d:	c7 45 84 ff ff ff ff 	movl   $0xffffffff,-0x7c(%rbp)
  402a24:	eb 1d                	jmp    402a43 <_D3std8typeinfo7ti_Aint11TypeInfo_Ai7compareMFPvPvZi+0x18b>
	else if (s1.length > s2.length)
  402a26:	48 8b 55 a0          	mov    -0x60(%rbp),%rdx
  402a2a:	48 8b 45 b0          	mov    -0x50(%rbp),%rax
  402a2e:	48 39 c2             	cmp    %rax,%rdx
  402a31:	76 09                	jbe    402a3c <_D3std8typeinfo7ti_Aint11TypeInfo_Ai7compareMFPvPvZi+0x184>
	    return 1;
  402a33:	c7 45 84 01 00 00 00 	movl   $0x1,-0x7c(%rbp)
  402a3a:	eb 07                	jmp    402a43 <_D3std8typeinfo7ti_Aint11TypeInfo_Ai7compareMFPvPvZi+0x18b>
	return 0;
  402a3c:	c7 45 84 00 00 00 00 	movl   $0x0,-0x7c(%rbp)
  402a43:	8b 45 84             	mov    -0x7c(%rbp),%eax
    }
  402a46:	c9                   	leaveq 
  402a47:	c3                   	retq   

0000000000402a48 <_D3std8typeinfo7ti_Aint11TypeInfo_Ai5tsizeMFZm>:

    size_t tsize()
  402a48:	55                   	push   %rbp
  402a49:	48 89 e5             	mov    %rsp,%rbp
  402a4c:	48 83 ec 10          	sub    $0x10,%rsp
  402a50:	48 89 7d f8          	mov    %rdi,-0x8(%rbp)
  402a54:	48 8b 7d f8          	mov    -0x8(%rbp),%rdi
  402a58:	e8 1f 69 00 00       	callq  40937c <_D9invariant12_d_invariantFC6ObjectZv>
    {
	return (int[]).sizeof;
  402a5d:	b8 10 00 00 00       	mov    $0x10,%eax
    }
  402a62:	c9                   	leaveq 
  402a63:	c3                   	retq   

0000000000402a64 <_D3std8typeinfo7ti_Aint11TypeInfo_Ai5flagsMFZk>:

    uint flags()
  402a64:	55                   	push   %rbp
  402a65:	48 89 e5             	mov    %rsp,%rbp
  402a68:	48 83 ec 10          	sub    $0x10,%rsp
  402a6c:	48 89 7d f8          	mov    %rdi,-0x8(%rbp)
  402a70:	48 8b 7d f8          	mov    -0x8(%rbp),%rdi
  402a74:	e8 03 69 00 00       	callq  40937c <_D9invariant12_d_invariantFC6ObjectZv>
    {
	return 1;
  402a79:	b8 01 00 00 00       	mov    $0x1,%eax
    }
  402a7e:	c9                   	leaveq 
  402a7f:	c3                   	retq   

0000000000402a80 <_D3std8typeinfo7ti_Aint11TypeInfo_Ai4nextMFZC8TypeInfo>:

    TypeInfo next()
  402a80:	55                   	push   %rbp
  402a81:	48 89 e5             	mov    %rsp,%rbp
  402a84:	48 83 ec 10          	sub    $0x10,%rsp
  402a88:	48 89 7d f8          	mov    %rdi,-0x8(%rbp)
  402a8c:	48 8b 7d f8          	mov    -0x8(%rbp),%rdi
  402a90:	e8 e7 68 00 00       	callq  40937c <_D9invariant12_d_invariantFC6ObjectZv>
    {
	return typeid(int);
  402a95:	48 c7 c0 50 0f 41 00 	mov    $0x410f50,%rax
    }
  402a9c:	c9                   	leaveq 
  402a9d:	c3                   	retq   

0000000000402a9e <_D3std8typeinfo7ti_Aint11TypeInfo_Ak8toStringMFZAa>:

// uint[]

class TypeInfo_Ak : TypeInfo_Ai
{
    char[] toString() { return "uint[]"; }
  402a9e:	55                   	push   %rbp
  402a9f:	48 89 e5             	mov    %rsp,%rbp
  402aa2:	53                   	push   %rbx
  402aa3:	48 83 ec 08          	sub    $0x8,%rsp
  402aa7:	48 89 fb             	mov    %rdi,%rbx
  402aaa:	48 89 75 f0          	mov    %rsi,-0x10(%rbp)
  402aae:	48 8b 7d f0          	mov    -0x10(%rbp),%rdi
  402ab2:	e8 c5 68 00 00       	callq  40937c <_D9invariant12_d_invariantFC6ObjectZv>
  402ab7:	48 c7 03 06 00 00 00 	movq   $0x6,(%rbx)
  402abe:	48 c7 43 08 50 00 41 	movq   $0x410050,0x8(%rbx)
  402ac5:	00 
  402ac6:	48 89 d8             	mov    %rbx,%rax
  402ac9:	48 83 c4 08          	add    $0x8,%rsp
  402acd:	5b                   	pop    %rbx
  402ace:	c9                   	leaveq 
  402acf:	c3                   	retq   

0000000000402ad0 <_D3std8typeinfo7ti_Aint11TypeInfo_Ak7compareMFPvPvZi>:

    int compare(void *p1, void *p2)
  402ad0:	55                   	push   %rbp
  402ad1:	48 89 e5             	mov    %rsp,%rbp
  402ad4:	48 81 ec b0 00 00 00 	sub    $0xb0,%rsp
  402adb:	48 89 7d 98          	mov    %rdi,-0x68(%rbp)
  402adf:	48 89 75 90          	mov    %rsi,-0x70(%rbp)
  402ae3:	48 89 55 88          	mov    %rdx,-0x78(%rbp)
  402ae7:	48 8b 7d 98          	mov    -0x68(%rbp),%rdi
  402aeb:	e8 8c 68 00 00       	callq  40937c <_D9invariant12_d_invariantFC6ObjectZv>
    {
	uint[] s1 = *cast(uint[]*)p1;
  402af0:	48 8b 55 90          	mov    -0x70(%rbp),%rdx
  402af4:	48 8b 02             	mov    (%rdx),%rax
  402af7:	48 89 45 a0          	mov    %rax,-0x60(%rbp)
  402afb:	48 8b 42 08          	mov    0x8(%rdx),%rax
  402aff:	48 89 45 a8          	mov    %rax,-0x58(%rbp)
	uint[] s2 = *cast(uint[]*)p2;
  402b03:	48 8b 55 88          	mov    -0x78(%rbp),%rdx
  402b07:	48 8b 02             	mov    (%rdx),%rax
  402b0a:	48 89 45 b0          	mov    %rax,-0x50(%rbp)
  402b0e:	48 8b 42 08          	mov    0x8(%rdx),%rax
  402b12:	48 89 45 b8          	mov    %rax,-0x48(%rbp)
	size_t len = s1.length;
  402b16:	48 8b 45 a0          	mov    -0x60(%rbp),%rax
  402b1a:	48 89 45 e8          	mov    %rax,-0x18(%rbp)

	if (s2.length < len)
  402b1e:	48 8b 45 b0          	mov    -0x50(%rbp),%rax
  402b22:	48 3b 45 e8          	cmp    -0x18(%rbp),%rax
  402b26:	73 08                	jae    402b30 <_D3std8typeinfo7ti_Aint11TypeInfo_Ak7compareMFPvPvZi+0x60>
	    len = s2.length;
  402b28:	48 8b 45 b0          	mov    -0x50(%rbp),%rax
  402b2c:	48 89 45 e8          	mov    %rax,-0x18(%rbp)
	for (size_t u = 0; u < len; u++)
  402b30:	48 c7 45 f0 00 00 00 	movq   $0x0,-0x10(%rbp)
  402b37:	00 
  402b38:	48 8b 45 f0          	mov    -0x10(%rbp),%rax
  402b3c:	48 3b 45 e8          	cmp    -0x18(%rbp),%rax
  402b40:	0f 92 c0             	setb   %al
  402b43:	83 f0 01             	xor    $0x1,%eax
  402b46:	84 c0                	test   %al,%al
  402b48:	0f 85 da 00 00 00    	jne    402c28 <_D3std8typeinfo7ti_Aint11TypeInfo_Ak7compareMFPvPvZi+0x158>
	{
	    int result = s1[u] - s2[u];
  402b4e:	48 8b 45 a8          	mov    -0x58(%rbp),%rax
  402b52:	48 89 85 58 ff ff ff 	mov    %rax,-0xa8(%rbp)
  402b59:	48 8b 45 a0          	mov    -0x60(%rbp),%rax
  402b5d:	48 39 45 f0          	cmp    %rax,-0x10(%rbp)
  402b61:	73 0d                	jae    402b70 <_D3std8typeinfo7ti_Aint11TypeInfo_Ak7compareMFPvPvZi+0xa0>
  402b63:	48 8b 55 f0          	mov    -0x10(%rbp),%rdx
  402b67:	48 89 95 60 ff ff ff 	mov    %rdx,-0xa0(%rbp)
  402b6e:	eb 22                	jmp    402b92 <_D3std8typeinfo7ti_Aint11TypeInfo_Ak7compareMFPvPvZi+0xc2>
  402b70:	48 c7 45 c0 16 00 00 	movq   $0x16,-0x40(%rbp)
  402b77:	00 
  402b78:	48 c7 45 c8 a6 ff 40 	movq   $0x40ffa6,-0x38(%rbp)
  402b7f:	00 
  402b80:	48 8b 7d c0          	mov    -0x40(%rbp),%rdi
  402b84:	48 8b 75 c8          	mov    -0x38(%rbp),%rsi
  402b88:	ba 5b 00 00 00       	mov    $0x5b,%edx
  402b8d:	e8 b3 82 00 00       	callq  40ae45 <_d_array_bounds>
  402b92:	48 8b 85 60 ff ff ff 	mov    -0xa0(%rbp),%rax
  402b99:	48 c1 e0 02          	shl    $0x2,%rax
  402b9d:	48 03 85 58 ff ff ff 	add    -0xa8(%rbp),%rax
  402ba4:	8b 00                	mov    (%rax),%eax
  402ba6:	89 85 6c ff ff ff    	mov    %eax,-0x94(%rbp)
  402bac:	48 8b 45 b8          	mov    -0x48(%rbp),%rax
  402bb0:	48 89 85 70 ff ff ff 	mov    %rax,-0x90(%rbp)
  402bb7:	48 8b 45 b0          	mov    -0x50(%rbp),%rax
  402bbb:	48 39 45 f0          	cmp    %rax,-0x10(%rbp)
  402bbf:	73 0d                	jae    402bce <_D3std8typeinfo7ti_Aint11TypeInfo_Ak7compareMFPvPvZi+0xfe>
  402bc1:	48 8b 55 f0          	mov    -0x10(%rbp),%rdx
  402bc5:	48 89 95 78 ff ff ff 	mov    %rdx,-0x88(%rbp)
  402bcc:	eb 22                	jmp    402bf0 <_D3std8typeinfo7ti_Aint11TypeInfo_Ak7compareMFPvPvZi+0x120>
  402bce:	48 c7 45 d0 16 00 00 	movq   $0x16,-0x30(%rbp)
  402bd5:	00 
  402bd6:	48 c7 45 d8 a6 ff 40 	movq   $0x40ffa6,-0x28(%rbp)
  402bdd:	00 
  402bde:	48 8b 7d d0          	mov    -0x30(%rbp),%rdi
  402be2:	48 8b 75 d8          	mov    -0x28(%rbp),%rsi
  402be6:	ba 5b 00 00 00       	mov    $0x5b,%edx
  402beb:	e8 55 82 00 00       	callq  40ae45 <_d_array_bounds>
  402bf0:	48 8b 85 78 ff ff ff 	mov    -0x88(%rbp),%rax
  402bf7:	48 c1 e0 02          	shl    $0x2,%rax
  402bfb:	48 03 85 70 ff ff ff 	add    -0x90(%rbp),%rax
  402c02:	8b 00                	mov    (%rax),%eax
  402c04:	8b 95 6c ff ff ff    	mov    -0x94(%rbp),%edx
  402c0a:	29 c2                	sub    %eax,%edx
  402c0c:	89 d0                	mov    %edx,%eax
  402c0e:	89 45 fc             	mov    %eax,-0x4(%rbp)
	    if (result)
  402c11:	83 7d fc 00          	cmpl   $0x0,-0x4(%rbp)
  402c15:	74 08                	je     402c1f <_D3std8typeinfo7ti_Aint11TypeInfo_Ak7compareMFPvPvZi+0x14f>
		return result;
  402c17:	8b 45 fc             	mov    -0x4(%rbp),%eax
  402c1a:	89 45 84             	mov    %eax,-0x7c(%rbp)
  402c1d:	eb 3c                	jmp    402c5b <_D3std8typeinfo7ti_Aint11TypeInfo_Ak7compareMFPvPvZi+0x18b>
	if (s2.length < len)
	    len = s2.length;
	for (size_t u = 0; u < len; u++)
	{
	    int result = s1[u] - s2[u];
	    if (result)
  402c1f:	48 ff 45 f0          	incq   -0x10(%rbp)
  402c23:	e9 10 ff ff ff       	jmpq   402b38 <_D3std8typeinfo7ti_Aint11TypeInfo_Ak7compareMFPvPvZi+0x68>
		return result;
	}
	if (s1.length < s2.length)
  402c28:	48 8b 55 a0          	mov    -0x60(%rbp),%rdx
  402c2c:	48 8b 45 b0          	mov    -0x50(%rbp),%rax
  402c30:	48 39 c2             	cmp    %rax,%rdx
  402c33:	73 09                	jae    402c3e <_D3std8typeinfo7ti_Aint11TypeInfo_Ak7compareMFPvPvZi+0x16e>
	    return -1;
  402c35:	c7 45 84 ff ff ff ff 	movl   $0xffffffff,-0x7c(%rbp)
  402c3c:	eb 1d                	jmp    402c5b <_D3std8typeinfo7ti_Aint11TypeInfo_Ak7compareMFPvPvZi+0x18b>
	else if (s1.length > s2.length)
  402c3e:	48 8b 55 a0          	mov    -0x60(%rbp),%rdx
  402c42:	48 8b 45 b0          	mov    -0x50(%rbp),%rax
  402c46:	48 39 c2             	cmp    %rax,%rdx
  402c49:	76 09                	jbe    402c54 <_D3std8typeinfo7ti_Aint11TypeInfo_Ak7compareMFPvPvZi+0x184>
	    return 1;
  402c4b:	c7 45 84 01 00 00 00 	movl   $0x1,-0x7c(%rbp)
  402c52:	eb 07                	jmp    402c5b <_D3std8typeinfo7ti_Aint11TypeInfo_Ak7compareMFPvPvZi+0x18b>
	return 0;
  402c54:	c7 45 84 00 00 00 00 	movl   $0x0,-0x7c(%rbp)
  402c5b:	8b 45 84             	mov    -0x7c(%rbp),%eax
    }
  402c5e:	c9                   	leaveq 
  402c5f:	c3                   	retq   

0000000000402c60 <_D3std8typeinfo7ti_Aint11TypeInfo_Ak4nextMFZC8TypeInfo>:

    TypeInfo next()
  402c60:	55                   	push   %rbp
  402c61:	48 89 e5             	mov    %rsp,%rbp
  402c64:	48 83 ec 10          	sub    $0x10,%rsp
  402c68:	48 89 7d f8          	mov    %rdi,-0x8(%rbp)
  402c6c:	48 8b 7d f8          	mov    -0x8(%rbp),%rdi
  402c70:	e8 07 67 00 00       	callq  40937c <_D9invariant12_d_invariantFC6ObjectZv>
    {
	return typeid(uint);
  402c75:	48 c7 c0 10 15 41 00 	mov    $0x411510,%rax
    }
  402c7c:	c9                   	leaveq 
  402c7d:	c3                   	retq   

0000000000402c7e <_D3std8typeinfo7ti_Aint11TypeInfo_Aw8toStringMFZAa>:

// dchar[]

class TypeInfo_Aw : TypeInfo_Ak
{
    char[] toString() { return "dchar[]"; }
  402c7e:	55                   	push   %rbp
  402c7f:	48 89 e5             	mov    %rsp,%rbp
  402c82:	53                   	push   %rbx
  402c83:	48 83 ec 08          	sub    $0x8,%rsp
  402c87:	48 89 fb             	mov    %rdi,%rbx
  402c8a:	48 89 75 f0          	mov    %rsi,-0x10(%rbp)
  402c8e:	48 8b 7d f0          	mov    -0x10(%rbp),%rdi
  402c92:	e8 e5 66 00 00       	callq  40937c <_D9invariant12_d_invariantFC6ObjectZv>
  402c97:	48 c7 03 07 00 00 00 	movq   $0x7,(%rbx)
  402c9e:	48 c7 43 08 f0 00 41 	movq   $0x4100f0,0x8(%rbx)
  402ca5:	00 
  402ca6:	48 89 d8             	mov    %rbx,%rax
  402ca9:	48 83 c4 08          	add    $0x8,%rsp
  402cad:	5b                   	pop    %rbx
  402cae:	c9                   	leaveq 
  402caf:	c3                   	retq   

0000000000402cb0 <_D3std8typeinfo7ti_Aint11TypeInfo_Aw4nextMFZC8TypeInfo>:

    TypeInfo next()
  402cb0:	55                   	push   %rbp
  402cb1:	48 89 e5             	mov    %rsp,%rbp
  402cb4:	48 83 ec 10          	sub    $0x10,%rsp
  402cb8:	48 89 7d f8          	mov    %rdi,-0x8(%rbp)
  402cbc:	48 8b 7d f8          	mov    -0x8(%rbp),%rdi
  402cc0:	e8 b7 66 00 00       	callq  40937c <_D9invariant12_d_invariantFC6ObjectZv>
    {
	return typeid(dchar);
  402cc5:	48 c7 c0 f0 0a 41 00 	mov    $0x410af0,%rax
    }
  402ccc:	c9                   	leaveq 
  402ccd:	c3                   	retq   
  402cce:	90                   	nop    
  402ccf:	90                   	nop    

0000000000402cd0 <_D3std8typeinfo8ti_Along11TypeInfo_Al8toStringMFZAa>:

// long[]

class TypeInfo_Al : TypeInfo
{
    char[] toString() { return "long[]"; }
  402cd0:	55                   	push   %rbp
  402cd1:	48 89 e5             	mov    %rsp,%rbp
  402cd4:	53                   	push   %rbx
  402cd5:	48 83 ec 08          	sub    $0x8,%rsp
  402cd9:	48 89 fb             	mov    %rdi,%rbx
  402cdc:	48 89 75 f0          	mov    %rsi,-0x10(%rbp)
  402ce0:	48 8b 7d f0          	mov    -0x10(%rbp),%rdi
  402ce4:	e8 93 66 00 00       	callq  40937c <_D9invariant12_d_invariantFC6ObjectZv>
  402ce9:	48 c7 03 06 00 00 00 	movq   $0x6,(%rbx)
  402cf0:	48 c7 43 08 a0 01 41 	movq   $0x4101a0,0x8(%rbx)
  402cf7:	00 
  402cf8:	48 89 d8             	mov    %rbx,%rax
  402cfb:	48 83 c4 08          	add    $0x8,%rsp
  402cff:	5b                   	pop    %rbx
  402d00:	c9                   	leaveq 
  402d01:	c3                   	retq   

0000000000402d02 <_D3std8typeinfo8ti_Along11TypeInfo_Al7getHashMFPvZm>:

    hash_t getHash(void *p)
  402d02:	55                   	push   %rbp
  402d03:	48 89 e5             	mov    %rsp,%rbp
  402d06:	48 83 ec 40          	sub    $0x40,%rsp
  402d0a:	48 89 7d c8          	mov    %rdi,-0x38(%rbp)
  402d0e:	48 89 75 c0          	mov    %rsi,-0x40(%rbp)
  402d12:	48 8b 7d c8          	mov    -0x38(%rbp),%rdi
  402d16:	e8 61 66 00 00       	callq  40937c <_D9invariant12_d_invariantFC6ObjectZv>
    {	long[] s = *cast(long[]*)p;
  402d1b:	48 8b 55 c0          	mov    -0x40(%rbp),%rdx
  402d1f:	48 8b 02             	mov    (%rdx),%rax
  402d22:	48 89 45 d0          	mov    %rax,-0x30(%rbp)
  402d26:	48 8b 42 08          	mov    0x8(%rdx),%rax
  402d2a:	48 89 45 d8          	mov    %rax,-0x28(%rbp)
	size_t len = s.length;
  402d2e:	48 8b 45 d0          	mov    -0x30(%rbp),%rax
  402d32:	48 89 45 f8          	mov    %rax,-0x8(%rbp)
	auto str = s.ptr;
  402d36:	48 8b 45 d8          	mov    -0x28(%rbp),%rax
  402d3a:	48 89 45 f0          	mov    %rax,-0x10(%rbp)
	hash_t hash = 0;
  402d3e:	48 c7 45 e8 00 00 00 	movq   $0x0,-0x18(%rbp)
  402d45:	00 

	while (len)
  402d46:	48 83 7d f8 00       	cmpq   $0x0,-0x8(%rbp)
  402d4b:	0f 95 c0             	setne  %al
  402d4e:	83 f0 01             	xor    $0x1,%eax
  402d51:	84 c0                	test   %al,%al
  402d53:	75 36                	jne    402d8b <_D3std8typeinfo8ti_Along11TypeInfo_Al7getHashMFPvZm+0x89>
	{
	    hash *= 9;
  402d55:	48 8b 55 e8          	mov    -0x18(%rbp),%rdx
  402d59:	48 89 d0             	mov    %rdx,%rax
  402d5c:	48 c1 e0 03          	shl    $0x3,%rax
  402d60:	48 01 d0             	add    %rdx,%rax
  402d63:	48 89 45 e8          	mov    %rax,-0x18(%rbp)
	    hash += *cast(uint *)str + *(cast(uint *)str + 1);
  402d67:	48 8b 45 f0          	mov    -0x10(%rbp),%rax
  402d6b:	8b 10                	mov    (%rax),%edx
  402d6d:	48 8b 45 f0          	mov    -0x10(%rbp),%rax
  402d71:	48 83 c0 04          	add    $0x4,%rax
  402d75:	8b 00                	mov    (%rax),%eax
  402d77:	8d 04 02             	lea    (%rdx,%rax,1),%eax
  402d7a:	89 c0                	mov    %eax,%eax
  402d7c:	48 01 45 e8          	add    %rax,-0x18(%rbp)
	    str++;
  402d80:	48 83 45 f0 08       	addq   $0x8,-0x10(%rbp)
	    len--;
  402d85:	48 ff 4d f8          	decq   -0x8(%rbp)
  402d89:	eb bb                	jmp    402d46 <_D3std8typeinfo8ti_Along11TypeInfo_Al7getHashMFPvZm+0x44>
	}

	return hash;
  402d8b:	48 8b 45 e8          	mov    -0x18(%rbp),%rax
    }
  402d8f:	c9                   	leaveq 
  402d90:	c3                   	retq   

0000000000402d91 <_D3std8typeinfo8ti_Along11TypeInfo_Al6equalsMFPvPvZi>:

    int equals(void *p1, void *p2)
  402d91:	55                   	push   %rbp
  402d92:	48 89 e5             	mov    %rsp,%rbp
  402d95:	48 83 ec 40          	sub    $0x40,%rsp
  402d99:	48 89 7d d8          	mov    %rdi,-0x28(%rbp)
  402d9d:	48 89 75 d0          	mov    %rsi,-0x30(%rbp)
  402da1:	48 89 55 c8          	mov    %rdx,-0x38(%rbp)
  402da5:	48 8b 7d d8          	mov    -0x28(%rbp),%rdi
  402da9:	e8 ce 65 00 00       	callq  40937c <_D9invariant12_d_invariantFC6ObjectZv>
    {
	long[] s1 = *cast(long[]*)p1;
  402dae:	48 8b 55 d0          	mov    -0x30(%rbp),%rdx
  402db2:	48 8b 02             	mov    (%rdx),%rax
  402db5:	48 89 45 e0          	mov    %rax,-0x20(%rbp)
  402db9:	48 8b 42 08          	mov    0x8(%rdx),%rax
  402dbd:	48 89 45 e8          	mov    %rax,-0x18(%rbp)
	long[] s2 = *cast(long[]*)p2;
  402dc1:	48 8b 55 c8          	mov    -0x38(%rbp),%rdx
  402dc5:	48 8b 02             	mov    (%rdx),%rax
  402dc8:	48 89 45 f0          	mov    %rax,-0x10(%rbp)
  402dcc:	48 8b 42 08          	mov    0x8(%rdx),%rax
  402dd0:	48 89 45 f8          	mov    %rax,-0x8(%rbp)

	return s1.length == s2.length &&
  402dd4:	48 8b 55 e0          	mov    -0x20(%rbp),%rdx
  402dd8:	48 8b 45 f0          	mov    -0x10(%rbp),%rax
  402ddc:	48 39 c2             	cmp    %rax,%rdx
  402ddf:	75 2a                	jne    402e0b <_D3std8typeinfo8ti_Along11TypeInfo_Al6equalsMFPvPvZi+0x7a>
  402de1:	48 8b 45 e0          	mov    -0x20(%rbp),%rax
  402de5:	48 8d 14 c5 00 00 00 	lea    0x0(,%rax,8),%rdx
  402dec:	00 
  402ded:	48 8b 45 f8          	mov    -0x8(%rbp),%rax
  402df1:	48 89 c6             	mov    %rax,%rsi
  402df4:	48 8b 45 e8          	mov    -0x18(%rbp),%rax
  402df8:	48 89 c7             	mov    %rax,%rdi
  402dfb:	e8 b4 aa 00 00       	callq  40d8b4 <_D6kernel4core6system6memcmpFPvPvmZl>
  402e00:	48 85 c0             	test   %rax,%rax
  402e03:	75 06                	jne    402e0b <_D3std8typeinfo8ti_Along11TypeInfo_Al6equalsMFPvPvZi+0x7a>
  402e05:	c6 45 c7 01          	movb   $0x1,-0x39(%rbp)
  402e09:	eb 04                	jmp    402e0f <_D3std8typeinfo8ti_Along11TypeInfo_Al6equalsMFPvPvZi+0x7e>
  402e0b:	c6 45 c7 00          	movb   $0x0,-0x39(%rbp)
  402e0f:	0f b6 45 c7          	movzbl -0x39(%rbp),%eax
	       memcmp(cast(ubyte*)s1.ptr, cast(ubyte*)s2.ptr, s1.length * long.sizeof) == 0;
    }
  402e13:	c9                   	leaveq 
  402e14:	c3                   	retq   

0000000000402e15 <_D3std8typeinfo8ti_Along11TypeInfo_Al7compareMFPvPvZi>:

    int compare(void *p1, void *p2)
  402e15:	55                   	push   %rbp
  402e16:	48 89 e5             	mov    %rsp,%rbp
  402e19:	48 81 ec e0 00 00 00 	sub    $0xe0,%rsp
  402e20:	48 89 7d 88          	mov    %rdi,-0x78(%rbp)
  402e24:	48 89 75 80          	mov    %rsi,-0x80(%rbp)
  402e28:	48 89 95 78 ff ff ff 	mov    %rdx,-0x88(%rbp)
  402e2f:	48 8b 7d 88          	mov    -0x78(%rbp),%rdi
  402e33:	e8 44 65 00 00       	callq  40937c <_D9invariant12_d_invariantFC6ObjectZv>
    {
	long[] s1 = *cast(long[]*)p1;
  402e38:	48 8b 55 80          	mov    -0x80(%rbp),%rdx
  402e3c:	48 8b 02             	mov    (%rdx),%rax
  402e3f:	48 89 45 90          	mov    %rax,-0x70(%rbp)
  402e43:	48 8b 42 08          	mov    0x8(%rdx),%rax
  402e47:	48 89 45 98          	mov    %rax,-0x68(%rbp)
	long[] s2 = *cast(long[]*)p2;
  402e4b:	48 8b 95 78 ff ff ff 	mov    -0x88(%rbp),%rdx
  402e52:	48 8b 02             	mov    (%rdx),%rax
  402e55:	48 89 45 a0          	mov    %rax,-0x60(%rbp)
  402e59:	48 8b 42 08          	mov    0x8(%rdx),%rax
  402e5d:	48 89 45 a8          	mov    %rax,-0x58(%rbp)
	size_t len = s1.length;
  402e61:	48 8b 45 90          	mov    -0x70(%rbp),%rax
  402e65:	48 89 45 f0          	mov    %rax,-0x10(%rbp)

	if (s2.length < len)
  402e69:	48 8b 45 a0          	mov    -0x60(%rbp),%rax
  402e6d:	48 3b 45 f0          	cmp    -0x10(%rbp),%rax
  402e71:	73 08                	jae    402e7b <_D3std8typeinfo8ti_Along11TypeInfo_Al7compareMFPvPvZi+0x66>
	    len = s2.length;
  402e73:	48 8b 45 a0          	mov    -0x60(%rbp),%rax
  402e77:	48 89 45 f0          	mov    %rax,-0x10(%rbp)
	for (size_t u = 0; u < len; u++)
  402e7b:	48 c7 45 f8 00 00 00 	movq   $0x0,-0x8(%rbp)
  402e82:	00 
  402e83:	48 8b 45 f8          	mov    -0x8(%rbp),%rax
  402e87:	48 3b 45 f0          	cmp    -0x10(%rbp),%rax
  402e8b:	0f 92 c0             	setb   %al
  402e8e:	83 f0 01             	xor    $0x1,%eax
  402e91:	84 c0                	test   %al,%al
  402e93:	0f 85 a8 01 00 00    	jne    403041 <_D3std8typeinfo8ti_Along11TypeInfo_Al7compareMFPvPvZi+0x22c>
	{
	    if (s1[u] < s2[u])
  402e99:	48 8b 45 98          	mov    -0x68(%rbp),%rax
  402e9d:	48 89 85 20 ff ff ff 	mov    %rax,-0xe0(%rbp)
  402ea4:	48 8b 45 90          	mov    -0x70(%rbp),%rax
  402ea8:	48 39 45 f8          	cmp    %rax,-0x8(%rbp)
  402eac:	73 0d                	jae    402ebb <_D3std8typeinfo8ti_Along11TypeInfo_Al7compareMFPvPvZi+0xa6>
  402eae:	48 8b 45 f8          	mov    -0x8(%rbp),%rax
  402eb2:	48 89 85 28 ff ff ff 	mov    %rax,-0xd8(%rbp)
  402eb9:	eb 22                	jmp    402edd <_D3std8typeinfo8ti_Along11TypeInfo_Al7compareMFPvPvZi+0xc8>
  402ebb:	48 c7 45 b0 17 00 00 	movq   $0x17,-0x50(%rbp)
  402ec2:	00 
  402ec3:	48 c7 45 b8 a7 01 41 	movq   $0x4101a7,-0x48(%rbp)
  402eca:	00 
  402ecb:	48 8b 7d b0          	mov    -0x50(%rbp),%rdi
  402ecf:	48 8b 75 b8          	mov    -0x48(%rbp),%rsi
  402ed3:	ba 30 00 00 00       	mov    $0x30,%edx
  402ed8:	e8 68 7f 00 00       	callq  40ae45 <_d_array_bounds>
  402edd:	48 8b 85 28 ff ff ff 	mov    -0xd8(%rbp),%rax
  402ee4:	48 c1 e0 03          	shl    $0x3,%rax
  402ee8:	48 03 85 20 ff ff ff 	add    -0xe0(%rbp),%rax
  402eef:	48 8b 00             	mov    (%rax),%rax
  402ef2:	48 89 85 30 ff ff ff 	mov    %rax,-0xd0(%rbp)
  402ef9:	48 8b 45 a8          	mov    -0x58(%rbp),%rax
  402efd:	48 89 85 38 ff ff ff 	mov    %rax,-0xc8(%rbp)
  402f04:	48 8b 45 a0          	mov    -0x60(%rbp),%rax
  402f08:	48 39 45 f8          	cmp    %rax,-0x8(%rbp)
  402f0c:	73 0d                	jae    402f1b <_D3std8typeinfo8ti_Along11TypeInfo_Al7compareMFPvPvZi+0x106>
  402f0e:	48 8b 45 f8          	mov    -0x8(%rbp),%rax
  402f12:	48 89 85 40 ff ff ff 	mov    %rax,-0xc0(%rbp)
  402f19:	eb 22                	jmp    402f3d <_D3std8typeinfo8ti_Along11TypeInfo_Al7compareMFPvPvZi+0x128>
  402f1b:	48 c7 45 c0 17 00 00 	movq   $0x17,-0x40(%rbp)
  402f22:	00 
  402f23:	48 c7 45 c8 a7 01 41 	movq   $0x4101a7,-0x38(%rbp)
  402f2a:	00 
  402f2b:	48 8b 7d c0          	mov    -0x40(%rbp),%rdi
  402f2f:	48 8b 75 c8          	mov    -0x38(%rbp),%rsi
  402f33:	ba 30 00 00 00       	mov    $0x30,%edx
  402f38:	e8 08 7f 00 00       	callq  40ae45 <_d_array_bounds>
  402f3d:	48 8b 85 40 ff ff ff 	mov    -0xc0(%rbp),%rax
  402f44:	48 c1 e0 03          	shl    $0x3,%rax
  402f48:	48 03 85 38 ff ff ff 	add    -0xc8(%rbp),%rax
  402f4f:	48 8b 00             	mov    (%rax),%rax
  402f52:	48 39 85 30 ff ff ff 	cmp    %rax,-0xd0(%rbp)
  402f59:	7d 0f                	jge    402f6a <_D3std8typeinfo8ti_Along11TypeInfo_Al7compareMFPvPvZi+0x155>
		return -1;
  402f5b:	c7 85 4c ff ff ff ff 	movl   $0xffffffff,-0xb4(%rbp)
  402f62:	ff ff ff 
  402f65:	e9 13 01 00 00       	jmpq   40307d <_D3std8typeinfo8ti_Along11TypeInfo_Al7compareMFPvPvZi+0x268>
	    else if (s1[u] > s2[u])
  402f6a:	48 8b 45 98          	mov    -0x68(%rbp),%rax
  402f6e:	48 89 85 50 ff ff ff 	mov    %rax,-0xb0(%rbp)
  402f75:	48 8b 45 90          	mov    -0x70(%rbp),%rax
  402f79:	48 39 45 f8          	cmp    %rax,-0x8(%rbp)
  402f7d:	73 0d                	jae    402f8c <_D3std8typeinfo8ti_Along11TypeInfo_Al7compareMFPvPvZi+0x177>
  402f7f:	48 8b 45 f8          	mov    -0x8(%rbp),%rax
  402f83:	48 89 85 58 ff ff ff 	mov    %rax,-0xa8(%rbp)
  402f8a:	eb 22                	jmp    402fae <_D3std8typeinfo8ti_Along11TypeInfo_Al7compareMFPvPvZi+0x199>
  402f8c:	48 c7 45 d0 17 00 00 	movq   $0x17,-0x30(%rbp)
  402f93:	00 
  402f94:	48 c7 45 d8 a7 01 41 	movq   $0x4101a7,-0x28(%rbp)
  402f9b:	00 
  402f9c:	48 8b 7d d0          	mov    -0x30(%rbp),%rdi
  402fa0:	48 8b 75 d8          	mov    -0x28(%rbp),%rsi
  402fa4:	ba 32 00 00 00       	mov    $0x32,%edx
  402fa9:	e8 97 7e 00 00       	callq  40ae45 <_d_array_bounds>
  402fae:	48 8b 85 58 ff ff ff 	mov    -0xa8(%rbp),%rax
  402fb5:	48 c1 e0 03          	shl    $0x3,%rax
  402fb9:	48 03 85 50 ff ff ff 	add    -0xb0(%rbp),%rax
  402fc0:	48 8b 00             	mov    (%rax),%rax
  402fc3:	48 89 85 60 ff ff ff 	mov    %rax,-0xa0(%rbp)
  402fca:	48 8b 45 a8          	mov    -0x58(%rbp),%rax
  402fce:	48 89 85 68 ff ff ff 	mov    %rax,-0x98(%rbp)
  402fd5:	48 8b 45 a0          	mov    -0x60(%rbp),%rax
  402fd9:	48 39 45 f8          	cmp    %rax,-0x8(%rbp)
  402fdd:	73 0d                	jae    402fec <_D3std8typeinfo8ti_Along11TypeInfo_Al7compareMFPvPvZi+0x1d7>
  402fdf:	48 8b 45 f8          	mov    -0x8(%rbp),%rax
  402fe3:	48 89 85 70 ff ff ff 	mov    %rax,-0x90(%rbp)
  402fea:	eb 22                	jmp    40300e <_D3std8typeinfo8ti_Along11TypeInfo_Al7compareMFPvPvZi+0x1f9>
  402fec:	48 c7 45 e0 17 00 00 	movq   $0x17,-0x20(%rbp)
  402ff3:	00 
  402ff4:	48 c7 45 e8 a7 01 41 	movq   $0x4101a7,-0x18(%rbp)
  402ffb:	00 
  402ffc:	48 8b 7d e0          	mov    -0x20(%rbp),%rdi
  403000:	48 8b 75 e8          	mov    -0x18(%rbp),%rsi
  403004:	ba 32 00 00 00       	mov    $0x32,%edx
  403009:	e8 37 7e 00 00       	callq  40ae45 <_d_array_bounds>
  40300e:	48 8b 85 70 ff ff ff 	mov    -0x90(%rbp),%rax
  403015:	48 c1 e0 03          	shl    $0x3,%rax
  403019:	48 03 85 68 ff ff ff 	add    -0x98(%rbp),%rax
  403020:	48 8b 00             	mov    (%rax),%rax
  403023:	48 39 85 60 ff ff ff 	cmp    %rax,-0xa0(%rbp)
  40302a:	7e 0c                	jle    403038 <_D3std8typeinfo8ti_Along11TypeInfo_Al7compareMFPvPvZi+0x223>
		return 1;
  40302c:	c7 85 4c ff ff ff 01 	movl   $0x1,-0xb4(%rbp)
  403033:	00 00 00 
  403036:	eb 45                	jmp    40307d <_D3std8typeinfo8ti_Along11TypeInfo_Al7compareMFPvPvZi+0x268>

	if (s2.length < len)
	    len = s2.length;
	for (size_t u = 0; u < len; u++)
	{
	    if (s1[u] < s2[u])
  403038:	48 ff 45 f8          	incq   -0x8(%rbp)
  40303c:	e9 42 fe ff ff       	jmpq   402e83 <_D3std8typeinfo8ti_Along11TypeInfo_Al7compareMFPvPvZi+0x6e>
		return -1;
	    else if (s1[u] > s2[u])
		return 1;
	}
	if (s1.length < s2.length)
  403041:	48 8b 55 90          	mov    -0x70(%rbp),%rdx
  403045:	48 8b 45 a0          	mov    -0x60(%rbp),%rax
  403049:	48 39 c2             	cmp    %rax,%rdx
  40304c:	73 0c                	jae    40305a <_D3std8typeinfo8ti_Along11TypeInfo_Al7compareMFPvPvZi+0x245>
	    return -1;
  40304e:	c7 85 4c ff ff ff ff 	movl   $0xffffffff,-0xb4(%rbp)
  403055:	ff ff ff 
  403058:	eb 23                	jmp    40307d <_D3std8typeinfo8ti_Along11TypeInfo_Al7compareMFPvPvZi+0x268>
	else if (s1.length > s2.length)
  40305a:	48 8b 55 90          	mov    -0x70(%rbp),%rdx
  40305e:	48 8b 45 a0          	mov    -0x60(%rbp),%rax
  403062:	48 39 c2             	cmp    %rax,%rdx
  403065:	76 0c                	jbe    403073 <_D3std8typeinfo8ti_Along11TypeInfo_Al7compareMFPvPvZi+0x25e>
	    return 1;
  403067:	c7 85 4c ff ff ff 01 	movl   $0x1,-0xb4(%rbp)
  40306e:	00 00 00 
  403071:	eb 0a                	jmp    40307d <_D3std8typeinfo8ti_Along11TypeInfo_Al7compareMFPvPvZi+0x268>
	return 0;
  403073:	c7 85 4c ff ff ff 00 	movl   $0x0,-0xb4(%rbp)
  40307a:	00 00 00 
  40307d:	8b 85 4c ff ff ff    	mov    -0xb4(%rbp),%eax
    }
  403083:	c9                   	leaveq 
  403084:	c3                   	retq   

0000000000403085 <_D3std8typeinfo8ti_Along11TypeInfo_Al5tsizeMFZm>:

    size_t tsize()
  403085:	55                   	push   %rbp
  403086:	48 89 e5             	mov    %rsp,%rbp
  403089:	48 83 ec 10          	sub    $0x10,%rsp
  40308d:	48 89 7d f8          	mov    %rdi,-0x8(%rbp)
  403091:	48 8b 7d f8          	mov    -0x8(%rbp),%rdi
  403095:	e8 e2 62 00 00       	callq  40937c <_D9invariant12_d_invariantFC6ObjectZv>
    {
	return (long[]).sizeof;
  40309a:	b8 10 00 00 00       	mov    $0x10,%eax
    }
  40309f:	c9                   	leaveq 
  4030a0:	c3                   	retq   

00000000004030a1 <_D3std8typeinfo8ti_Along11TypeInfo_Al5flagsMFZk>:

    uint flags()
  4030a1:	55                   	push   %rbp
  4030a2:	48 89 e5             	mov    %rsp,%rbp
  4030a5:	48 83 ec 10          	sub    $0x10,%rsp
  4030a9:	48 89 7d f8          	mov    %rdi,-0x8(%rbp)
  4030ad:	48 8b 7d f8          	mov    -0x8(%rbp),%rdi
  4030b1:	e8 c6 62 00 00       	callq  40937c <_D9invariant12_d_invariantFC6ObjectZv>
    {
	return 1;
  4030b6:	b8 01 00 00 00       	mov    $0x1,%eax
    }
  4030bb:	c9                   	leaveq 
  4030bc:	c3                   	retq   

00000000004030bd <_D3std8typeinfo8ti_Along11TypeInfo_Al4nextMFZC8TypeInfo>:

    TypeInfo next()
  4030bd:	55                   	push   %rbp
  4030be:	48 89 e5             	mov    %rsp,%rbp
  4030c1:	48 83 ec 10          	sub    $0x10,%rsp
  4030c5:	48 89 7d f8          	mov    %rdi,-0x8(%rbp)
  4030c9:	48 8b 7d f8          	mov    -0x8(%rbp),%rdi
  4030cd:	e8 aa 62 00 00       	callq  40937c <_D9invariant12_d_invariantFC6ObjectZv>
    {
	return typeid(long);
  4030d2:	48 c7 c0 d0 10 41 00 	mov    $0x4110d0,%rax
    }
  4030d9:	c9                   	leaveq 
  4030da:	c3                   	retq   

00000000004030db <_D3std8typeinfo8ti_Along11TypeInfo_Am8toStringMFZAa>:

// ulong[]

class TypeInfo_Am : TypeInfo_Al
{
    char[] toString() { return "ulong[]"; }
  4030db:	55                   	push   %rbp
  4030dc:	48 89 e5             	mov    %rsp,%rbp
  4030df:	53                   	push   %rbx
  4030e0:	48 83 ec 08          	sub    $0x8,%rsp
  4030e4:	48 89 fb             	mov    %rdi,%rbx
  4030e7:	48 89 75 f0          	mov    %rsi,-0x10(%rbp)
  4030eb:	48 8b 7d f0          	mov    -0x10(%rbp),%rdi
  4030ef:	e8 88 62 00 00       	callq  40937c <_D9invariant12_d_invariantFC6ObjectZv>
  4030f4:	48 c7 03 07 00 00 00 	movq   $0x7,(%rbx)
  4030fb:	48 c7 43 08 50 02 41 	movq   $0x410250,0x8(%rbx)
  403102:	00 
  403103:	48 89 d8             	mov    %rbx,%rax
  403106:	48 83 c4 08          	add    $0x8,%rsp
  40310a:	5b                   	pop    %rbx
  40310b:	c9                   	leaveq 
  40310c:	c3                   	retq   

000000000040310d <_D3std8typeinfo8ti_Along11TypeInfo_Am7compareMFPvPvZi>:

    int compare(void *p1, void *p2)
  40310d:	55                   	push   %rbp
  40310e:	48 89 e5             	mov    %rsp,%rbp
  403111:	48 81 ec e0 00 00 00 	sub    $0xe0,%rsp
  403118:	48 89 7d 88          	mov    %rdi,-0x78(%rbp)
  40311c:	48 89 75 80          	mov    %rsi,-0x80(%rbp)
  403120:	48 89 95 78 ff ff ff 	mov    %rdx,-0x88(%rbp)
  403127:	48 8b 7d 88          	mov    -0x78(%rbp),%rdi
  40312b:	e8 4c 62 00 00       	callq  40937c <_D9invariant12_d_invariantFC6ObjectZv>
    {
	ulong[] s1 = *cast(ulong[]*)p1;
  403130:	48 8b 55 80          	mov    -0x80(%rbp),%rdx
  403134:	48 8b 02             	mov    (%rdx),%rax
  403137:	48 89 45 90          	mov    %rax,-0x70(%rbp)
  40313b:	48 8b 42 08          	mov    0x8(%rdx),%rax
  40313f:	48 89 45 98          	mov    %rax,-0x68(%rbp)
	ulong[] s2 = *cast(ulong[]*)p2;
  403143:	48 8b 95 78 ff ff ff 	mov    -0x88(%rbp),%rdx
  40314a:	48 8b 02             	mov    (%rdx),%rax
  40314d:	48 89 45 a0          	mov    %rax,-0x60(%rbp)
  403151:	48 8b 42 08          	mov    0x8(%rdx),%rax
  403155:	48 89 45 a8          	mov    %rax,-0x58(%rbp)
	size_t len = s1.length;
  403159:	48 8b 45 90          	mov    -0x70(%rbp),%rax
  40315d:	48 89 45 f0          	mov    %rax,-0x10(%rbp)

	if (s2.length < len)
  403161:	48 8b 45 a0          	mov    -0x60(%rbp),%rax
  403165:	48 3b 45 f0          	cmp    -0x10(%rbp),%rax
  403169:	73 08                	jae    403173 <_D3std8typeinfo8ti_Along11TypeInfo_Am7compareMFPvPvZi+0x66>
	    len = s2.length;
  40316b:	48 8b 45 a0          	mov    -0x60(%rbp),%rax
  40316f:	48 89 45 f0          	mov    %rax,-0x10(%rbp)
	for (size_t u = 0; u < len; u++)
  403173:	48 c7 45 f8 00 00 00 	movq   $0x0,-0x8(%rbp)
  40317a:	00 
  40317b:	48 8b 45 f8          	mov    -0x8(%rbp),%rax
  40317f:	48 3b 45 f0          	cmp    -0x10(%rbp),%rax
  403183:	0f 92 c0             	setb   %al
  403186:	83 f0 01             	xor    $0x1,%eax
  403189:	84 c0                	test   %al,%al
  40318b:	0f 85 a8 01 00 00    	jne    403339 <_D3std8typeinfo8ti_Along11TypeInfo_Am7compareMFPvPvZi+0x22c>
	{
	    if (s1[u] < s2[u])
  403191:	48 8b 45 98          	mov    -0x68(%rbp),%rax
  403195:	48 89 85 20 ff ff ff 	mov    %rax,-0xe0(%rbp)
  40319c:	48 8b 45 90          	mov    -0x70(%rbp),%rax
  4031a0:	48 39 45 f8          	cmp    %rax,-0x8(%rbp)
  4031a4:	73 0d                	jae    4031b3 <_D3std8typeinfo8ti_Along11TypeInfo_Am7compareMFPvPvZi+0xa6>
  4031a6:	48 8b 45 f8          	mov    -0x8(%rbp),%rax
  4031aa:	48 89 85 28 ff ff ff 	mov    %rax,-0xd8(%rbp)
  4031b1:	eb 22                	jmp    4031d5 <_D3std8typeinfo8ti_Along11TypeInfo_Am7compareMFPvPvZi+0xc8>
  4031b3:	48 c7 45 b0 17 00 00 	movq   $0x17,-0x50(%rbp)
  4031ba:	00 
  4031bb:	48 c7 45 b8 a7 01 41 	movq   $0x4101a7,-0x48(%rbp)
  4031c2:	00 
  4031c3:	48 8b 7d b0          	mov    -0x50(%rbp),%rdi
  4031c7:	48 8b 75 b8          	mov    -0x48(%rbp),%rsi
  4031cb:	ba 5d 00 00 00       	mov    $0x5d,%edx
  4031d0:	e8 70 7c 00 00       	callq  40ae45 <_d_array_bounds>
  4031d5:	48 8b 85 28 ff ff ff 	mov    -0xd8(%rbp),%rax
  4031dc:	48 c1 e0 03          	shl    $0x3,%rax
  4031e0:	48 03 85 20 ff ff ff 	add    -0xe0(%rbp),%rax
  4031e7:	48 8b 00             	mov    (%rax),%rax
  4031ea:	48 89 85 30 ff ff ff 	mov    %rax,-0xd0(%rbp)
  4031f1:	48 8b 45 a8          	mov    -0x58(%rbp),%rax
  4031f5:	48 89 85 38 ff ff ff 	mov    %rax,-0xc8(%rbp)
  4031fc:	48 8b 45 a0          	mov    -0x60(%rbp),%rax
  403200:	48 39 45 f8          	cmp    %rax,-0x8(%rbp)
  403204:	73 0d                	jae    403213 <_D3std8typeinfo8ti_Along11TypeInfo_Am7compareMFPvPvZi+0x106>
  403206:	48 8b 45 f8          	mov    -0x8(%rbp),%rax
  40320a:	48 89 85 40 ff ff ff 	mov    %rax,-0xc0(%rbp)
  403211:	eb 22                	jmp    403235 <_D3std8typeinfo8ti_Along11TypeInfo_Am7compareMFPvPvZi+0x128>
  403213:	48 c7 45 c0 17 00 00 	movq   $0x17,-0x40(%rbp)
  40321a:	00 
  40321b:	48 c7 45 c8 a7 01 41 	movq   $0x4101a7,-0x38(%rbp)
  403222:	00 
  403223:	48 8b 7d c0          	mov    -0x40(%rbp),%rdi
  403227:	48 8b 75 c8          	mov    -0x38(%rbp),%rsi
  40322b:	ba 5d 00 00 00       	mov    $0x5d,%edx
  403230:	e8 10 7c 00 00       	callq  40ae45 <_d_array_bounds>
  403235:	48 8b 85 40 ff ff ff 	mov    -0xc0(%rbp),%rax
  40323c:	48 c1 e0 03          	shl    $0x3,%rax
  403240:	48 03 85 38 ff ff ff 	add    -0xc8(%rbp),%rax
  403247:	48 8b 00             	mov    (%rax),%rax
  40324a:	48 39 85 30 ff ff ff 	cmp    %rax,-0xd0(%rbp)
  403251:	73 0f                	jae    403262 <_D3std8typeinfo8ti_Along11TypeInfo_Am7compareMFPvPvZi+0x155>
		return -1;
  403253:	c7 85 4c ff ff ff ff 	movl   $0xffffffff,-0xb4(%rbp)
  40325a:	ff ff ff 
  40325d:	e9 13 01 00 00       	jmpq   403375 <_D3std8typeinfo8ti_Along11TypeInfo_Am7compareMFPvPvZi+0x268>
	    else if (s1[u] > s2[u])
  403262:	48 8b 45 98          	mov    -0x68(%rbp),%rax
  403266:	48 89 85 50 ff ff ff 	mov    %rax,-0xb0(%rbp)
  40326d:	48 8b 45 90          	mov    -0x70(%rbp),%rax
  403271:	48 39 45 f8          	cmp    %rax,-0x8(%rbp)
  403275:	73 0d                	jae    403284 <_D3std8typeinfo8ti_Along11TypeInfo_Am7compareMFPvPvZi+0x177>
  403277:	48 8b 45 f8          	mov    -0x8(%rbp),%rax
  40327b:	48 89 85 58 ff ff ff 	mov    %rax,-0xa8(%rbp)
  403282:	eb 22                	jmp    4032a6 <_D3std8typeinfo8ti_Along11TypeInfo_Am7compareMFPvPvZi+0x199>
  403284:	48 c7 45 d0 17 00 00 	movq   $0x17,-0x30(%rbp)
  40328b:	00 
  40328c:	48 c7 45 d8 a7 01 41 	movq   $0x4101a7,-0x28(%rbp)
  403293:	00 
  403294:	48 8b 7d d0          	mov    -0x30(%rbp),%rdi
  403298:	48 8b 75 d8          	mov    -0x28(%rbp),%rsi
  40329c:	ba 5f 00 00 00       	mov    $0x5f,%edx
  4032a1:	e8 9f 7b 00 00       	callq  40ae45 <_d_array_bounds>
  4032a6:	48 8b 85 58 ff ff ff 	mov    -0xa8(%rbp),%rax
  4032ad:	48 c1 e0 03          	shl    $0x3,%rax
  4032b1:	48 03 85 50 ff ff ff 	add    -0xb0(%rbp),%rax
  4032b8:	48 8b 00             	mov    (%rax),%rax
  4032bb:	48 89 85 60 ff ff ff 	mov    %rax,-0xa0(%rbp)
  4032c2:	48 8b 45 a8          	mov    -0x58(%rbp),%rax
  4032c6:	48 89 85 68 ff ff ff 	mov    %rax,-0x98(%rbp)
  4032cd:	48 8b 45 a0          	mov    -0x60(%rbp),%rax
  4032d1:	48 39 45 f8          	cmp    %rax,-0x8(%rbp)
  4032d5:	73 0d                	jae    4032e4 <_D3std8typeinfo8ti_Along11TypeInfo_Am7compareMFPvPvZi+0x1d7>
  4032d7:	48 8b 45 f8          	mov    -0x8(%rbp),%rax
  4032db:	48 89 85 70 ff ff ff 	mov    %rax,-0x90(%rbp)
  4032e2:	eb 22                	jmp    403306 <_D3std8typeinfo8ti_Along11TypeInfo_Am7compareMFPvPvZi+0x1f9>
  4032e4:	48 c7 45 e0 17 00 00 	movq   $0x17,-0x20(%rbp)
  4032eb:	00 
  4032ec:	48 c7 45 e8 a7 01 41 	movq   $0x4101a7,-0x18(%rbp)
  4032f3:	00 
  4032f4:	48 8b 7d e0          	mov    -0x20(%rbp),%rdi
  4032f8:	48 8b 75 e8          	mov    -0x18(%rbp),%rsi
  4032fc:	ba 5f 00 00 00       	mov    $0x5f,%edx
  403301:	e8 3f 7b 00 00       	callq  40ae45 <_d_array_bounds>
  403306:	48 8b 85 70 ff ff ff 	mov    -0x90(%rbp),%rax
  40330d:	48 c1 e0 03          	shl    $0x3,%rax
  403311:	48 03 85 68 ff ff ff 	add    -0x98(%rbp),%rax
  403318:	48 8b 00             	mov    (%rax),%rax
  40331b:	48 39 85 60 ff ff ff 	cmp    %rax,-0xa0(%rbp)
  403322:	76 0c                	jbe    403330 <_D3std8typeinfo8ti_Along11TypeInfo_Am7compareMFPvPvZi+0x223>
		return 1;
  403324:	c7 85 4c ff ff ff 01 	movl   $0x1,-0xb4(%rbp)
  40332b:	00 00 00 
  40332e:	eb 45                	jmp    403375 <_D3std8typeinfo8ti_Along11TypeInfo_Am7compareMFPvPvZi+0x268>

	if (s2.length < len)
	    len = s2.length;
	for (size_t u = 0; u < len; u++)
	{
	    if (s1[u] < s2[u])
  403330:	48 ff 45 f8          	incq   -0x8(%rbp)
  403334:	e9 42 fe ff ff       	jmpq   40317b <_D3std8typeinfo8ti_Along11TypeInfo_Am7compareMFPvPvZi+0x6e>
		return -1;
	    else if (s1[u] > s2[u])
		return 1;
	}
	if (s1.length < s2.length)
  403339:	48 8b 55 90          	mov    -0x70(%rbp),%rdx
  40333d:	48 8b 45 a0          	mov    -0x60(%rbp),%rax
  403341:	48 39 c2             	cmp    %rax,%rdx
  403344:	73 0c                	jae    403352 <_D3std8typeinfo8ti_Along11TypeInfo_Am7compareMFPvPvZi+0x245>
	    return -1;
  403346:	c7 85 4c ff ff ff ff 	movl   $0xffffffff,-0xb4(%rbp)
  40334d:	ff ff ff 
  403350:	eb 23                	jmp    403375 <_D3std8typeinfo8ti_Along11TypeInfo_Am7compareMFPvPvZi+0x268>
	else if (s1.length > s2.length)
  403352:	48 8b 55 90          	mov    -0x70(%rbp),%rdx
  403356:	48 8b 45 a0          	mov    -0x60(%rbp),%rax
  40335a:	48 39 c2             	cmp    %rax,%rdx
  40335d:	76 0c                	jbe    40336b <_D3std8typeinfo8ti_Along11TypeInfo_Am7compareMFPvPvZi+0x25e>
	    return 1;
  40335f:	c7 85 4c ff ff ff 01 	movl   $0x1,-0xb4(%rbp)
  403366:	00 00 00 
  403369:	eb 0a                	jmp    403375 <_D3std8typeinfo8ti_Along11TypeInfo_Am7compareMFPvPvZi+0x268>
	return 0;
  40336b:	c7 85 4c ff ff ff 00 	movl   $0x0,-0xb4(%rbp)
  403372:	00 00 00 
  403375:	8b 85 4c ff ff ff    	mov    -0xb4(%rbp),%eax
    }
  40337b:	c9                   	leaveq 
  40337c:	c3                   	retq   

000000000040337d <_D3std8typeinfo8ti_Along11TypeInfo_Am4nextMFZC8TypeInfo>:

    TypeInfo next()
  40337d:	55                   	push   %rbp
  40337e:	48 89 e5             	mov    %rsp,%rbp
  403381:	48 83 ec 10          	sub    $0x10,%rsp
  403385:	48 89 7d f8          	mov    %rdi,-0x8(%rbp)
  403389:	48 8b 7d f8          	mov    -0x8(%rbp),%rdi
  40338d:	e8 ea 5f 00 00       	callq  40937c <_D9invariant12_d_invariantFC6ObjectZv>
    {
	return typeid(ulong);
  403392:	48 c7 c0 d0 15 41 00 	mov    $0x4115d0,%rax
    }
  403399:	c9                   	leaveq 
  40339a:	c3                   	retq   
  40339b:	90                   	nop    

000000000040339c <_D3std8typeinfo8ti_Areal11TypeInfo_Ae8toStringMFZAa>:

// real[]

class TypeInfo_Ae : TypeInfo
{
    char[] toString() { return "real[]"; }
  40339c:	55                   	push   %rbp
  40339d:	48 89 e5             	mov    %rsp,%rbp
  4033a0:	53                   	push   %rbx
  4033a1:	48 83 ec 08          	sub    $0x8,%rsp
  4033a5:	48 89 fb             	mov    %rdi,%rbx
  4033a8:	48 89 75 f0          	mov    %rsi,-0x10(%rbp)
  4033ac:	48 8b 7d f0          	mov    -0x10(%rbp),%rdi
  4033b0:	e8 c7 5f 00 00       	callq  40937c <_D9invariant12_d_invariantFC6ObjectZv>
  4033b5:	48 c7 03 06 00 00 00 	movq   $0x6,(%rbx)
  4033bc:	48 c7 43 08 00 03 41 	movq   $0x410300,0x8(%rbx)
  4033c3:	00 
  4033c4:	48 89 d8             	mov    %rbx,%rax
  4033c7:	48 83 c4 08          	add    $0x8,%rsp
  4033cb:	5b                   	pop    %rbx
  4033cc:	c9                   	leaveq 
  4033cd:	c3                   	retq   

00000000004033ce <_D3std8typeinfo8ti_Areal11TypeInfo_Ae7getHashMFPvZm>:

    hash_t getHash(void *p)
  4033ce:	55                   	push   %rbp
  4033cf:	48 89 e5             	mov    %rsp,%rbp
  4033d2:	48 83 ec 40          	sub    $0x40,%rsp
  4033d6:	48 89 7d c8          	mov    %rdi,-0x38(%rbp)
  4033da:	48 89 75 c0          	mov    %rsi,-0x40(%rbp)
  4033de:	48 8b 7d c8          	mov    -0x38(%rbp),%rdi
  4033e2:	e8 95 5f 00 00       	callq  40937c <_D9invariant12_d_invariantFC6ObjectZv>
    {	real[] s = *cast(real[]*)p;
  4033e7:	48 8b 55 c0          	mov    -0x40(%rbp),%rdx
  4033eb:	48 8b 02             	mov    (%rdx),%rax
  4033ee:	48 89 45 d0          	mov    %rax,-0x30(%rbp)
  4033f2:	48 8b 42 08          	mov    0x8(%rdx),%rax
  4033f6:	48 89 45 d8          	mov    %rax,-0x28(%rbp)
	size_t len = s.length;
  4033fa:	48 8b 45 d0          	mov    -0x30(%rbp),%rax
  4033fe:	48 89 45 f8          	mov    %rax,-0x8(%rbp)
	auto str = s.ptr;
  403402:	48 8b 45 d8          	mov    -0x28(%rbp),%rax
  403406:	48 89 45 f0          	mov    %rax,-0x10(%rbp)
	hash_t hash = 0;
  40340a:	48 c7 45 e8 00 00 00 	movq   $0x0,-0x18(%rbp)
  403411:	00 

	while (len)
  403412:	48 83 7d f8 00       	cmpq   $0x0,-0x8(%rbp)
  403417:	0f 95 c0             	setne  %al
  40341a:	83 f0 01             	xor    $0x1,%eax
  40341d:	84 c0                	test   %al,%al
  40341f:	75 5e                	jne    40347f <_D3std8typeinfo8ti_Areal11TypeInfo_Ae7getHashMFPvZm+0xb1>
	{
	    hash *= 9;
  403421:	48 8b 55 e8          	mov    -0x18(%rbp),%rdx
  403425:	48 89 d0             	mov    %rdx,%rax
  403428:	48 c1 e0 03          	shl    $0x3,%rax
  40342c:	48 01 d0             	add    %rdx,%rax
  40342f:	48 89 45 e8          	mov    %rax,-0x18(%rbp)
	    hash += (cast(uint *)str)[0];
  403433:	48 8b 55 f0          	mov    -0x10(%rbp),%rdx
  403437:	b8 00 00 00 00       	mov    $0x0,%eax
  40343c:	48 8d 04 02          	lea    (%rdx,%rax,1),%rax
  403440:	8b 00                	mov    (%rax),%eax
  403442:	89 c0                	mov    %eax,%eax
  403444:	48 01 45 e8          	add    %rax,-0x18(%rbp)
	    hash += (cast(uint *)str)[1];
  403448:	48 8b 55 f0          	mov    -0x10(%rbp),%rdx
  40344c:	b8 04 00 00 00       	mov    $0x4,%eax
  403451:	48 8d 04 02          	lea    (%rdx,%rax,1),%rax
  403455:	8b 00                	mov    (%rax),%eax
  403457:	89 c0                	mov    %eax,%eax
  403459:	48 01 45 e8          	add    %rax,-0x18(%rbp)
	    hash += (cast(ushort *)str)[4];
  40345d:	48 8b 55 f0          	mov    -0x10(%rbp),%rdx
  403461:	b8 08 00 00 00       	mov    $0x8,%eax
  403466:	48 8d 04 02          	lea    (%rdx,%rax,1),%rax
  40346a:	0f b7 00             	movzwl (%rax),%eax
  40346d:	0f b7 c0             	movzwl %ax,%eax
  403470:	48 01 45 e8          	add    %rax,-0x18(%rbp)
	    str++;
  403474:	48 83 45 f0 10       	addq   $0x10,-0x10(%rbp)
	    len--;
  403479:	48 ff 4d f8          	decq   -0x8(%rbp)
  40347d:	eb 93                	jmp    403412 <_D3std8typeinfo8ti_Areal11TypeInfo_Ae7getHashMFPvZm+0x44>
	}

	return hash;
  40347f:	48 8b 45 e8          	mov    -0x18(%rbp),%rax
    }
  403483:	c9                   	leaveq 
  403484:	c3                   	retq   

0000000000403485 <_D3std8typeinfo8ti_Areal11TypeInfo_Ae6equalsMFPvPvZi>:

    int equals(void *p1, void *p2)
  403485:	55                   	push   %rbp
  403486:	48 89 e5             	mov    %rsp,%rbp
  403489:	48 81 ec e0 00 00 00 	sub    $0xe0,%rsp
  403490:	48 89 7d 98          	mov    %rdi,-0x68(%rbp)
  403494:	48 89 75 90          	mov    %rsi,-0x70(%rbp)
  403498:	48 89 55 88          	mov    %rdx,-0x78(%rbp)
  40349c:	48 8b 7d 98          	mov    -0x68(%rbp),%rdi
  4034a0:	e8 d7 5e 00 00       	callq  40937c <_D9invariant12_d_invariantFC6ObjectZv>
    {
	real[] s1 = *cast(real[]*)p1;
  4034a5:	48 8b 55 90          	mov    -0x70(%rbp),%rdx
  4034a9:	48 8b 02             	mov    (%rdx),%rax
  4034ac:	48 89 45 a0          	mov    %rax,-0x60(%rbp)
  4034b0:	48 8b 42 08          	mov    0x8(%rdx),%rax
  4034b4:	48 89 45 a8          	mov    %rax,-0x58(%rbp)
	real[] s2 = *cast(real[]*)p2;
  4034b8:	48 8b 55 88          	mov    -0x78(%rbp),%rdx
  4034bc:	48 8b 02             	mov    (%rdx),%rax
  4034bf:	48 89 45 b0          	mov    %rax,-0x50(%rbp)
  4034c3:	48 8b 42 08          	mov    0x8(%rdx),%rax
  4034c7:	48 89 45 b8          	mov    %rax,-0x48(%rbp)
	size_t len = s1.length;
  4034cb:	48 8b 45 a0          	mov    -0x60(%rbp),%rax
  4034cf:	48 89 45 e8          	mov    %rax,-0x18(%rbp)

	if (len != s2.length)
  4034d3:	48 8b 45 b0          	mov    -0x50(%rbp),%rax
  4034d7:	48 39 45 e8          	cmp    %rax,-0x18(%rbp)
  4034db:	74 0f                	je     4034ec <_D3std8typeinfo8ti_Areal11TypeInfo_Ae6equalsMFPvPvZi+0x67>
	    return 0;
  4034dd:	c7 85 4c ff ff ff 00 	movl   $0x0,-0xb4(%rbp)
  4034e4:	00 00 00 
  4034e7:	e9 11 01 00 00       	jmpq   4035fd <_D3std8typeinfo8ti_Areal11TypeInfo_Ae6equalsMFPvPvZi+0x178>
	for (size_t u = 0; u < len; u++)
  4034ec:	48 c7 45 f0 00 00 00 	movq   $0x0,-0x10(%rbp)
  4034f3:	00 
  4034f4:	48 8b 45 f0          	mov    -0x10(%rbp),%rax
  4034f8:	48 3b 45 e8          	cmp    -0x18(%rbp),%rax
  4034fc:	0f 92 c0             	setb   %al
  4034ff:	83 f0 01             	xor    $0x1,%eax
  403502:	84 c0                	test   %al,%al
  403504:	0f 85 e9 00 00 00    	jne    4035f3 <_D3std8typeinfo8ti_Areal11TypeInfo_Ae6equalsMFPvPvZi+0x16e>
	{
	    int c = TypeInfo_e._equals(s1[u], s2[u]);
  40350a:	48 8b 45 b8          	mov    -0x48(%rbp),%rax
  40350e:	48 89 85 50 ff ff ff 	mov    %rax,-0xb0(%rbp)
  403515:	48 8b 45 b0          	mov    -0x50(%rbp),%rax
  403519:	48 39 45 f0          	cmp    %rax,-0x10(%rbp)
  40351d:	73 0d                	jae    40352c <_D3std8typeinfo8ti_Areal11TypeInfo_Ae6equalsMFPvPvZi+0xa7>
  40351f:	48 8b 45 f0          	mov    -0x10(%rbp),%rax
  403523:	48 89 85 58 ff ff ff 	mov    %rax,-0xa8(%rbp)
  40352a:	eb 22                	jmp    40354e <_D3std8typeinfo8ti_Areal11TypeInfo_Ae6equalsMFPvPvZi+0xc9>
  40352c:	48 c7 45 c0 17 00 00 	movq   $0x17,-0x40(%rbp)
  403533:	00 
  403534:	48 c7 45 c8 07 03 41 	movq   $0x410307,-0x38(%rbp)
  40353b:	00 
  40353c:	48 8b 7d c0          	mov    -0x40(%rbp),%rdi
  403540:	48 8b 75 c8          	mov    -0x38(%rbp),%rsi
  403544:	ba 3f 00 00 00       	mov    $0x3f,%edx
  403549:	e8 f7 78 00 00       	callq  40ae45 <_d_array_bounds>
  40354e:	48 8b 85 58 ff ff ff 	mov    -0xa8(%rbp),%rax
  403555:	48 c1 e0 04          	shl    $0x4,%rax
  403559:	48 03 85 50 ff ff ff 	add    -0xb0(%rbp),%rax
  403560:	db 28                	fldt   (%rax)
  403562:	db bd 60 ff ff ff    	fstpt  -0xa0(%rbp)
  403568:	48 8b 45 a8          	mov    -0x58(%rbp),%rax
  40356c:	48 89 85 78 ff ff ff 	mov    %rax,-0x88(%rbp)
  403573:	48 8b 45 a0          	mov    -0x60(%rbp),%rax
  403577:	48 39 45 f0          	cmp    %rax,-0x10(%rbp)
  40357b:	73 0a                	jae    403587 <_D3std8typeinfo8ti_Areal11TypeInfo_Ae6equalsMFPvPvZi+0x102>
  40357d:	48 8b 45 f0          	mov    -0x10(%rbp),%rax
  403581:	48 89 45 80          	mov    %rax,-0x80(%rbp)
  403585:	eb 22                	jmp    4035a9 <_D3std8typeinfo8ti_Areal11TypeInfo_Ae6equalsMFPvPvZi+0x124>
  403587:	48 c7 45 d0 17 00 00 	movq   $0x17,-0x30(%rbp)
  40358e:	00 
  40358f:	48 c7 45 d8 07 03 41 	movq   $0x410307,-0x28(%rbp)
  403596:	00 
  403597:	48 8b 7d d0          	mov    -0x30(%rbp),%rdi
  40359b:	48 8b 75 d8          	mov    -0x28(%rbp),%rsi
  40359f:	ba 3f 00 00 00       	mov    $0x3f,%edx
  4035a4:	e8 9c 78 00 00       	callq  40ae45 <_d_array_bounds>
  4035a9:	48 8b 45 80          	mov    -0x80(%rbp),%rax
  4035ad:	48 c1 e0 04          	shl    $0x4,%rax
  4035b1:	48 03 85 78 ff ff ff 	add    -0x88(%rbp),%rax
  4035b8:	8b 50 08             	mov    0x8(%rax),%edx
  4035bb:	48 8b 00             	mov    (%rax),%rax
  4035be:	db ad 60 ff ff ff    	fldt   -0xa0(%rbp)
  4035c4:	db 7c 24 10          	fstpt  0x10(%rsp)
  4035c8:	48 89 04 24          	mov    %rax,(%rsp)
  4035cc:	89 54 24 08          	mov    %edx,0x8(%rsp)
  4035d0:	e8 5c 22 00 00       	callq  405831 <_D3std8typeinfo7ti_real10TypeInfo_e7_equalsFeeZi>
  4035d5:	89 45 fc             	mov    %eax,-0x4(%rbp)
	    if (c == 0)
  4035d8:	83 7d fc 00          	cmpl   $0x0,-0x4(%rbp)
  4035dc:	75 0c                	jne    4035ea <_D3std8typeinfo8ti_Areal11TypeInfo_Ae6equalsMFPvPvZi+0x165>
		return 0;
  4035de:	c7 85 4c ff ff ff 00 	movl   $0x0,-0xb4(%rbp)
  4035e5:	00 00 00 
  4035e8:	eb 13                	jmp    4035fd <_D3std8typeinfo8ti_Areal11TypeInfo_Ae6equalsMFPvPvZi+0x178>
	if (len != s2.length)
	    return 0;
	for (size_t u = 0; u < len; u++)
	{
	    int c = TypeInfo_e._equals(s1[u], s2[u]);
	    if (c == 0)
  4035ea:	48 ff 45 f0          	incq   -0x10(%rbp)
  4035ee:	e9 01 ff ff ff       	jmpq   4034f4 <_D3std8typeinfo8ti_Areal11TypeInfo_Ae6equalsMFPvPvZi+0x6f>
		return 0;
	}
	return 1;
  4035f3:	c7 85 4c ff ff ff 01 	movl   $0x1,-0xb4(%rbp)
  4035fa:	00 00 00 
  4035fd:	8b 85 4c ff ff ff    	mov    -0xb4(%rbp),%eax
    }
  403603:	c9                   	leaveq 
  403604:	c3                   	retq   

0000000000403605 <_D3std8typeinfo8ti_Areal11TypeInfo_Ae7compareMFPvPvZi>:

    int compare(void *p1, void *p2)
  403605:	55                   	push   %rbp
  403606:	48 89 e5             	mov    %rsp,%rbp
  403609:	48 81 ec d0 00 00 00 	sub    $0xd0,%rsp
  403610:	48 89 7d 98          	mov    %rdi,-0x68(%rbp)
  403614:	48 89 75 90          	mov    %rsi,-0x70(%rbp)
  403618:	48 89 55 88          	mov    %rdx,-0x78(%rbp)
  40361c:	48 8b 7d 98          	mov    -0x68(%rbp),%rdi
  403620:	e8 57 5d 00 00       	callq  40937c <_D9invariant12_d_invariantFC6ObjectZv>
    {
	real[] s1 = *cast(real[]*)p1;
  403625:	48 8b 55 90          	mov    -0x70(%rbp),%rdx
  403629:	48 8b 02             	mov    (%rdx),%rax
  40362c:	48 89 45 a0          	mov    %rax,-0x60(%rbp)
  403630:	48 8b 42 08          	mov    0x8(%rdx),%rax
  403634:	48 89 45 a8          	mov    %rax,-0x58(%rbp)
	real[] s2 = *cast(real[]*)p2;
  403638:	48 8b 55 88          	mov    -0x78(%rbp),%rdx
  40363c:	48 8b 02             	mov    (%rdx),%rax
  40363f:	48 89 45 b0          	mov    %rax,-0x50(%rbp)
  403643:	48 8b 42 08          	mov    0x8(%rdx),%rax
  403647:	48 89 45 b8          	mov    %rax,-0x48(%rbp)
	size_t len = s1.length;
  40364b:	48 8b 45 a0          	mov    -0x60(%rbp),%rax
  40364f:	48 89 45 e8          	mov    %rax,-0x18(%rbp)

	if (s2.length < len)
  403653:	48 8b 45 b0          	mov    -0x50(%rbp),%rax
  403657:	48 3b 45 e8          	cmp    -0x18(%rbp),%rax
  40365b:	73 08                	jae    403665 <_D3std8typeinfo8ti_Areal11TypeInfo_Ae7compareMFPvPvZi+0x60>
	    len = s2.length;
  40365d:	48 8b 45 b0          	mov    -0x50(%rbp),%rax
  403661:	48 89 45 e8          	mov    %rax,-0x18(%rbp)
	for (size_t u = 0; u < len; u++)
  403665:	48 c7 45 f0 00 00 00 	movq   $0x0,-0x10(%rbp)
  40366c:	00 
  40366d:	48 8b 45 f0          	mov    -0x10(%rbp),%rax
  403671:	48 3b 45 e8          	cmp    -0x18(%rbp),%rax
  403675:	0f 92 c0             	setb   %al
  403678:	83 f0 01             	xor    $0x1,%eax
  40367b:	84 c0                	test   %al,%al
  40367d:	0f 85 eb 00 00 00    	jne    40376e <_D3std8typeinfo8ti_Areal11TypeInfo_Ae7compareMFPvPvZi+0x169>
	{
	    int c = TypeInfo_e._compare(s1[u], s2[u]);
  403683:	48 8b 45 b8          	mov    -0x48(%rbp),%rax
  403687:	48 89 85 50 ff ff ff 	mov    %rax,-0xb0(%rbp)
  40368e:	48 8b 45 b0          	mov    -0x50(%rbp),%rax
  403692:	48 39 45 f0          	cmp    %rax,-0x10(%rbp)
  403696:	73 0d                	jae    4036a5 <_D3std8typeinfo8ti_Areal11TypeInfo_Ae7compareMFPvPvZi+0xa0>
  403698:	48 8b 45 f0          	mov    -0x10(%rbp),%rax
  40369c:	48 89 85 58 ff ff ff 	mov    %rax,-0xa8(%rbp)
  4036a3:	eb 22                	jmp    4036c7 <_D3std8typeinfo8ti_Areal11TypeInfo_Ae7compareMFPvPvZi+0xc2>
  4036a5:	48 c7 45 c0 17 00 00 	movq   $0x17,-0x40(%rbp)
  4036ac:	00 
  4036ad:	48 c7 45 c8 07 03 41 	movq   $0x410307,-0x38(%rbp)
  4036b4:	00 
  4036b5:	48 8b 7d c0          	mov    -0x40(%rbp),%rdi
  4036b9:	48 8b 75 c8          	mov    -0x38(%rbp),%rsi
  4036bd:	ba 50 00 00 00       	mov    $0x50,%edx
  4036c2:	e8 7e 77 00 00       	callq  40ae45 <_d_array_bounds>
  4036c7:	48 8b 85 58 ff ff ff 	mov    -0xa8(%rbp),%rax
  4036ce:	48 c1 e0 04          	shl    $0x4,%rax
  4036d2:	48 03 85 50 ff ff ff 	add    -0xb0(%rbp),%rax
  4036d9:	db 28                	fldt   (%rax)
  4036db:	db bd 60 ff ff ff    	fstpt  -0xa0(%rbp)
  4036e1:	48 8b 45 a8          	mov    -0x58(%rbp),%rax
  4036e5:	48 89 85 70 ff ff ff 	mov    %rax,-0x90(%rbp)
  4036ec:	48 8b 45 a0          	mov    -0x60(%rbp),%rax
  4036f0:	48 39 45 f0          	cmp    %rax,-0x10(%rbp)
  4036f4:	73 0d                	jae    403703 <_D3std8typeinfo8ti_Areal11TypeInfo_Ae7compareMFPvPvZi+0xfe>
  4036f6:	48 8b 45 f0          	mov    -0x10(%rbp),%rax
  4036fa:	48 89 85 78 ff ff ff 	mov    %rax,-0x88(%rbp)
  403701:	eb 22                	jmp    403725 <_D3std8typeinfo8ti_Areal11TypeInfo_Ae7compareMFPvPvZi+0x120>
  403703:	48 c7 45 d0 17 00 00 	movq   $0x17,-0x30(%rbp)
  40370a:	00 
  40370b:	48 c7 45 d8 07 03 41 	movq   $0x410307,-0x28(%rbp)
  403712:	00 
  403713:	48 8b 7d d0          	mov    -0x30(%rbp),%rdi
  403717:	48 8b 75 d8          	mov    -0x28(%rbp),%rsi
  40371b:	ba 50 00 00 00       	mov    $0x50,%edx
  403720:	e8 20 77 00 00       	callq  40ae45 <_d_array_bounds>
  403725:	48 8b 85 78 ff ff ff 	mov    -0x88(%rbp),%rax
  40372c:	48 c1 e0 04          	shl    $0x4,%rax
  403730:	48 03 85 70 ff ff ff 	add    -0x90(%rbp),%rax
  403737:	8b 50 08             	mov    0x8(%rax),%edx
  40373a:	48 8b 00             	mov    (%rax),%rax
  40373d:	db ad 60 ff ff ff    	fldt   -0xa0(%rbp)
  403743:	db 7c 24 10          	fstpt  0x10(%rsp)
  403747:	48 89 04 24          	mov    %rax,(%rsp)
  40374b:	89 54 24 08          	mov    %edx,0x8(%rsp)
  40374f:	e8 35 21 00 00       	callq  405889 <_D3std8typeinfo7ti_real10TypeInfo_e8_compareFeeZi>
  403754:	89 45 fc             	mov    %eax,-0x4(%rbp)
	    if (c)
  403757:	83 7d fc 00          	cmpl   $0x0,-0x4(%rbp)
  40375b:	74 08                	je     403765 <_D3std8typeinfo8ti_Areal11TypeInfo_Ae7compareMFPvPvZi+0x160>
		return c;
  40375d:	8b 45 fc             	mov    -0x4(%rbp),%eax
  403760:	89 45 84             	mov    %eax,-0x7c(%rbp)
  403763:	eb 3c                	jmp    4037a1 <_D3std8typeinfo8ti_Areal11TypeInfo_Ae7compareMFPvPvZi+0x19c>
	if (s2.length < len)
	    len = s2.length;
	for (size_t u = 0; u < len; u++)
	{
	    int c = TypeInfo_e._compare(s1[u], s2[u]);
	    if (c)
  403765:	48 ff 45 f0          	incq   -0x10(%rbp)
  403769:	e9 ff fe ff ff       	jmpq   40366d <_D3std8typeinfo8ti_Areal11TypeInfo_Ae7compareMFPvPvZi+0x68>
		return c;
	}
	if (s1.length < s2.length)
  40376e:	48 8b 55 a0          	mov    -0x60(%rbp),%rdx
  403772:	48 8b 45 b0          	mov    -0x50(%rbp),%rax
  403776:	48 39 c2             	cmp    %rax,%rdx
  403779:	73 09                	jae    403784 <_D3std8typeinfo8ti_Areal11TypeInfo_Ae7compareMFPvPvZi+0x17f>
	    return -1;
  40377b:	c7 45 84 ff ff ff ff 	movl   $0xffffffff,-0x7c(%rbp)
  403782:	eb 1d                	jmp    4037a1 <_D3std8typeinfo8ti_Areal11TypeInfo_Ae7compareMFPvPvZi+0x19c>
	else if (s1.length > s2.length)
  403784:	48 8b 55 a0          	mov    -0x60(%rbp),%rdx
  403788:	48 8b 45 b0          	mov    -0x50(%rbp),%rax
  40378c:	48 39 c2             	cmp    %rax,%rdx
  40378f:	76 09                	jbe    40379a <_D3std8typeinfo8ti_Areal11TypeInfo_Ae7compareMFPvPvZi+0x195>
	    return 1;
  403791:	c7 45 84 01 00 00 00 	movl   $0x1,-0x7c(%rbp)
  403798:	eb 07                	jmp    4037a1 <_D3std8typeinfo8ti_Areal11TypeInfo_Ae7compareMFPvPvZi+0x19c>
	return 0;
  40379a:	c7 45 84 00 00 00 00 	movl   $0x0,-0x7c(%rbp)
  4037a1:	8b 45 84             	mov    -0x7c(%rbp),%eax
    }
  4037a4:	c9                   	leaveq 
  4037a5:	c3                   	retq   

00000000004037a6 <_D3std8typeinfo8ti_Areal11TypeInfo_Ae5tsizeMFZm>:

    size_t tsize()
  4037a6:	55                   	push   %rbp
  4037a7:	48 89 e5             	mov    %rsp,%rbp
  4037aa:	48 83 ec 10          	sub    $0x10,%rsp
  4037ae:	48 89 7d f8          	mov    %rdi,-0x8(%rbp)
  4037b2:	48 8b 7d f8          	mov    -0x8(%rbp),%rdi
  4037b6:	e8 c1 5b 00 00       	callq  40937c <_D9invariant12_d_invariantFC6ObjectZv>
    {
	return (real[]).sizeof;
  4037bb:	b8 10 00 00 00       	mov    $0x10,%eax
    }
  4037c0:	c9                   	leaveq 
  4037c1:	c3                   	retq   

00000000004037c2 <_D3std8typeinfo8ti_Areal11TypeInfo_Ae5flagsMFZk>:

    uint flags()
  4037c2:	55                   	push   %rbp
  4037c3:	48 89 e5             	mov    %rsp,%rbp
  4037c6:	48 83 ec 10          	sub    $0x10,%rsp
  4037ca:	48 89 7d f8          	mov    %rdi,-0x8(%rbp)
  4037ce:	48 8b 7d f8          	mov    -0x8(%rbp),%rdi
  4037d2:	e8 a5 5b 00 00       	callq  40937c <_D9invariant12_d_invariantFC6ObjectZv>
    {
	return 1;
  4037d7:	b8 01 00 00 00       	mov    $0x1,%eax
    }
  4037dc:	c9                   	leaveq 
  4037dd:	c3                   	retq   

00000000004037de <_D3std8typeinfo8ti_Areal11TypeInfo_Ae4nextMFZC8TypeInfo>:

    TypeInfo next()
  4037de:	55                   	push   %rbp
  4037df:	48 89 e5             	mov    %rsp,%rbp
  4037e2:	48 83 ec 10          	sub    $0x10,%rsp
  4037e6:	48 89 7d f8          	mov    %rdi,-0x8(%rbp)
  4037ea:	48 8b 7d f8          	mov    -0x8(%rbp),%rdi
  4037ee:	e8 89 5b 00 00       	callq  40937c <_D9invariant12_d_invariantFC6ObjectZv>
    {
	return typeid(real);
  4037f3:	48 c7 c0 30 12 41 00 	mov    $0x411230,%rax
    }
  4037fa:	c9                   	leaveq 
  4037fb:	c3                   	retq   

00000000004037fc <_D3std8typeinfo8ti_Areal11TypeInfo_Aj8toStringMFZAa>:

// ireal[]

class TypeInfo_Aj : TypeInfo_Ae
{
    char[] toString() { return "ireal[]"; }
  4037fc:	55                   	push   %rbp
  4037fd:	48 89 e5             	mov    %rsp,%rbp
  403800:	53                   	push   %rbx
  403801:	48 83 ec 08          	sub    $0x8,%rsp
  403805:	48 89 fb             	mov    %rdi,%rbx
  403808:	48 89 75 f0          	mov    %rsi,-0x10(%rbp)
  40380c:	48 8b 7d f0          	mov    -0x10(%rbp),%rdi
  403810:	e8 67 5b 00 00       	callq  40937c <_D9invariant12_d_invariantFC6ObjectZv>
  403815:	48 c7 03 07 00 00 00 	movq   $0x7,(%rbx)
  40381c:	48 c7 43 08 b0 03 41 	movq   $0x4103b0,0x8(%rbx)
  403823:	00 
  403824:	48 89 d8             	mov    %rbx,%rax
  403827:	48 83 c4 08          	add    $0x8,%rsp
  40382b:	5b                   	pop    %rbx
  40382c:	c9                   	leaveq 
  40382d:	c3                   	retq   

000000000040382e <_D3std8typeinfo8ti_Areal11TypeInfo_Aj4nextMFZC8TypeInfo>:

    TypeInfo next()
  40382e:	55                   	push   %rbp
  40382f:	48 89 e5             	mov    %rsp,%rbp
  403832:	48 83 ec 10          	sub    $0x10,%rsp
  403836:	48 89 7d f8          	mov    %rdi,-0x8(%rbp)
  40383a:	48 8b 7d f8          	mov    -0x8(%rbp),%rdi
  40383e:	e8 39 5b 00 00       	callq  40937c <_D9invariant12_d_invariantFC6ObjectZv>
    {
	return typeid(ireal);
  403843:	48 c7 c0 10 10 41 00 	mov    $0x411010,%rax
    }
  40384a:	c9                   	leaveq 
  40384b:	c3                   	retq   

000000000040384c <_D3std8typeinfo9ti_Ashort11TypeInfo_As8toStringMFZAa>:

// short[]

class TypeInfo_As : TypeInfo
{
    char[] toString() { return "short[]"; }
  40384c:	55                   	push   %rbp
  40384d:	48 89 e5             	mov    %rsp,%rbp
  403850:	53                   	push   %rbx
  403851:	48 83 ec 08          	sub    $0x8,%rsp
  403855:	48 89 fb             	mov    %rdi,%rbx
  403858:	48 89 75 f0          	mov    %rsi,-0x10(%rbp)
  40385c:	48 8b 7d f0          	mov    -0x10(%rbp),%rdi
  403860:	e8 17 5b 00 00       	callq  40937c <_D9invariant12_d_invariantFC6ObjectZv>
  403865:	48 c7 03 07 00 00 00 	movq   $0x7,(%rbx)
  40386c:	48 c7 43 08 60 04 41 	movq   $0x410460,0x8(%rbx)
  403873:	00 
  403874:	48 89 d8             	mov    %rbx,%rax
  403877:	48 83 c4 08          	add    $0x8,%rsp
  40387b:	5b                   	pop    %rbx
  40387c:	c9                   	leaveq 
  40387d:	c3                   	retq   

000000000040387e <_D3std8typeinfo9ti_Ashort11TypeInfo_As7getHashMFPvZm>:

    hash_t getHash(void *p)
  40387e:	55                   	push   %rbp
  40387f:	48 89 e5             	mov    %rsp,%rbp
  403882:	48 83 ec 50          	sub    $0x50,%rsp
  403886:	48 89 7d c8          	mov    %rdi,-0x38(%rbp)
  40388a:	48 89 75 c0          	mov    %rsi,-0x40(%rbp)
  40388e:	48 8b 7d c8          	mov    -0x38(%rbp),%rdi
  403892:	e8 e5 5a 00 00       	callq  40937c <_D9invariant12_d_invariantFC6ObjectZv>
    {	short[] s = *cast(short[]*)p;
  403897:	48 8b 55 c0          	mov    -0x40(%rbp),%rdx
  40389b:	48 8b 02             	mov    (%rdx),%rax
  40389e:	48 89 45 d0          	mov    %rax,-0x30(%rbp)
  4038a2:	48 8b 42 08          	mov    0x8(%rdx),%rax
  4038a6:	48 89 45 d8          	mov    %rax,-0x28(%rbp)
	size_t len = s.length;
  4038aa:	48 8b 45 d0          	mov    -0x30(%rbp),%rax
  4038ae:	48 89 45 f8          	mov    %rax,-0x8(%rbp)
	short *str = s.ptr;
  4038b2:	48 8b 45 d8          	mov    -0x28(%rbp),%rax
  4038b6:	48 89 45 f0          	mov    %rax,-0x10(%rbp)
	hash_t hash = 0;
  4038ba:	48 c7 45 e8 00 00 00 	movq   $0x0,-0x18(%rbp)
  4038c1:	00 

	while (1)
  4038c2:	b8 00 00 00 00       	mov    $0x0,%eax
  4038c7:	84 c0                	test   %al,%al
  4038c9:	75 76                	jne    403941 <_D3std8typeinfo9ti_Ashort11TypeInfo_As7getHashMFPvZm+0xc3>
		default:
		    hash *= 9;
		    hash += *cast(uint *)str;
		    str += 2;
		    len -= 2;
		    break;
  4038cb:	48 8b 45 f8          	mov    -0x8(%rbp),%rax
  4038cf:	48 89 45 b0          	mov    %rax,-0x50(%rbp)
  4038d3:	48 83 7d b0 00       	cmpq   $0x0,-0x50(%rbp)
  4038d8:	74 09                	je     4038e3 <_D3std8typeinfo9ti_Ashort11TypeInfo_As7getHashMFPvZm+0x65>
  4038da:	48 83 7d b0 01       	cmpq   $0x1,-0x50(%rbp)
  4038df:	74 0c                	je     4038ed <_D3std8typeinfo9ti_Ashort11TypeInfo_As7getHashMFPvZm+0x6f>
  4038e1:	eb 34                	jmp    403917 <_D3std8typeinfo9ti_Ashort11TypeInfo_As7getHashMFPvZm+0x99>
	while (1)
	{
	    switch (len)
	    {
		case 0:
		    return hash;
  4038e3:	48 8b 45 e8          	mov    -0x18(%rbp),%rax
  4038e7:	48 89 45 b8          	mov    %rax,-0x48(%rbp)
  4038eb:	eb 5c                	jmp    403949 <_D3std8typeinfo9ti_Ashort11TypeInfo_As7getHashMFPvZm+0xcb>

		case 1:
		    hash *= 9;
  4038ed:	48 8b 55 e8          	mov    -0x18(%rbp),%rdx
  4038f1:	48 89 d0             	mov    %rdx,%rax
  4038f4:	48 c1 e0 03          	shl    $0x3,%rax
  4038f8:	48 01 d0             	add    %rdx,%rax
  4038fb:	48 89 45 e8          	mov    %rax,-0x18(%rbp)
		    hash += *cast(ushort *)str;
  4038ff:	48 8b 45 f0          	mov    -0x10(%rbp),%rax
  403903:	0f b7 00             	movzwl (%rax),%eax
  403906:	0f b7 c0             	movzwl %ax,%eax
  403909:	48 01 45 e8          	add    %rax,-0x18(%rbp)
		    return hash;
  40390d:	48 8b 45 e8          	mov    -0x18(%rbp),%rax
  403911:	48 89 45 b8          	mov    %rax,-0x48(%rbp)
  403915:	eb 32                	jmp    403949 <_D3std8typeinfo9ti_Ashort11TypeInfo_As7getHashMFPvZm+0xcb>

		default:
		    hash *= 9;
  403917:	48 8b 55 e8          	mov    -0x18(%rbp),%rdx
  40391b:	48 89 d0             	mov    %rdx,%rax
  40391e:	48 c1 e0 03          	shl    $0x3,%rax
  403922:	48 01 d0             	add    %rdx,%rax
  403925:	48 89 45 e8          	mov    %rax,-0x18(%rbp)
		    hash += *cast(uint *)str;
  403929:	48 8b 45 f0          	mov    -0x10(%rbp),%rax
  40392d:	8b 00                	mov    (%rax),%eax
  40392f:	89 c0                	mov    %eax,%eax
  403931:	48 01 45 e8          	add    %rax,-0x18(%rbp)
		    str += 2;
  403935:	48 83 45 f0 04       	addq   $0x4,-0x10(%rbp)
		    len -= 2;
  40393a:	48 83 6d f8 02       	subq   $0x2,-0x8(%rbp)
		    break;
  40393f:	eb 81                	jmp    4038c2 <_D3std8typeinfo9ti_Ashort11TypeInfo_As7getHashMFPvZm+0x44>
	    }
	}

	return hash;
  403941:	48 8b 45 e8          	mov    -0x18(%rbp),%rax
  403945:	48 89 45 b8          	mov    %rax,-0x48(%rbp)
  403949:	48 8b 45 b8          	mov    -0x48(%rbp),%rax
    }
  40394d:	c9                   	leaveq 
  40394e:	c3                   	retq   

000000000040394f <_D3std8typeinfo9ti_Ashort11TypeInfo_As6equalsMFPvPvZi>:

    int equals(void *p1, void *p2)
  40394f:	55                   	push   %rbp
  403950:	48 89 e5             	mov    %rsp,%rbp
  403953:	48 83 ec 40          	sub    $0x40,%rsp
  403957:	48 89 7d d8          	mov    %rdi,-0x28(%rbp)
  40395b:	48 89 75 d0          	mov    %rsi,-0x30(%rbp)
  40395f:	48 89 55 c8          	mov    %rdx,-0x38(%rbp)
  403963:	48 8b 7d d8          	mov    -0x28(%rbp),%rdi
  403967:	e8 10 5a 00 00       	callq  40937c <_D9invariant12_d_invariantFC6ObjectZv>
    {
	short[] s1 = *cast(short[]*)p1;
  40396c:	48 8b 55 d0          	mov    -0x30(%rbp),%rdx
  403970:	48 8b 02             	mov    (%rdx),%rax
  403973:	48 89 45 e0          	mov    %rax,-0x20(%rbp)
  403977:	48 8b 42 08          	mov    0x8(%rdx),%rax
  40397b:	48 89 45 e8          	mov    %rax,-0x18(%rbp)
	short[] s2 = *cast(short[]*)p2;
  40397f:	48 8b 55 c8          	mov    -0x38(%rbp),%rdx
  403983:	48 8b 02             	mov    (%rdx),%rax
  403986:	48 89 45 f0          	mov    %rax,-0x10(%rbp)
  40398a:	48 8b 42 08          	mov    0x8(%rdx),%rax
  40398e:	48 89 45 f8          	mov    %rax,-0x8(%rbp)

	return s1.length == s2.length &&
  403992:	48 8b 55 e0          	mov    -0x20(%rbp),%rdx
  403996:	48 8b 45 f0          	mov    -0x10(%rbp),%rax
  40399a:	48 39 c2             	cmp    %rax,%rdx
  40399d:	75 26                	jne    4039c5 <_D3std8typeinfo9ti_Ashort11TypeInfo_As6equalsMFPvPvZi+0x76>
  40399f:	48 8b 45 e0          	mov    -0x20(%rbp),%rax
  4039a3:	48 8d 14 00          	lea    (%rax,%rax,1),%rdx
  4039a7:	48 8b 45 f8          	mov    -0x8(%rbp),%rax
  4039ab:	48 89 c6             	mov    %rax,%rsi
  4039ae:	48 8b 45 e8          	mov    -0x18(%rbp),%rax
  4039b2:	48 89 c7             	mov    %rax,%rdi
  4039b5:	e8 fa 9e 00 00       	callq  40d8b4 <_D6kernel4core6system6memcmpFPvPvmZl>
  4039ba:	48 85 c0             	test   %rax,%rax
  4039bd:	75 06                	jne    4039c5 <_D3std8typeinfo9ti_Ashort11TypeInfo_As6equalsMFPvPvZi+0x76>
  4039bf:	c6 45 c7 01          	movb   $0x1,-0x39(%rbp)
  4039c3:	eb 04                	jmp    4039c9 <_D3std8typeinfo9ti_Ashort11TypeInfo_As6equalsMFPvPvZi+0x7a>
  4039c5:	c6 45 c7 00          	movb   $0x0,-0x39(%rbp)
  4039c9:	0f b6 45 c7          	movzbl -0x39(%rbp),%eax
	       memcmp(cast(ubyte*)s1.ptr, cast(ubyte*)s2.ptr, s1.length * short.sizeof) == 0;
    }
  4039cd:	c9                   	leaveq 
  4039ce:	c3                   	retq   

00000000004039cf <_D3std8typeinfo9ti_Ashort11TypeInfo_As7compareMFPvPvZi>:

    int compare(void *p1, void *p2)
  4039cf:	55                   	push   %rbp
  4039d0:	48 89 e5             	mov    %rsp,%rbp
  4039d3:	48 81 ec b0 00 00 00 	sub    $0xb0,%rsp
  4039da:	48 89 7d 98          	mov    %rdi,-0x68(%rbp)
  4039de:	48 89 75 90          	mov    %rsi,-0x70(%rbp)
  4039e2:	48 89 55 88          	mov    %rdx,-0x78(%rbp)
  4039e6:	48 8b 7d 98          	mov    -0x68(%rbp),%rdi
  4039ea:	e8 8d 59 00 00       	callq  40937c <_D9invariant12_d_invariantFC6ObjectZv>
    {
	short[] s1 = *cast(short[]*)p1;
  4039ef:	48 8b 55 90          	mov    -0x70(%rbp),%rdx
  4039f3:	48 8b 02             	mov    (%rdx),%rax
  4039f6:	48 89 45 a0          	mov    %rax,-0x60(%rbp)
  4039fa:	48 8b 42 08          	mov    0x8(%rdx),%rax
  4039fe:	48 89 45 a8          	mov    %rax,-0x58(%rbp)
	short[] s2 = *cast(short[]*)p2;
  403a02:	48 8b 55 88          	mov    -0x78(%rbp),%rdx
  403a06:	48 8b 02             	mov    (%rdx),%rax
  403a09:	48 89 45 b0          	mov    %rax,-0x50(%rbp)
  403a0d:	48 8b 42 08          	mov    0x8(%rdx),%rax
  403a11:	48 89 45 b8          	mov    %rax,-0x48(%rbp)
	size_t len = s1.length;
  403a15:	48 8b 45 a0          	mov    -0x60(%rbp),%rax
  403a19:	48 89 45 e8          	mov    %rax,-0x18(%rbp)

	if (s2.length < len)
  403a1d:	48 8b 45 b0          	mov    -0x50(%rbp),%rax
  403a21:	48 3b 45 e8          	cmp    -0x18(%rbp),%rax
  403a25:	73 08                	jae    403a2f <_D3std8typeinfo9ti_Ashort11TypeInfo_As7compareMFPvPvZi+0x60>
	    len = s2.length;
  403a27:	48 8b 45 b0          	mov    -0x50(%rbp),%rax
  403a2b:	48 89 45 e8          	mov    %rax,-0x18(%rbp)
	for (size_t u = 0; u < len; u++)
  403a2f:	48 c7 45 f0 00 00 00 	movq   $0x0,-0x10(%rbp)
  403a36:	00 
  403a37:	48 8b 45 f0          	mov    -0x10(%rbp),%rax
  403a3b:	48 3b 45 e8          	cmp    -0x18(%rbp),%rax
  403a3f:	0f 92 c0             	setb   %al
  403a42:	83 f0 01             	xor    $0x1,%eax
  403a45:	84 c0                	test   %al,%al
  403a47:	0f 85 dc 00 00 00    	jne    403b29 <_D3std8typeinfo9ti_Ashort11TypeInfo_As7compareMFPvPvZi+0x15a>
	{
	    int result = s1[u] - s2[u];
  403a4d:	48 8b 45 a8          	mov    -0x58(%rbp),%rax
  403a51:	48 89 85 58 ff ff ff 	mov    %rax,-0xa8(%rbp)
  403a58:	48 8b 45 a0          	mov    -0x60(%rbp),%rax
  403a5c:	48 39 45 f0          	cmp    %rax,-0x10(%rbp)
  403a60:	73 0d                	jae    403a6f <_D3std8typeinfo9ti_Ashort11TypeInfo_As7compareMFPvPvZi+0xa0>
  403a62:	48 8b 55 f0          	mov    -0x10(%rbp),%rdx
  403a66:	48 89 95 60 ff ff ff 	mov    %rdx,-0xa0(%rbp)
  403a6d:	eb 22                	jmp    403a91 <_D3std8typeinfo9ti_Ashort11TypeInfo_As7compareMFPvPvZi+0xc2>
  403a6f:	48 c7 45 c0 18 00 00 	movq   $0x18,-0x40(%rbp)
  403a76:	00 
  403a77:	48 c7 45 c8 68 04 41 	movq   $0x410468,-0x38(%rbp)
  403a7e:	00 
  403a7f:	48 8b 7d c0          	mov    -0x40(%rbp),%rdi
  403a83:	48 8b 75 c8          	mov    -0x38(%rbp),%rsi
  403a87:	ba 3d 00 00 00       	mov    $0x3d,%edx
  403a8c:	e8 b4 73 00 00       	callq  40ae45 <_d_array_bounds>
  403a91:	48 8b 85 60 ff ff ff 	mov    -0xa0(%rbp),%rax
  403a98:	48 01 c0             	add    %rax,%rax
  403a9b:	48 03 85 58 ff ff ff 	add    -0xa8(%rbp),%rax
  403aa2:	0f b7 00             	movzwl (%rax),%eax
  403aa5:	98                   	cwtl   
  403aa6:	89 85 6c ff ff ff    	mov    %eax,-0x94(%rbp)
  403aac:	48 8b 45 b8          	mov    -0x48(%rbp),%rax
  403ab0:	48 89 85 70 ff ff ff 	mov    %rax,-0x90(%rbp)
  403ab7:	48 8b 45 b0          	mov    -0x50(%rbp),%rax
  403abb:	48 39 45 f0          	cmp    %rax,-0x10(%rbp)
  403abf:	73 0d                	jae    403ace <_D3std8typeinfo9ti_Ashort11TypeInfo_As7compareMFPvPvZi+0xff>
  403ac1:	48 8b 55 f0          	mov    -0x10(%rbp),%rdx
  403ac5:	48 89 95 78 ff ff ff 	mov    %rdx,-0x88(%rbp)
  403acc:	eb 22                	jmp    403af0 <_D3std8typeinfo9ti_Ashort11TypeInfo_As7compareMFPvPvZi+0x121>
  403ace:	48 c7 45 d0 18 00 00 	movq   $0x18,-0x30(%rbp)
  403ad5:	00 
  403ad6:	48 c7 45 d8 68 04 41 	movq   $0x410468,-0x28(%rbp)
  403add:	00 
  403ade:	48 8b 7d d0          	mov    -0x30(%rbp),%rdi
  403ae2:	48 8b 75 d8          	mov    -0x28(%rbp),%rsi
  403ae6:	ba 3d 00 00 00       	mov    $0x3d,%edx
  403aeb:	e8 55 73 00 00       	callq  40ae45 <_d_array_bounds>
  403af0:	48 8b 85 78 ff ff ff 	mov    -0x88(%rbp),%rax
  403af7:	48 01 c0             	add    %rax,%rax
  403afa:	48 03 85 70 ff ff ff 	add    -0x90(%rbp),%rax
  403b01:	0f b7 00             	movzwl (%rax),%eax
  403b04:	98                   	cwtl   
  403b05:	8b 95 6c ff ff ff    	mov    -0x94(%rbp),%edx
  403b0b:	29 c2                	sub    %eax,%edx
  403b0d:	89 d0                	mov    %edx,%eax
  403b0f:	89 45 fc             	mov    %eax,-0x4(%rbp)
	    if (result)
  403b12:	83 7d fc 00          	cmpl   $0x0,-0x4(%rbp)
  403b16:	74 08                	je     403b20 <_D3std8typeinfo9ti_Ashort11TypeInfo_As7compareMFPvPvZi+0x151>
		return result;
  403b18:	8b 45 fc             	mov    -0x4(%rbp),%eax
  403b1b:	89 45 84             	mov    %eax,-0x7c(%rbp)
  403b1e:	eb 3c                	jmp    403b5c <_D3std8typeinfo9ti_Ashort11TypeInfo_As7compareMFPvPvZi+0x18d>
	if (s2.length < len)
	    len = s2.length;
	for (size_t u = 0; u < len; u++)
	{
	    int result = s1[u] - s2[u];
	    if (result)
  403b20:	48 ff 45 f0          	incq   -0x10(%rbp)
  403b24:	e9 0e ff ff ff       	jmpq   403a37 <_D3std8typeinfo9ti_Ashort11TypeInfo_As7compareMFPvPvZi+0x68>
		return result;
	}
	if (s1.length < s2.length)
  403b29:	48 8b 55 a0          	mov    -0x60(%rbp),%rdx
  403b2d:	48 8b 45 b0          	mov    -0x50(%rbp),%rax
  403b31:	48 39 c2             	cmp    %rax,%rdx
  403b34:	73 09                	jae    403b3f <_D3std8typeinfo9ti_Ashort11TypeInfo_As7compareMFPvPvZi+0x170>
	    return -1;
  403b36:	c7 45 84 ff ff ff ff 	movl   $0xffffffff,-0x7c(%rbp)
  403b3d:	eb 1d                	jmp    403b5c <_D3std8typeinfo9ti_Ashort11TypeInfo_As7compareMFPvPvZi+0x18d>
	else if (s1.length > s2.length)
  403b3f:	48 8b 55 a0          	mov    -0x60(%rbp),%rdx
  403b43:	48 8b 45 b0          	mov    -0x50(%rbp),%rax
  403b47:	48 39 c2             	cmp    %rax,%rdx
  403b4a:	76 09                	jbe    403b55 <_D3std8typeinfo9ti_Ashort11TypeInfo_As7compareMFPvPvZi+0x186>
	    return 1;
  403b4c:	c7 45 84 01 00 00 00 	movl   $0x1,-0x7c(%rbp)
